;
; Definition file of node.exe
; Automatic generated by gendef
; written by Kai Tietz 2008
;
LIBRARY "node.exe"
EXPORTS
; public: class v8::internal::Page *__ptr64 __cdecl v8::internal::MemoryAllocator::<0x1ULL,class v8::internal::SemiSpace>(unsigned __int64,class v8::internal::SemiSpace *__ptr64,enum v8::internal::Executability)__ptr64 
??$AllocatePage@$00VSemiSpace@internal@v8@@@MemoryAllocator@internal@v8@@QEAAPEAVPage@12@_KPEAVSemiSpace@12@W4Executability@12@@Z
; public: class v8::internal::Page *__ptr64 __cdecl v8::internal::MemoryAllocator::<0x0ULL,class v8::internal::PagedSpace>(unsigned __int64,class v8::internal::PagedSpace *__ptr64,enum v8::internal::Executability)__ptr64 
??$AllocatePage@$0A@VPagedSpace@internal@v8@@@MemoryAllocator@internal@v8@@QEAAPEAVPage@12@_KPEAVPagedSpace@12@W4Executability@12@@Z
; public: class v8::internal::Page *__ptr64 __cdecl v8::internal::MemoryAllocator::<0x0ULL,class v8::internal::SemiSpace>(unsigned __int64,class v8::internal::SemiSpace *__ptr64,enum v8::internal::Executability)__ptr64 
??$AllocatePage@$0A@VSemiSpace@internal@v8@@@MemoryAllocator@internal@v8@@QEAAPEAVPage@12@_KPEAVSemiSpace@12@W4Executability@12@@Z
; public: class v8::internal::SlotSet *__ptr64 __cdecl v8::internal::MemoryChunk::<0x1ULL>(void)__ptr64 
??$AllocateSlotSet@$00@MemoryChunk@internal@v8@@QEAAPEAVSlotSet@12@XZ
; public: class v8::internal::SlotSet *__ptr64 __cdecl v8::internal::MemoryChunk::<0x0ULL>(void)__ptr64 
??$AllocateSlotSet@$0A@@MemoryChunk@internal@v8@@QEAAPEAVSlotSet@12@XZ
; class std::<char,struct std::<char>,class std::<char>> *__ptr64 __cdecl v8::base::<float,float>(float,float,char const *__ptr64)
??$CheckEQImpl@MM@base@v8@@YAPEAV?$basic_string@DU?$char_traits@D@std@@V?$allocator@D@2@@std@@MMPEBD@Z
; class std::<char,struct std::<char>,class std::<char>> *__ptr64 __cdecl v8::base::<double,double>(double,double,char const *__ptr64)
??$CheckEQImpl@NN@base@v8@@YAPEAV?$basic_string@DU?$char_traits@D@std@@V?$allocator@D@2@@std@@NNPEBD@Z
; class std::<char,struct std::<char>,class std::<char>> *__ptr64 __cdecl v8::base::<float,float>(float,float,char const *__ptr64)
??$CheckGEImpl@MM@base@v8@@YAPEAV?$basic_string@DU?$char_traits@D@std@@V?$allocator@D@2@@std@@MMPEBD@Z
; class std::<char,struct std::<char>,class std::<char>> *__ptr64 __cdecl v8::base::<double,double>(double,double,char const *__ptr64)
??$CheckGEImpl@NN@base@v8@@YAPEAV?$basic_string@DU?$char_traits@D@std@@V?$allocator@D@2@@std@@NNPEBD@Z
; class std::<char,struct std::<char>,class std::<char>> *__ptr64 __cdecl v8::base::<float,float>(float,float,char const *__ptr64)
??$CheckGTImpl@MM@base@v8@@YAPEAV?$basic_string@DU?$char_traits@D@std@@V?$allocator@D@2@@std@@MMPEBD@Z
; class std::<char,struct std::<char>,class std::<char>> *__ptr64 __cdecl v8::base::<double,double>(double,double,char const *__ptr64)
??$CheckGTImpl@NN@base@v8@@YAPEAV?$basic_string@DU?$char_traits@D@std@@V?$allocator@D@2@@std@@NNPEBD@Z
; class std::<char,struct std::<char>,class std::<char>> *__ptr64 __cdecl v8::base::<float,float>(float,float,char const *__ptr64)
??$CheckLEImpl@MM@base@v8@@YAPEAV?$basic_string@DU?$char_traits@D@std@@V?$allocator@D@2@@std@@MMPEBD@Z
; class std::<char,struct std::<char>,class std::<char>> *__ptr64 __cdecl v8::base::<double,double>(double,double,char const *__ptr64)
??$CheckLEImpl@NN@base@v8@@YAPEAV?$basic_string@DU?$char_traits@D@std@@V?$allocator@D@2@@std@@NNPEBD@Z
; class std::<char,struct std::<char>,class std::<char>> *__ptr64 __cdecl v8::base::<float,float>(float,float,char const *__ptr64)
??$CheckLTImpl@MM@base@v8@@YAPEAV?$basic_string@DU?$char_traits@D@std@@V?$allocator@D@2@@std@@MMPEBD@Z
; class std::<char,struct std::<char>,class std::<char>> *__ptr64 __cdecl v8::base::<double,double>(double,double,char const *__ptr64)
??$CheckLTImpl@NN@base@v8@@YAPEAV?$basic_string@DU?$char_traits@D@std@@V?$allocator@D@2@@std@@NNPEBD@Z
; class std::<char,struct std::<char>,class std::<char>> *__ptr64 __cdecl v8::base::<float,float>(float,float,char const *__ptr64)
??$CheckNEImpl@MM@base@v8@@YAPEAV?$basic_string@DU?$char_traits@D@std@@V?$allocator@D@2@@std@@MMPEBD@Z
; class std::<char,struct std::<char>,class std::<char>> *__ptr64 __cdecl v8::base::<double,double>(double,double,char const *__ptr64)
??$CheckNEImpl@NN@base@v8@@YAPEAV?$basic_string@DU?$char_traits@D@std@@V?$allocator@D@2@@std@@NNPEBD@Z
; public: void __cdecl v8::internal::MemoryAllocator::<0x1ULL>(class v8::internal::MemoryChunk *__ptr64)__ptr64 
??$Free@$00@MemoryAllocator@internal@v8@@QEAAXPEAVMemoryChunk@12@@Z
; public: void __cdecl v8::internal::MemoryAllocator::<0x2ULL>(class v8::internal::MemoryChunk *__ptr64)__ptr64 
??$Free@$01@MemoryAllocator@internal@v8@@QEAAXPEAVMemoryChunk@12@@Z
; public: void __cdecl v8::internal::MemoryAllocator::<0x3ULL>(class v8::internal::MemoryChunk *__ptr64)__ptr64 
??$Free@$02@MemoryAllocator@internal@v8@@QEAAXPEAVMemoryChunk@12@@Z
; public: void __cdecl v8::internal::MemoryAllocator::<0x0ULL>(class v8::internal::MemoryChunk *__ptr64)__ptr64 
??$Free@$0A@@MemoryAllocator@internal@v8@@QEAAXPEAVMemoryChunk@12@@Z
; public: class v8::internal::<class v8::internal::String> __cdecl v8::internal::Factory::<unsigned char>(class v8::internal::<unsigned char const> const &__ptr64 ,bool)__ptr64 
??$InternalizeString@E@Factory@internal@v8@@QEAA?AV?$Handle@VString@internal@v8@@@12@AEBV?$Vector@$$CBE@12@_N@Z
; public: class v8::internal::<class v8::internal::String> __cdecl v8::internal::Factory::<unsigned short>(class v8::internal::<unsigned short const> const &__ptr64 ,bool)__ptr64 
??$InternalizeString@G@Factory@internal@v8@@QEAA?AV?$Handle@VString@internal@v8@@@12@AEBV?$Vector@$$CBG@12@_N@Z
; class std::<char,struct std::<char>,class std::<char>> *__ptr64 __cdecl v8::base::<int,int>(int,int,char const *__ptr64)
??$MakeCheckOpString@HH@base@v8@@YAPEAV?$basic_string@DU?$char_traits@D@std@@V?$allocator@D@2@@std@@HHPEBD@Z
; class std::<char,struct std::<char>,class std::<char>> *__ptr64 __cdecl v8::base::<unsigned int,unsigned int>(unsigned int,unsigned int,char const *__ptr64)
??$MakeCheckOpString@II@base@v8@@YAPEAV?$basic_string@DU?$char_traits@D@std@@V?$allocator@D@2@@std@@IIPEBD@Z
; class std::<char,struct std::<char>,class std::<char>> *__ptr64 __cdecl v8::base::<long,long>(long,long,char const *__ptr64)
??$MakeCheckOpString@JJ@base@v8@@YAPEAV?$basic_string@DU?$char_traits@D@std@@V?$allocator@D@2@@std@@JJPEBD@Z
; class std::<char,struct std::<char>,class std::<char>> *__ptr64 __cdecl v8::base::<unsigned long,unsigned long>(unsigned long,unsigned long,char const *__ptr64)
??$MakeCheckOpString@KK@base@v8@@YAPEAV?$basic_string@DU?$char_traits@D@std@@V?$allocator@D@2@@std@@KKPEBD@Z
; class std::<char,struct std::<char>,class std::<char>> *__ptr64 __cdecl v8::base::<void const *__ptr64,void const *__ptr64>(void const *__ptr64,void const *__ptr64,char const *__ptr64)
??$MakeCheckOpString@PEBXPEBX@base@v8@@YAPEAV?$basic_string@DU?$char_traits@D@std@@V?$allocator@D@2@@std@@PEBX0PEBD@Z
; class std::<char,struct std::<char>,class std::<char>> *__ptr64 __cdecl v8::base::<__int64,__int64>(__int64,__int64,char const *__ptr64)
??$MakeCheckOpString@_J_J@base@v8@@YAPEAV?$basic_string@DU?$char_traits@D@std@@V?$allocator@D@2@@std@@_J0PEBD@Z
; class std::<char,struct std::<char>,class std::<char>> *__ptr64 __cdecl v8::base::<unsigned __int64,unsigned __int64>(unsigned __int64,unsigned __int64,char const *__ptr64)
??$MakeCheckOpString@_K_K@base@v8@@YAPEAV?$basic_string@DU?$char_traits@D@std@@V?$allocator@D@2@@std@@_K0PEBD@Z
; void __cdecl v8::base::<signed char>(class std::<char,struct std::<char>> &__ptr64 ,signed char)
??$PrintCheckOperand@C@base@v8@@YAXAEAV?$basic_ostream@DU?$char_traits@D@std@@@std@@C@Z
; void __cdecl v8::base::<char>(class std::<char,struct std::<char>> &__ptr64 ,char)
??$PrintCheckOperand@D@base@v8@@YAXAEAV?$basic_ostream@DU?$char_traits@D@std@@@std@@D@Z
; void __cdecl v8::base::<unsigned char>(class std::<char,struct std::<char>> &__ptr64 ,unsigned char)
??$PrintCheckOperand@E@base@v8@@YAXAEAV?$basic_ostream@DU?$char_traits@D@std@@@std@@E@Z
; void __cdecl v8::base::<int>(class std::<char,struct std::<char>> &__ptr64 ,int)
??$PrintCheckOperand@H@base@v8@@YAXAEAV?$basic_ostream@DU?$char_traits@D@std@@@std@@H@Z
; void __cdecl v8::base::<unsigned int>(class std::<char,struct std::<char>> &__ptr64 ,unsigned int)
??$PrintCheckOperand@I@base@v8@@YAXAEAV?$basic_ostream@DU?$char_traits@D@std@@@std@@I@Z
; void __cdecl v8::base::<long>(class std::<char,struct std::<char>> &__ptr64 ,long)
??$PrintCheckOperand@J@base@v8@@YAXAEAV?$basic_ostream@DU?$char_traits@D@std@@@std@@J@Z
; void __cdecl v8::base::<unsigned long>(class std::<char,struct std::<char>> &__ptr64 ,unsigned long)
??$PrintCheckOperand@K@base@v8@@YAXAEAV?$basic_ostream@DU?$char_traits@D@std@@@std@@K@Z
; void __cdecl v8::base::<signed char *__ptr64>(class std::<char,struct std::<char>> &__ptr64 ,signed char *__ptr64)
??$PrintCheckOperand@PEAC@base@v8@@YAXAEAV?$basic_ostream@DU?$char_traits@D@std@@@std@@PEAC@Z
; void __cdecl v8::base::<char *__ptr64>(class std::<char,struct std::<char>> &__ptr64 ,char *__ptr64)
??$PrintCheckOperand@PEAD@base@v8@@YAXAEAV?$basic_ostream@DU?$char_traits@D@std@@@std@@PEAD@Z
; void __cdecl v8::base::<unsigned char *__ptr64>(class std::<char,struct std::<char>> &__ptr64 ,unsigned char *__ptr64)
??$PrintCheckOperand@PEAE@base@v8@@YAXAEAV?$basic_ostream@DU?$char_traits@D@std@@@std@@PEAE@Z
; void __cdecl v8::base::<signed char const *__ptr64>(class std::<char,struct std::<char>> &__ptr64 ,signed char const *__ptr64)
??$PrintCheckOperand@PEBC@base@v8@@YAXAEAV?$basic_ostream@DU?$char_traits@D@std@@@std@@PEBC@Z
; void __cdecl v8::base::<char const *__ptr64>(class std::<char,struct std::<char>> &__ptr64 ,char const *__ptr64)
??$PrintCheckOperand@PEBD@base@v8@@YAXAEAV?$basic_ostream@DU?$char_traits@D@std@@@std@@PEBD@Z
; void __cdecl v8::base::<unsigned char const *__ptr64>(class std::<char,struct std::<char>> &__ptr64 ,unsigned char const *__ptr64)
??$PrintCheckOperand@PEBE@base@v8@@YAXAEAV?$basic_ostream@DU?$char_traits@D@std@@@std@@PEBE@Z
; void __cdecl v8::base::<void const *__ptr64>(class std::<char,struct std::<char>> &__ptr64 ,void const *__ptr64)
??$PrintCheckOperand@PEBX@base@v8@@YAXAEAV?$basic_ostream@DU?$char_traits@D@std@@@std@@PEBX@Z
; void __cdecl v8::base::<__int64>(class std::<char,struct std::<char>> &__ptr64 ,__int64)
??$PrintCheckOperand@_J@base@v8@@YAXAEAV?$basic_ostream@DU?$char_traits@D@std@@@std@@_J@Z
; void __cdecl v8::base::<unsigned __int64>(class std::<char,struct std::<char>> &__ptr64 ,unsigned __int64)
??$PrintCheckOperand@_K@base@v8@@YAXAEAV?$basic_ostream@DU?$char_traits@D@std@@@std@@_K@Z
; public: void __cdecl v8::internal::MemoryChunk::<0x1ULL>(class v8::internal::HeapObject,int)__ptr64 
??$RegisterObjectWithInvalidatedSlots@$00@MemoryChunk@internal@v8@@QEAAXVHeapObject@12@H@Z
; public: void __cdecl v8::internal::MemoryChunk::<0x0ULL>(class v8::internal::HeapObject,int)__ptr64 
??$RegisterObjectWithInvalidatedSlots@$0A@@MemoryChunk@internal@v8@@QEAAXVHeapObject@12@H@Z
; struct v8::base::<unsigned int> __cdecl v8::base::<unsigned int>(unsigned int)
??$SignedDivisionByConstant@I@base@v8@@YA?AU?$MagicNumbersForDivision@I@01@I@Z
; struct v8::base::<unsigned __int64> __cdecl v8::base::<unsigned __int64>(unsigned __int64)
??$SignedDivisionByConstant@_K@base@v8@@YA?AU?$MagicNumbersForDivision@_K@01@_K@Z
; private: void __cdecl v8::internal::LookupIterator::<0x1ULL>(void)__ptr64 
??$Start@$00@LookupIterator@internal@v8@@AEAAXXZ
; private: void __cdecl v8::internal::LookupIterator::<0x0ULL>(void)__ptr64 
??$Start@$0A@@LookupIterator@internal@v8@@AEAAXXZ
; public: class v8::internal::compiler::Node *__ptr64 __cdecl v8::internal::compiler::CodeAssembler::<class v8::internal::compiler::Node *__ptr64,class v8::internal::compiler::Node *__ptr64,class v8::internal::compiler::Node *__ptr64,class v8::internal::compiler::Node *__ptr64>(class v8::internal::CallInterfaceDescriptor const &__ptr64 ,class v8::internal::compiler::Node *__ptr64,class v8::internal::compiler::Node *__ptr64,class v8::internal::compiler::Node *__ptr64,class v8::internal::compiler::Node *__ptr64,class v8::internal::compiler::Node *__ptr64)__ptr64 
??$TailCallBytecodeDispatch@PEAVNode@compiler@internal@v8@@PEAV1234@PEAV1234@PEAV1234@@CodeAssembler@compiler@internal@v8@@QEAAPEAVNode@123@AEBVCallInterfaceDescriptor@23@PEAV4123@1111@Z
; struct v8::base::<unsigned int> __cdecl v8::base::<unsigned int>(unsigned int,unsigned int)
??$UnsignedDivisionByConstant@I@base@v8@@YA?AU?$MagicNumbersForDivision@I@01@II@Z
; struct v8::base::<unsigned __int64> __cdecl v8::base::<unsigned __int64>(unsigned __int64,unsigned int)
??$UnsignedDivisionByConstant@_K@base@v8@@YA?AU?$MagicNumbersForDivision@_K@01@_KI@Z
; public: void __cdecl v8::internal::Heap::<class v8::internal::FullObjectSlot>(class v8::internal::HeapObject,class v8::internal::FullObjectSlot,class v8::internal::FullObjectSlot)__ptr64 
??$WriteBarrierForRange@VFullObjectSlot@internal@v8@@@Heap@internal@v8@@QEAAXVHeapObject@12@VFullObjectSlot@12@1@Z
; public: static void __cdecl v8::internal::String::<unsigned short>(class v8::internal::String,unsigned short *__ptr64,int,int)
??$WriteToFlat@G@String@internal@v8@@SAXV012@PEAGHH@Z
; protected: __cdecl v8::internal::<class v8::internal::GlobalDictionary,class v8::internal::GlobalDictionaryShape>::<class v8::internal::GlobalDictionary,class v8::internal::GlobalDictionaryShape>(unsigned __int64)__ptr64 
??0?$BaseNameDictionary@VGlobalDictionary@internal@v8@@VGlobalDictionaryShape@23@@internal@v8@@IEAA@_K@Z
; public: __cdecl v8::internal::<class v8::internal::GlobalDictionary,class v8::internal::GlobalDictionaryShape>::<class v8::internal::GlobalDictionary,class v8::internal::GlobalDictionaryShape>(void)__ptr64 
??0?$BaseNameDictionary@VGlobalDictionary@internal@v8@@VGlobalDictionaryShape@23@@internal@v8@@QEAA@XZ
; protected: __cdecl v8::internal::<class v8::internal::NameDictionary,class v8::internal::NameDictionaryShape>::<class v8::internal::NameDictionary,class v8::internal::NameDictionaryShape>(unsigned __int64)__ptr64 
??0?$BaseNameDictionary@VNameDictionary@internal@v8@@VNameDictionaryShape@23@@internal@v8@@IEAA@_K@Z
; public: __cdecl v8::internal::<class v8::internal::NameDictionary,class v8::internal::NameDictionaryShape>::<class v8::internal::NameDictionary,class v8::internal::NameDictionaryShape>(void)__ptr64 
??0?$BaseNameDictionary@VNameDictionary@internal@v8@@VNameDictionaryShape@23@@internal@v8@@QEAA@XZ
; protected: __cdecl v8::internal::<class v8::internal::GlobalDictionary,class v8::internal::GlobalDictionaryShape>::<class v8::internal::GlobalDictionary,class v8::internal::GlobalDictionaryShape>(unsigned __int64)__ptr64 
??0?$Dictionary@VGlobalDictionary@internal@v8@@VGlobalDictionaryShape@23@@internal@v8@@IEAA@_K@Z
; public: __cdecl v8::internal::<class v8::internal::GlobalDictionary,class v8::internal::GlobalDictionaryShape>::<class v8::internal::GlobalDictionary,class v8::internal::GlobalDictionaryShape>(void)__ptr64 
??0?$Dictionary@VGlobalDictionary@internal@v8@@VGlobalDictionaryShape@23@@internal@v8@@QEAA@XZ
; protected: __cdecl v8::internal::<class v8::internal::NameDictionary,class v8::internal::NameDictionaryShape>::<class v8::internal::NameDictionary,class v8::internal::NameDictionaryShape>(unsigned __int64)__ptr64 
??0?$Dictionary@VNameDictionary@internal@v8@@VNameDictionaryShape@23@@internal@v8@@IEAA@_K@Z
; public: __cdecl v8::internal::<class v8::internal::NameDictionary,class v8::internal::NameDictionaryShape>::<class v8::internal::NameDictionary,class v8::internal::NameDictionaryShape>(void)__ptr64 
??0?$Dictionary@VNameDictionary@internal@v8@@VNameDictionaryShape@23@@internal@v8@@QEAA@XZ
; protected: __cdecl v8::internal::<class v8::internal::NumberDictionary,class v8::internal::NumberDictionaryShape>::<class v8::internal::NumberDictionary,class v8::internal::NumberDictionaryShape>(unsigned __int64)__ptr64 
??0?$Dictionary@VNumberDictionary@internal@v8@@VNumberDictionaryShape@23@@internal@v8@@IEAA@_K@Z
; public: __cdecl v8::internal::<class v8::internal::NumberDictionary,class v8::internal::NumberDictionaryShape>::<class v8::internal::NumberDictionary,class v8::internal::NumberDictionaryShape>(void)__ptr64 
??0?$Dictionary@VNumberDictionary@internal@v8@@VNumberDictionaryShape@23@@internal@v8@@QEAA@XZ
; protected: __cdecl v8::internal::<class v8::internal::SimpleNumberDictionary,class v8::internal::SimpleNumberDictionaryShape>::<class v8::internal::SimpleNumberDictionary,class v8::internal::SimpleNumberDictionaryShape>(unsigned __int64)__ptr64 
??0?$Dictionary@VSimpleNumberDictionary@internal@v8@@VSimpleNumberDictionaryShape@23@@internal@v8@@IEAA@_K@Z
; public: __cdecl v8::internal::<class v8::internal::SimpleNumberDictionary,class v8::internal::SimpleNumberDictionaryShape>::<class v8::internal::SimpleNumberDictionary,class v8::internal::SimpleNumberDictionaryShape>(void)__ptr64 
??0?$Dictionary@VSimpleNumberDictionary@internal@v8@@VSimpleNumberDictionaryShape@23@@internal@v8@@QEAA@XZ
; protected: __cdecl v8::internal::<class v8::internal::CompilationCacheTable,class v8::internal::CompilationCacheShape>::<class v8::internal::CompilationCacheTable,class v8::internal::CompilationCacheShape>(unsigned __int64)__ptr64 
??0?$HashTable@VCompilationCacheTable@internal@v8@@VCompilationCacheShape@23@@internal@v8@@IEAA@_K@Z
; public: __cdecl v8::internal::<class v8::internal::CompilationCacheTable,class v8::internal::CompilationCacheShape>::<class v8::internal::CompilationCacheTable,class v8::internal::CompilationCacheShape>(void)__ptr64 
??0?$HashTable@VCompilationCacheTable@internal@v8@@VCompilationCacheShape@23@@internal@v8@@QEAA@XZ
; protected: __cdecl v8::internal::<class v8::internal::EphemeronHashTable,class v8::internal::EphemeronHashTableShape>::<class v8::internal::EphemeronHashTable,class v8::internal::EphemeronHashTableShape>(unsigned __int64)__ptr64 
??0?$HashTable@VEphemeronHashTable@internal@v8@@VEphemeronHashTableShape@23@@internal@v8@@IEAA@_K@Z
; public: __cdecl v8::internal::<class v8::internal::EphemeronHashTable,class v8::internal::EphemeronHashTableShape>::<class v8::internal::EphemeronHashTable,class v8::internal::EphemeronHashTableShape>(void)__ptr64 
??0?$HashTable@VEphemeronHashTable@internal@v8@@VEphemeronHashTableShape@23@@internal@v8@@QEAA@XZ
; protected: __cdecl v8::internal::<class v8::internal::GlobalDictionary,class v8::internal::GlobalDictionaryShape>::<class v8::internal::GlobalDictionary,class v8::internal::GlobalDictionaryShape>(unsigned __int64)__ptr64 
??0?$HashTable@VGlobalDictionary@internal@v8@@VGlobalDictionaryShape@23@@internal@v8@@IEAA@_K@Z
; public: __cdecl v8::internal::<class v8::internal::GlobalDictionary,class v8::internal::GlobalDictionaryShape>::<class v8::internal::GlobalDictionary,class v8::internal::GlobalDictionaryShape>(void)__ptr64 
??0?$HashTable@VGlobalDictionary@internal@v8@@VGlobalDictionaryShape@23@@internal@v8@@QEAA@XZ
; protected: __cdecl v8::internal::<class v8::internal::NameDictionary,class v8::internal::NameDictionaryShape>::<class v8::internal::NameDictionary,class v8::internal::NameDictionaryShape>(unsigned __int64)__ptr64 
??0?$HashTable@VNameDictionary@internal@v8@@VNameDictionaryShape@23@@internal@v8@@IEAA@_K@Z
; public: __cdecl v8::internal::<class v8::internal::NameDictionary,class v8::internal::NameDictionaryShape>::<class v8::internal::NameDictionary,class v8::internal::NameDictionaryShape>(void)__ptr64 
??0?$HashTable@VNameDictionary@internal@v8@@VNameDictionaryShape@23@@internal@v8@@QEAA@XZ
; protected: __cdecl v8::internal::<class v8::internal::NumberDictionary,class v8::internal::NumberDictionaryShape>::<class v8::internal::NumberDictionary,class v8::internal::NumberDictionaryShape>(unsigned __int64)__ptr64 
??0?$HashTable@VNumberDictionary@internal@v8@@VNumberDictionaryShape@23@@internal@v8@@IEAA@_K@Z
; public: __cdecl v8::internal::<class v8::internal::NumberDictionary,class v8::internal::NumberDictionaryShape>::<class v8::internal::NumberDictionary,class v8::internal::NumberDictionaryShape>(void)__ptr64 
??0?$HashTable@VNumberDictionary@internal@v8@@VNumberDictionaryShape@23@@internal@v8@@QEAA@XZ
; protected: __cdecl v8::internal::<class v8::internal::ObjectHashSet,class v8::internal::ObjectHashSetShape>::<class v8::internal::ObjectHashSet,class v8::internal::ObjectHashSetShape>(unsigned __int64)__ptr64 
??0?$HashTable@VObjectHashSet@internal@v8@@VObjectHashSetShape@23@@internal@v8@@IEAA@_K@Z
; public: __cdecl v8::internal::<class v8::internal::ObjectHashSet,class v8::internal::ObjectHashSetShape>::<class v8::internal::ObjectHashSet,class v8::internal::ObjectHashSetShape>(void)__ptr64 
??0?$HashTable@VObjectHashSet@internal@v8@@VObjectHashSetShape@23@@internal@v8@@QEAA@XZ
; protected: __cdecl v8::internal::<class v8::internal::ObjectHashTable,class v8::internal::ObjectHashTableShape>::<class v8::internal::ObjectHashTable,class v8::internal::ObjectHashTableShape>(unsigned __int64)__ptr64 
??0?$HashTable@VObjectHashTable@internal@v8@@VObjectHashTableShape@23@@internal@v8@@IEAA@_K@Z
; public: __cdecl v8::internal::<class v8::internal::ObjectHashTable,class v8::internal::ObjectHashTableShape>::<class v8::internal::ObjectHashTable,class v8::internal::ObjectHashTableShape>(void)__ptr64 
??0?$HashTable@VObjectHashTable@internal@v8@@VObjectHashTableShape@23@@internal@v8@@QEAA@XZ
; protected: __cdecl v8::internal::<class v8::internal::SimpleNumberDictionary,class v8::internal::SimpleNumberDictionaryShape>::<class v8::internal::SimpleNumberDictionary,class v8::internal::SimpleNumberDictionaryShape>(unsigned __int64)__ptr64 
??0?$HashTable@VSimpleNumberDictionary@internal@v8@@VSimpleNumberDictionaryShape@23@@internal@v8@@IEAA@_K@Z
; public: __cdecl v8::internal::<class v8::internal::SimpleNumberDictionary,class v8::internal::SimpleNumberDictionaryShape>::<class v8::internal::SimpleNumberDictionary,class v8::internal::SimpleNumberDictionaryShape>(void)__ptr64 
??0?$HashTable@VSimpleNumberDictionary@internal@v8@@VSimpleNumberDictionaryShape@23@@internal@v8@@QEAA@XZ
; public: __cdecl v8::base::<unsigned int>::<unsigned int>(unsigned int,unsigned int,bool)__ptr64 
??0?$MagicNumbersForDivision@I@base@v8@@QEAA@II_N@Z
; public: __cdecl v8::base::<unsigned __int64>::<unsigned __int64>(unsigned __int64,unsigned int,bool)__ptr64 
??0?$MagicNumbersForDivision@_K@base@v8@@QEAA@_KI_N@Z
; public: __cdecl v8::<unsigned char const>::<unsigned char const>(unsigned char const *__ptr64,unsigned __int64)__ptr64 
??0?$MemorySpan@$$CBE@v8@@QEAA@PEBE_K@Z
; public: __cdecl v8::<unsigned char const>::<unsigned char const>(void)__ptr64 
??0?$MemorySpan@$$CBE@v8@@QEAA@XZ
; public: __cdecl v8::internal::compiler::<int,struct v8::base::<int>,struct std::<int>>::<int,struct v8::base::<int>,struct std::<int>>(unsigned int)__ptr64 
??0?$NodeCache@HU?$hash@H@base@v8@@U?$equal_to@H@std@@@compiler@internal@v8@@QEAA@I@Z
; public: __cdecl v8::internal::compiler::<struct std::<int,char>,struct v8::base::<struct std::<int,char>>,struct std::<struct std::<int,char>>>::<struct std::<int,char>,struct v8::base::<struct std::<int,char>>,struct std::<struct std::<int,char>>>(unsigned int)__ptr64 
??0?$NodeCache@U?$pair@HD@std@@U?$hash@U?$pair@HD@std@@@base@v8@@U?$equal_to@U?$pair@HD@std@@@2@@compiler@internal@v8@@QEAA@I@Z
; public: __cdecl v8::internal::compiler::<struct std::<__int64,char>,struct v8::base::<struct std::<__int64,char>>,struct std::<struct std::<__int64,char>>>::<struct std::<__int64,char>,struct v8::base::<struct std::<__int64,char>>,struct std::<struct std::<__int64,char>>>(unsigned int)__ptr64 
??0?$NodeCache@U?$pair@_JD@std@@U?$hash@U?$pair@_JD@std@@@base@v8@@U?$equal_to@U?$pair@_JD@std@@@2@@compiler@internal@v8@@QEAA@I@Z
; public: __cdecl v8::internal::compiler::<__int64,struct v8::base::<__int64>,struct std::<__int64>>::<__int64,struct v8::base::<__int64>,struct std::<__int64>>(unsigned int)__ptr64 
??0?$NodeCache@_JU?$hash@_J@base@v8@@U?$equal_to@_J@std@@@compiler@internal@v8@@QEAA@I@Z
; protected: __cdecl v8::internal::<class v8::internal::EphemeronHashTable,class v8::internal::EphemeronHashTableShape>::<class v8::internal::EphemeronHashTable,class v8::internal::EphemeronHashTableShape>(unsigned __int64)__ptr64 
??0?$ObjectHashTableBase@VEphemeronHashTable@internal@v8@@VEphemeronHashTableShape@23@@internal@v8@@IEAA@_K@Z
; public: __cdecl v8::internal::<class v8::internal::EphemeronHashTable,class v8::internal::EphemeronHashTableShape>::<class v8::internal::EphemeronHashTable,class v8::internal::EphemeronHashTableShape>(void)__ptr64 
??0?$ObjectHashTableBase@VEphemeronHashTable@internal@v8@@VEphemeronHashTableShape@23@@internal@v8@@QEAA@XZ
; protected: __cdecl v8::internal::<class v8::internal::ObjectHashTable,class v8::internal::ObjectHashTableShape>::<class v8::internal::ObjectHashTable,class v8::internal::ObjectHashTableShape>(unsigned __int64)__ptr64 
??0?$ObjectHashTableBase@VObjectHashTable@internal@v8@@VObjectHashTableShape@23@@internal@v8@@IEAA@_K@Z
; public: __cdecl v8::internal::<class v8::internal::ObjectHashTable,class v8::internal::ObjectHashTableShape>::<class v8::internal::ObjectHashTable,class v8::internal::ObjectHashTableShape>(void)__ptr64 
??0?$ObjectHashTableBase@VObjectHashTable@internal@v8@@VObjectHashTableShape@23@@internal@v8@@QEAA@XZ
; protected: __cdecl v8::internal::<class v8::internal::OrderedHashMap,0x2ULL>::<class v8::internal::OrderedHashMap,0x2ULL>(unsigned __int64)__ptr64 
??0?$OrderedHashTable@VOrderedHashMap@internal@v8@@$01@internal@v8@@IEAA@_K@Z
; public: __cdecl v8::internal::<class v8::internal::OrderedHashMap,0x2ULL>::<class v8::internal::OrderedHashMap,0x2ULL>(void)__ptr64 
??0?$OrderedHashTable@VOrderedHashMap@internal@v8@@$01@internal@v8@@QEAA@XZ
; protected: __cdecl v8::internal::<class v8::internal::OrderedHashSet,0x1ULL>::<class v8::internal::OrderedHashSet,0x1ULL>(unsigned __int64)__ptr64 
??0?$OrderedHashTable@VOrderedHashSet@internal@v8@@$00@internal@v8@@IEAA@_K@Z
; public: __cdecl v8::internal::<class v8::internal::OrderedHashSet,0x1ULL>::<class v8::internal::OrderedHashSet,0x1ULL>(void)__ptr64 
??0?$OrderedHashTable@VOrderedHashSet@internal@v8@@$00@internal@v8@@QEAA@XZ
; public: __cdecl v8::internal::<class v8::internal::Parser>::<class v8::internal::Parser>(class v8::internal::Zone *__ptr64,class v8::internal::Scanner *__ptr64,unsigned __int64,class v8::Extension *__ptr64,class v8::internal::AstValueFactory *__ptr64,class v8::internal::PendingCompilationErrorHandler *__ptr64,class v8::internal::RuntimeCallStats *__ptr64,class v8::internal::Logger *__ptr64,int,bool,bool)__ptr64 
??0?$ParserBase@VParser@internal@v8@@@internal@v8@@QEAA@PEAVZone@12@PEAVScanner@12@_KPEAVExtension@2@PEAVAstValueFactory@12@PEAVPendingCompilationErrorHandler@12@PEAVRuntimeCallStats@12@PEAVLogger@12@H_N8@Z
; public: __cdecl v8::internal::<0x1ULL,0x1ULL>::<0x1ULL,0x1ULL>(class v8::internal::Isolate *__ptr64)__ptr64 
??0?$PerIsolateAssertScope@$00$00@internal@v8@@QEAA@PEAVIsolate@12@@Z
; public: __cdecl v8::internal::<0x1ULL,0x0ULL>::<0x1ULL,0x0ULL>(class v8::internal::Isolate *__ptr64)__ptr64 
??0?$PerIsolateAssertScope@$00$0A@@internal@v8@@QEAA@PEAVIsolate@12@@Z
; public: __cdecl v8::internal::<0x2ULL,0x1ULL>::<0x2ULL,0x1ULL>(class v8::internal::Isolate *__ptr64)__ptr64 
??0?$PerIsolateAssertScope@$01$00@internal@v8@@QEAA@PEAVIsolate@12@@Z
; public: __cdecl v8::internal::<0x2ULL,0x0ULL>::<0x2ULL,0x0ULL>(class v8::internal::Isolate *__ptr64)__ptr64 
??0?$PerIsolateAssertScope@$01$0A@@internal@v8@@QEAA@PEAVIsolate@12@@Z
; public: __cdecl v8::internal::<0x3ULL,0x1ULL>::<0x3ULL,0x1ULL>(class v8::internal::Isolate *__ptr64)__ptr64 
??0?$PerIsolateAssertScope@$02$00@internal@v8@@QEAA@PEAVIsolate@12@@Z
; public: __cdecl v8::internal::<0x3ULL,0x0ULL>::<0x3ULL,0x0ULL>(class v8::internal::Isolate *__ptr64)__ptr64 
??0?$PerIsolateAssertScope@$02$0A@@internal@v8@@QEAA@PEAVIsolate@12@@Z
; public: __cdecl v8::internal::<0x4ULL,0x1ULL>::<0x4ULL,0x1ULL>(class v8::internal::Isolate *__ptr64)__ptr64 
??0?$PerIsolateAssertScope@$03$00@internal@v8@@QEAA@PEAVIsolate@12@@Z
; public: __cdecl v8::internal::<0x4ULL,0x0ULL>::<0x4ULL,0x0ULL>(class v8::internal::Isolate *__ptr64)__ptr64 
??0?$PerIsolateAssertScope@$03$0A@@internal@v8@@QEAA@PEAVIsolate@12@@Z
; public: __cdecl v8::internal::<0x5ULL,0x1ULL>::<0x5ULL,0x1ULL>(class v8::internal::Isolate *__ptr64)__ptr64 
??0?$PerIsolateAssertScope@$04$00@internal@v8@@QEAA@PEAVIsolate@12@@Z
; public: __cdecl v8::internal::<0x5ULL,0x0ULL>::<0x5ULL,0x0ULL>(class v8::internal::Isolate *__ptr64)__ptr64 
??0?$PerIsolateAssertScope@$04$0A@@internal@v8@@QEAA@PEAVIsolate@12@@Z
; public: __cdecl v8::internal::<0x0ULL,0x1ULL>::<0x0ULL,0x1ULL>(class v8::internal::Isolate *__ptr64)__ptr64 
??0?$PerIsolateAssertScope@$0A@$00@internal@v8@@QEAA@PEAVIsolate@12@@Z
; public: __cdecl v8::internal::<0x0ULL,0x0ULL>::<0x0ULL,0x0ULL>(class v8::internal::Isolate *__ptr64)__ptr64 
??0?$PerIsolateAssertScope@$0A@$0A@@internal@v8@@QEAA@PEAVIsolate@12@@Z
; public: __cdecl v8::internal::<0x1ULL,0x1ULL>::<0x1ULL,0x1ULL>(void)__ptr64 
??0?$PerThreadAssertScope@$00$00@internal@v8@@QEAA@XZ
; public: __cdecl v8::internal::<0x1ULL,0x0ULL>::<0x1ULL,0x0ULL>(void)__ptr64 
??0?$PerThreadAssertScope@$00$0A@@internal@v8@@QEAA@XZ
; public: __cdecl v8::internal::<0x2ULL,0x1ULL>::<0x2ULL,0x1ULL>(void)__ptr64 
??0?$PerThreadAssertScope@$01$00@internal@v8@@QEAA@XZ
; public: __cdecl v8::internal::<0x2ULL,0x0ULL>::<0x2ULL,0x0ULL>(void)__ptr64 
??0?$PerThreadAssertScope@$01$0A@@internal@v8@@QEAA@XZ
; public: __cdecl v8::internal::<0x3ULL,0x1ULL>::<0x3ULL,0x1ULL>(void)__ptr64 
??0?$PerThreadAssertScope@$02$00@internal@v8@@QEAA@XZ
; public: __cdecl v8::internal::<0x3ULL,0x0ULL>::<0x3ULL,0x0ULL>(void)__ptr64 
??0?$PerThreadAssertScope@$02$0A@@internal@v8@@QEAA@XZ
; public: __cdecl v8::internal::<0x4ULL,0x1ULL>::<0x4ULL,0x1ULL>(void)__ptr64 
??0?$PerThreadAssertScope@$03$00@internal@v8@@QEAA@XZ
; public: __cdecl v8::internal::<0x4ULL,0x0ULL>::<0x4ULL,0x0ULL>(void)__ptr64 
??0?$PerThreadAssertScope@$03$0A@@internal@v8@@QEAA@XZ
; public: __cdecl v8::internal::<0x0ULL,0x1ULL>::<0x0ULL,0x1ULL>(void)__ptr64 
??0?$PerThreadAssertScope@$0A@$00@internal@v8@@QEAA@XZ
; public: __cdecl v8::internal::<0x0ULL,0x0ULL>::<0x0ULL,0x0ULL>(void)__ptr64 
??0?$PerThreadAssertScope@$0A@$0A@@internal@v8@@QEAA@XZ
; protected: __cdecl v8::base::time_internal::<class v8::base::ThreadTicks>::<class v8::base::ThreadTicks>(__int64)__ptr64 
??0?$TimeBase@VThreadTicks@base@v8@@@time_internal@base@v8@@IEAA@_J@Z
; protected: __cdecl v8::base::time_internal::<class v8::base::Time>::<class v8::base::Time>(__int64)__ptr64 
??0?$TimeBase@VTime@base@v8@@@time_internal@base@v8@@IEAA@_J@Z
; protected: __cdecl v8::base::time_internal::<class v8::base::TimeTicks>::<class v8::base::TimeTicks>(__int64)__ptr64 
??0?$TimeBase@VTimeTicks@base@v8@@@time_internal@base@v8@@IEAA@_J@Z
; public: __cdecl v8::internal::<class v8::internal::compiler::MoveOperands *__ptr64>::<class v8::internal::compiler::MoveOperands *__ptr64>(class v8::internal::<class v8::internal::compiler::MoveOperands *__ptr64> const &__ptr64 )__ptr64 
??0?$ZoneVector@PEAVMoveOperands@compiler@internal@v8@@@internal@v8@@QEAA@AEBV012@@Z
; public: __cdecl v8::internal::<class v8::internal::compiler::MoveOperands *__ptr64>::<class v8::internal::compiler::MoveOperands *__ptr64>(class v8::internal::Zone *__ptr64)__ptr64 
??0?$ZoneVector@PEAVMoveOperands@compiler@internal@v8@@@internal@v8@@QEAA@PEAVZone@12@@Z
; public: __cdecl v8::internal::<class v8::internal::compiler::MoveOperands *__ptr64>::<class v8::internal::compiler::MoveOperands *__ptr64>(class std::<class v8::internal::compiler::MoveOperands *__ptr64>,class v8::internal::Zone *__ptr64)__ptr64 
??0?$ZoneVector@PEAVMoveOperands@compiler@internal@v8@@@internal@v8@@QEAA@V?$initializer_list@PEAVMoveOperands@compiler@internal@v8@@@std@@PEAVZone@12@@Z
; public: __cdecl v8::internal::<class v8::internal::compiler::MoveOperands *__ptr64>::<class v8::internal::compiler::MoveOperands *__ptr64>(unsigned __int64,class v8::internal::compiler::MoveOperands *__ptr64,class v8::internal::Zone *__ptr64)__ptr64 
??0?$ZoneVector@PEAVMoveOperands@compiler@internal@v8@@@internal@v8@@QEAA@_KPEAVMoveOperands@compiler@12@PEAVZone@12@@Z
; public: __cdecl v8::internal::<class v8::internal::compiler::MoveOperands *__ptr64>::<class v8::internal::compiler::MoveOperands *__ptr64>(unsigned __int64,class v8::internal::Zone *__ptr64)__ptr64 
??0?$ZoneVector@PEAVMoveOperands@compiler@internal@v8@@@internal@v8@@QEAA@_KPEAVZone@12@@Z
; public: __cdecl std::<struct std::<class v8::internal::compiler::MoveOperands *__ptr64,class v8::internal::<class v8::internal::compiler::MoveOperands *__ptr64>>>::<struct std::<class v8::internal::compiler::MoveOperands *__ptr64,class v8::internal::<class v8::internal::compiler::MoveOperands *__ptr64>>>(void)__ptr64 
??0?$_Vector_alloc@U?$_Vec_base_types@PEAVMoveOperands@compiler@internal@v8@@V?$ZoneAllocator@PEAVMoveOperands@compiler@internal@v8@@@34@@std@@@std@@QEAA@XZ
; public: __cdecl std::<struct std::<struct v8::CpuProfileDeoptFrame,class std::<struct v8::CpuProfileDeoptFrame>>>::<struct std::<struct v8::CpuProfileDeoptFrame,class std::<struct v8::CpuProfileDeoptFrame>>>(void)__ptr64 
??0?$_Vector_alloc@U?$_Vec_base_types@UCpuProfileDeoptFrame@v8@@V?$allocator@UCpuProfileDeoptFrame@v8@@@std@@@std@@@std@@QEAA@XZ
; public: __cdecl std::<struct std::<struct v8::CpuProfileDeoptInfo,class std::<struct v8::CpuProfileDeoptInfo>>>::<struct std::<struct v8::CpuProfileDeoptInfo,class std::<struct v8::CpuProfileDeoptInfo>>>(void)__ptr64 
??0?$_Vector_alloc@U?$_Vec_base_types@UCpuProfileDeoptInfo@v8@@V?$allocator@UCpuProfileDeoptInfo@v8@@@std@@@std@@@std@@QEAA@XZ
; protected: __cdecl std::<char,struct std::<char>>::<char,struct std::<char>>(void)__ptr64 
??0?$basic_ios@DU?$char_traits@D@std@@@std@@IEAA@XZ
; public: __cdecl std::<char,struct std::<char>>::<char,struct std::<char>>(class std::<char,struct std::<char>> *__ptr64)__ptr64 
??0?$basic_ios@DU?$char_traits@D@std@@@std@@QEAA@PEAV?$basic_streambuf@DU?$char_traits@D@std@@@1@@Z
; protected: __cdecl std::<char,struct std::<char>>::<char,struct std::<char>>(,class std::<char,struct std::<char>> *__ptr64 const)__ptr64 
??0?$basic_ostream@DU?$char_traits@D@std@@@std@@IEAA@$$QEAV01@@Z
; public: __cdecl std::<char,struct std::<char>>::<char,struct std::<char>>(class std::<char,struct std::<char>> *__ptr64,bool)__ptr64 
??0?$basic_ostream@DU?$char_traits@D@std@@@std@@QEAA@PEAV?$basic_streambuf@DU?$char_traits@D@std@@@1@_N@Z
; public: __cdecl std::<char,struct std::<char>>::<char,struct std::<char>>(enum std::_Uninitialized,bool)__ptr64 
??0?$basic_ostream@DU?$char_traits@D@std@@@std@@QEAA@W4_Uninitialized@1@_N@Z
; protected: __cdecl std::<char,struct std::<char>>::<char,struct std::<char>>(class std::<char,struct std::<char>> const &__ptr64 )__ptr64 
??0?$basic_streambuf@DU?$char_traits@D@std@@@std@@IEAA@AEBV01@@Z
; protected: __cdecl std::<char,struct std::<char>>::<char,struct std::<char>>(enum std::_Uninitialized)__ptr64 
??0?$basic_streambuf@DU?$char_traits@D@std@@@std@@IEAA@W4_Uninitialized@1@@Z
; protected: __cdecl std::<char,struct std::<char>>::<char,struct std::<char>>(void)__ptr64 
??0?$basic_streambuf@DU?$char_traits@D@std@@@std@@IEAA@XZ
; public: __cdecl std::<class v8::internal::compiler::MoveOperands *__ptr64,class v8::internal::<class v8::internal::compiler::MoveOperands *__ptr64>>::<class v8::internal::compiler::MoveOperands *__ptr64,class v8::internal::<class v8::internal::compiler::MoveOperands *__ptr64>>(,class std::<class v8::internal::compiler::MoveOperands *__ptr64,class v8::internal::<class v8::internal::compiler::MoveOperands *__ptr64>> *__ptr64 const)__ptr64 
??0?$vector@PEAVMoveOperands@compiler@internal@v8@@V?$ZoneAllocator@PEAVMoveOperands@compiler@internal@v8@@@34@@std@@QEAA@$$QEAV01@@Z
; public: __cdecl std::<class v8::internal::compiler::MoveOperands *__ptr64,class v8::internal::<class v8::internal::compiler::MoveOperands *__ptr64>>::<class v8::internal::compiler::MoveOperands *__ptr64,class v8::internal::<class v8::internal::compiler::MoveOperands *__ptr64>>(,class std::<class v8::internal::compiler::MoveOperands *__ptr64,class v8::internal::<class v8::internal::compiler::MoveOperands *__ptr64>> *__ptr64 const,class v8::internal::<class v8::internal::compiler::MoveOperands *__ptr64> const &__ptr64 )__ptr64 
??0?$vector@PEAVMoveOperands@compiler@internal@v8@@V?$ZoneAllocator@PEAVMoveOperands@compiler@internal@v8@@@34@@std@@QEAA@$$QEAV01@AEBV?$ZoneAllocator@PEAVMoveOperands@compiler@internal@v8@@@internal@v8@@@Z
; public: __cdecl std::<class v8::internal::compiler::MoveOperands *__ptr64,class v8::internal::<class v8::internal::compiler::MoveOperands *__ptr64>>::<class v8::internal::compiler::MoveOperands *__ptr64,class v8::internal::<class v8::internal::compiler::MoveOperands *__ptr64>>(class std::<class v8::internal::compiler::MoveOperands *__ptr64,class v8::internal::<class v8::internal::compiler::MoveOperands *__ptr64>> const &__ptr64 )__ptr64 
??0?$vector@PEAVMoveOperands@compiler@internal@v8@@V?$ZoneAllocator@PEAVMoveOperands@compiler@internal@v8@@@34@@std@@QEAA@AEBV01@@Z
; public: __cdecl std::<class v8::internal::compiler::MoveOperands *__ptr64,class v8::internal::<class v8::internal::compiler::MoveOperands *__ptr64>>::<class v8::internal::compiler::MoveOperands *__ptr64,class v8::internal::<class v8::internal::compiler::MoveOperands *__ptr64>>(class std::<class v8::internal::compiler::MoveOperands *__ptr64,class v8::internal::<class v8::internal::compiler::MoveOperands *__ptr64>> const &__ptr64 ,class v8::internal::<class v8::internal::compiler::MoveOperands *__ptr64> const &__ptr64 )__ptr64 
??0?$vector@PEAVMoveOperands@compiler@internal@v8@@V?$ZoneAllocator@PEAVMoveOperands@compiler@internal@v8@@@34@@std@@QEAA@AEBV01@AEBV?$ZoneAllocator@PEAVMoveOperands@compiler@internal@v8@@@internal@v8@@@Z
; public: __cdecl std::<class v8::internal::compiler::MoveOperands *__ptr64,class v8::internal::<class v8::internal::compiler::MoveOperands *__ptr64>>::<class v8::internal::compiler::MoveOperands *__ptr64,class v8::internal::<class v8::internal::compiler::MoveOperands *__ptr64>>(class v8::internal::<class v8::internal::compiler::MoveOperands *__ptr64> const &__ptr64 )__ptr64 
??0?$vector@PEAVMoveOperands@compiler@internal@v8@@V?$ZoneAllocator@PEAVMoveOperands@compiler@internal@v8@@@34@@std@@QEAA@AEBV?$ZoneAllocator@PEAVMoveOperands@compiler@internal@v8@@@internal@v8@@@Z
; public: __cdecl std::<class v8::internal::compiler::MoveOperands *__ptr64,class v8::internal::<class v8::internal::compiler::MoveOperands *__ptr64>>::<class v8::internal::compiler::MoveOperands *__ptr64,class v8::internal::<class v8::internal::compiler::MoveOperands *__ptr64>>(class std::<class v8::internal::compiler::MoveOperands *__ptr64>,class v8::internal::<class v8::internal::compiler::MoveOperands *__ptr64> const &__ptr64 )__ptr64 
??0?$vector@PEAVMoveOperands@compiler@internal@v8@@V?$ZoneAllocator@PEAVMoveOperands@compiler@internal@v8@@@34@@std@@QEAA@V?$initializer_list@PEAVMoveOperands@compiler@internal@v8@@@1@AEBV?$ZoneAllocator@PEAVMoveOperands@compiler@internal@v8@@@internal@v8@@@Z
; public: __cdecl std::<class v8::internal::compiler::MoveOperands *__ptr64,class v8::internal::<class v8::internal::compiler::MoveOperands *__ptr64>>::<class v8::internal::compiler::MoveOperands *__ptr64,class v8::internal::<class v8::internal::compiler::MoveOperands *__ptr64>>(void)__ptr64 
??0?$vector@PEAVMoveOperands@compiler@internal@v8@@V?$ZoneAllocator@PEAVMoveOperands@compiler@internal@v8@@@34@@std@@QEAA@XZ
; public: __cdecl std::<class v8::internal::compiler::MoveOperands *__ptr64,class v8::internal::<class v8::internal::compiler::MoveOperands *__ptr64>>::<class v8::internal::compiler::MoveOperands *__ptr64,class v8::internal::<class v8::internal::compiler::MoveOperands *__ptr64>>(unsigned __int64,class v8::internal::compiler::MoveOperands *__ptr64 const &__ptr64 ,class v8::internal::<class v8::internal::compiler::MoveOperands *__ptr64> const &__ptr64 )__ptr64 
??0?$vector@PEAVMoveOperands@compiler@internal@v8@@V?$ZoneAllocator@PEAVMoveOperands@compiler@internal@v8@@@34@@std@@QEAA@_KAEBQEAVMoveOperands@compiler@internal@v8@@AEBV?$ZoneAllocator@PEAVMoveOperands@compiler@internal@v8@@@45@@Z
; public: __cdecl std::<class v8::internal::compiler::MoveOperands *__ptr64,class v8::internal::<class v8::internal::compiler::MoveOperands *__ptr64>>::<class v8::internal::compiler::MoveOperands *__ptr64,class v8::internal::<class v8::internal::compiler::MoveOperands *__ptr64>>(unsigned __int64,class v8::internal::<class v8::internal::compiler::MoveOperands *__ptr64> const &__ptr64 )__ptr64 
??0?$vector@PEAVMoveOperands@compiler@internal@v8@@V?$ZoneAllocator@PEAVMoveOperands@compiler@internal@v8@@@34@@std@@QEAA@_KAEBV?$ZoneAllocator@PEAVMoveOperands@compiler@internal@v8@@@internal@v8@@@Z
; public: __cdecl std::<struct v8::CpuProfileDeoptFrame,class std::<struct v8::CpuProfileDeoptFrame>>::<struct v8::CpuProfileDeoptFrame,class std::<struct v8::CpuProfileDeoptFrame>>(,class std::<struct v8::CpuProfileDeoptFrame,class std::<struct v8::CpuProfileDeoptFrame>> *__ptr64 const)__ptr64 
??0?$vector@UCpuProfileDeoptFrame@v8@@V?$allocator@UCpuProfileDeoptFrame@v8@@@std@@@std@@QEAA@$$QEAV01@@Z
; public: __cdecl std::<struct v8::CpuProfileDeoptFrame,class std::<struct v8::CpuProfileDeoptFrame>>::<struct v8::CpuProfileDeoptFrame,class std::<struct v8::CpuProfileDeoptFrame>>(,class std::<struct v8::CpuProfileDeoptFrame,class std::<struct v8::CpuProfileDeoptFrame>> *__ptr64 const,class std::<struct v8::CpuProfileDeoptFrame> const &__ptr64 )__ptr64 
??0?$vector@UCpuProfileDeoptFrame@v8@@V?$allocator@UCpuProfileDeoptFrame@v8@@@std@@@std@@QEAA@$$QEAV01@AEBV?$allocator@UCpuProfileDeoptFrame@v8@@@1@@Z
; public: __cdecl std::<struct v8::CpuProfileDeoptFrame,class std::<struct v8::CpuProfileDeoptFrame>>::<struct v8::CpuProfileDeoptFrame,class std::<struct v8::CpuProfileDeoptFrame>>(class std::<struct v8::CpuProfileDeoptFrame,class std::<struct v8::CpuProfileDeoptFrame>> const &__ptr64 )__ptr64 
??0?$vector@UCpuProfileDeoptFrame@v8@@V?$allocator@UCpuProfileDeoptFrame@v8@@@std@@@std@@QEAA@AEBV01@@Z
; public: __cdecl std::<struct v8::CpuProfileDeoptFrame,class std::<struct v8::CpuProfileDeoptFrame>>::<struct v8::CpuProfileDeoptFrame,class std::<struct v8::CpuProfileDeoptFrame>>(class std::<struct v8::CpuProfileDeoptFrame,class std::<struct v8::CpuProfileDeoptFrame>> const &__ptr64 ,class std::<struct v8::CpuProfileDeoptFrame> const &__ptr64 )__ptr64 
??0?$vector@UCpuProfileDeoptFrame@v8@@V?$allocator@UCpuProfileDeoptFrame@v8@@@std@@@std@@QEAA@AEBV01@AEBV?$allocator@UCpuProfileDeoptFrame@v8@@@1@@Z
; public: __cdecl std::<struct v8::CpuProfileDeoptFrame,class std::<struct v8::CpuProfileDeoptFrame>>::<struct v8::CpuProfileDeoptFrame,class std::<struct v8::CpuProfileDeoptFrame>>(class std::<struct v8::CpuProfileDeoptFrame> const &__ptr64 )__ptr64 
??0?$vector@UCpuProfileDeoptFrame@v8@@V?$allocator@UCpuProfileDeoptFrame@v8@@@std@@@std@@QEAA@AEBV?$allocator@UCpuProfileDeoptFrame@v8@@@1@@Z
; public: __cdecl std::<struct v8::CpuProfileDeoptFrame,class std::<struct v8::CpuProfileDeoptFrame>>::<struct v8::CpuProfileDeoptFrame,class std::<struct v8::CpuProfileDeoptFrame>>(class std::<struct v8::CpuProfileDeoptFrame>,class std::<struct v8::CpuProfileDeoptFrame> const &__ptr64 )__ptr64 
??0?$vector@UCpuProfileDeoptFrame@v8@@V?$allocator@UCpuProfileDeoptFrame@v8@@@std@@@std@@QEAA@V?$initializer_list@UCpuProfileDeoptFrame@v8@@@1@AEBV?$allocator@UCpuProfileDeoptFrame@v8@@@1@@Z
; public: __cdecl std::<struct v8::CpuProfileDeoptFrame,class std::<struct v8::CpuProfileDeoptFrame>>::<struct v8::CpuProfileDeoptFrame,class std::<struct v8::CpuProfileDeoptFrame>>(void)__ptr64 
??0?$vector@UCpuProfileDeoptFrame@v8@@V?$allocator@UCpuProfileDeoptFrame@v8@@@std@@@std@@QEAA@XZ
; public: __cdecl std::<struct v8::CpuProfileDeoptFrame,class std::<struct v8::CpuProfileDeoptFrame>>::<struct v8::CpuProfileDeoptFrame,class std::<struct v8::CpuProfileDeoptFrame>>(unsigned __int64,struct v8::CpuProfileDeoptFrame const &__ptr64 ,class std::<struct v8::CpuProfileDeoptFrame> const &__ptr64 )__ptr64 
??0?$vector@UCpuProfileDeoptFrame@v8@@V?$allocator@UCpuProfileDeoptFrame@v8@@@std@@@std@@QEAA@_KAEBUCpuProfileDeoptFrame@v8@@AEBV?$allocator@UCpuProfileDeoptFrame@v8@@@1@@Z
; public: __cdecl std::<struct v8::CpuProfileDeoptFrame,class std::<struct v8::CpuProfileDeoptFrame>>::<struct v8::CpuProfileDeoptFrame,class std::<struct v8::CpuProfileDeoptFrame>>(unsigned __int64,class std::<struct v8::CpuProfileDeoptFrame> const &__ptr64 )__ptr64 
??0?$vector@UCpuProfileDeoptFrame@v8@@V?$allocator@UCpuProfileDeoptFrame@v8@@@std@@@std@@QEAA@_KAEBV?$allocator@UCpuProfileDeoptFrame@v8@@@1@@Z
; public: __cdecl std::<struct v8::CpuProfileDeoptInfo,class std::<struct v8::CpuProfileDeoptInfo>>::<struct v8::CpuProfileDeoptInfo,class std::<struct v8::CpuProfileDeoptInfo>>(,class std::<struct v8::CpuProfileDeoptInfo,class std::<struct v8::CpuProfileDeoptInfo>> *__ptr64 const)__ptr64 
??0?$vector@UCpuProfileDeoptInfo@v8@@V?$allocator@UCpuProfileDeoptInfo@v8@@@std@@@std@@QEAA@$$QEAV01@@Z
; public: __cdecl std::<struct v8::CpuProfileDeoptInfo,class std::<struct v8::CpuProfileDeoptInfo>>::<struct v8::CpuProfileDeoptInfo,class std::<struct v8::CpuProfileDeoptInfo>>(,class std::<struct v8::CpuProfileDeoptInfo,class std::<struct v8::CpuProfileDeoptInfo>> *__ptr64 const,class std::<struct v8::CpuProfileDeoptInfo> const &__ptr64 )__ptr64 
??0?$vector@UCpuProfileDeoptInfo@v8@@V?$allocator@UCpuProfileDeoptInfo@v8@@@std@@@std@@QEAA@$$QEAV01@AEBV?$allocator@UCpuProfileDeoptInfo@v8@@@1@@Z
; public: __cdecl std::<struct v8::CpuProfileDeoptInfo,class std::<struct v8::CpuProfileDeoptInfo>>::<struct v8::CpuProfileDeoptInfo,class std::<struct v8::CpuProfileDeoptInfo>>(class std::<struct v8::CpuProfileDeoptInfo,class std::<struct v8::CpuProfileDeoptInfo>> const &__ptr64 )__ptr64 
??0?$vector@UCpuProfileDeoptInfo@v8@@V?$allocator@UCpuProfileDeoptInfo@v8@@@std@@@std@@QEAA@AEBV01@@Z
; public: __cdecl std::<struct v8::CpuProfileDeoptInfo,class std::<struct v8::CpuProfileDeoptInfo>>::<struct v8::CpuProfileDeoptInfo,class std::<struct v8::CpuProfileDeoptInfo>>(class std::<struct v8::CpuProfileDeoptInfo,class std::<struct v8::CpuProfileDeoptInfo>> const &__ptr64 ,class std::<struct v8::CpuProfileDeoptInfo> const &__ptr64 )__ptr64 
??0?$vector@UCpuProfileDeoptInfo@v8@@V?$allocator@UCpuProfileDeoptInfo@v8@@@std@@@std@@QEAA@AEBV01@AEBV?$allocator@UCpuProfileDeoptInfo@v8@@@1@@Z
; public: __cdecl std::<struct v8::CpuProfileDeoptInfo,class std::<struct v8::CpuProfileDeoptInfo>>::<struct v8::CpuProfileDeoptInfo,class std::<struct v8::CpuProfileDeoptInfo>>(class std::<struct v8::CpuProfileDeoptInfo> const &__ptr64 )__ptr64 
??0?$vector@UCpuProfileDeoptInfo@v8@@V?$allocator@UCpuProfileDeoptInfo@v8@@@std@@@std@@QEAA@AEBV?$allocator@UCpuProfileDeoptInfo@v8@@@1@@Z
; public: __cdecl std::<struct v8::CpuProfileDeoptInfo,class std::<struct v8::CpuProfileDeoptInfo>>::<struct v8::CpuProfileDeoptInfo,class std::<struct v8::CpuProfileDeoptInfo>>(class std::<struct v8::CpuProfileDeoptInfo>,class std::<struct v8::CpuProfileDeoptInfo> const &__ptr64 )__ptr64 
??0?$vector@UCpuProfileDeoptInfo@v8@@V?$allocator@UCpuProfileDeoptInfo@v8@@@std@@@std@@QEAA@V?$initializer_list@UCpuProfileDeoptInfo@v8@@@1@AEBV?$allocator@UCpuProfileDeoptInfo@v8@@@1@@Z
; public: __cdecl std::<struct v8::CpuProfileDeoptInfo,class std::<struct v8::CpuProfileDeoptInfo>>::<struct v8::CpuProfileDeoptInfo,class std::<struct v8::CpuProfileDeoptInfo>>(void)__ptr64 
??0?$vector@UCpuProfileDeoptInfo@v8@@V?$allocator@UCpuProfileDeoptInfo@v8@@@std@@@std@@QEAA@XZ
; public: __cdecl std::<struct v8::CpuProfileDeoptInfo,class std::<struct v8::CpuProfileDeoptInfo>>::<struct v8::CpuProfileDeoptInfo,class std::<struct v8::CpuProfileDeoptInfo>>(unsigned __int64,struct v8::CpuProfileDeoptInfo const &__ptr64 ,class std::<struct v8::CpuProfileDeoptInfo> const &__ptr64 )__ptr64 
??0?$vector@UCpuProfileDeoptInfo@v8@@V?$allocator@UCpuProfileDeoptInfo@v8@@@std@@@std@@QEAA@_KAEBUCpuProfileDeoptInfo@v8@@AEBV?$allocator@UCpuProfileDeoptInfo@v8@@@1@@Z
; public: __cdecl std::<struct v8::CpuProfileDeoptInfo,class std::<struct v8::CpuProfileDeoptInfo>>::<struct v8::CpuProfileDeoptInfo,class std::<struct v8::CpuProfileDeoptInfo>>(unsigned __int64,class std::<struct v8::CpuProfileDeoptInfo> const &__ptr64 )__ptr64 
??0?$vector@UCpuProfileDeoptInfo@v8@@V?$allocator@UCpuProfileDeoptInfo@v8@@@std@@@std@@QEAA@_KAEBV?$allocator@UCpuProfileDeoptInfo@v8@@@1@@Z
; public: __cdecl v8::internal::interpreter::AbstractBytecodeArray::AbstractBytecodeArray(class v8::internal::interpreter::AbstractBytecodeArray const &__ptr64 )__ptr64 
??0AbstractBytecodeArray@interpreter@internal@v8@@QEAA@AEBV0123@@Z
; public: __cdecl v8::internal::interpreter::AbstractBytecodeArray::AbstractBytecodeArray(void)__ptr64 
??0AbstractBytecodeArray@interpreter@internal@v8@@QEAA@XZ
; public: __cdecl v8::internal::AccountingAllocator::AccountingAllocator(void)__ptr64 
??0AccountingAllocator@internal@v8@@QEAA@XZ
; public: __cdecl v8::ActivityControl::ActivityControl(class v8::ActivityControl const &__ptr64 )__ptr64 
??0ActivityControl@v8@@QEAA@AEBV01@@Z
; public: __cdecl v8::ActivityControl::ActivityControl(void)__ptr64 
??0ActivityControl@v8@@QEAA@XZ
; public: __cdecl v8::internal::compiler::AddTypeAssertionsReducer::AddTypeAssertionsReducer(class v8::internal::compiler::AdvancedReducer::Editor *__ptr64,class v8::internal::compiler::JSGraph *__ptr64,class v8::internal::Zone *__ptr64)__ptr64 
??0AddTypeAssertionsReducer@compiler@internal@v8@@QEAA@PEAVEditor@AdvancedReducer@123@PEAVJSGraph@123@PEAVZone@23@@Z
; public: __cdecl v8::internal::AddressToTraceMap::AddressToTraceMap(,class v8::internal::AddressToTraceMap *__ptr64 const)__ptr64 
??0AddressToTraceMap@internal@v8@@QEAA@$$QEAV012@@Z
; public: __cdecl v8::internal::AddressToTraceMap::AddressToTraceMap(class v8::internal::AddressToTraceMap const &__ptr64 )__ptr64 
??0AddressToTraceMap@internal@v8@@QEAA@AEBV012@@Z
; public: __cdecl v8::internal::AddressToTraceMap::AddressToTraceMap(void)__ptr64 
??0AddressToTraceMap@internal@v8@@QEAA@XZ
; public: __cdecl v8::AllocationProfile::AllocationProfile(class v8::AllocationProfile const &__ptr64 )__ptr64 
??0AllocationProfile@v8@@QEAA@AEBV01@@Z
; public: __cdecl v8::AllocationProfile::AllocationProfile(void)__ptr64 
??0AllocationProfile@v8@@QEAA@XZ
; public: __cdecl v8::ArrayBuffer::Allocator::Allocator(class v8::ArrayBuffer::Allocator const &__ptr64 )__ptr64 
??0Allocator@ArrayBuffer@v8@@QEAA@AEBV012@@Z
; public: __cdecl v8::ArrayBuffer::Allocator::Allocator(void)__ptr64 
??0Allocator@ArrayBuffer@v8@@QEAA@XZ
; public: __cdecl v8::Isolate::AllowJavascriptExecutionScope::AllowJavascriptExecutionScope(class v8::Isolate *__ptr64)__ptr64 
??0AllowJavascriptExecutionScope@Isolate@v8@@QEAA@PEAV12@@Z
; public: __cdecl node::ArrayBufferAllocator::ArrayBufferAllocator(,class node::ArrayBufferAllocator *__ptr64 const)__ptr64 
??0ArrayBufferAllocator@node@@QEAA@$$QEAV01@@Z
; public: __cdecl node::ArrayBufferAllocator::ArrayBufferAllocator(class node::ArrayBufferAllocator const &__ptr64 )__ptr64 
??0ArrayBufferAllocator@node@@QEAA@AEBV01@@Z
; public: __cdecl node::ArrayBufferAllocator::ArrayBufferAllocator(void)__ptr64 
??0ArrayBufferAllocator@node@@QEAA@XZ
; protected: __cdecl v8::internal::wasm::AsmCallableType::AsmCallableType(void)__ptr64 
??0AsmCallableType@wasm@internal@v8@@IEAA@XZ
; protected: __cdecl v8::internal::wasm::AsmFunctionType::AsmFunctionType(class v8::internal::Zone *__ptr64,class v8::internal::wasm::AsmType *__ptr64)__ptr64 
??0AsmFunctionType@wasm@internal@v8@@IEAA@PEAVZone@23@PEAVAsmType@123@@Z
; public: __cdecl v8::internal::AsmJsScanner::AsmJsScanner(,class v8::internal::AsmJsScanner *__ptr64 const)__ptr64 
??0AsmJsScanner@internal@v8@@QEAA@$$QEAV012@@Z
; public: __cdecl v8::internal::AsmJsScanner::AsmJsScanner(class v8::internal::AsmJsScanner const &__ptr64 )__ptr64 
??0AsmJsScanner@internal@v8@@QEAA@AEBV012@@Z
; public: __cdecl v8::internal::AsmJsScanner::AsmJsScanner(class v8::internal::Utf16CharacterStream *__ptr64)__ptr64 
??0AsmJsScanner@internal@v8@@QEAA@PEAVUtf16CharacterStream@12@@Z
; private: __cdecl v8::internal::wasm::AsmOverloadedFunctionType::AsmOverloadedFunctionType(class v8::internal::Zone *__ptr64)__ptr64 
??0AsmOverloadedFunctionType@wasm@internal@v8@@AEAA@PEAVZone@23@@Z
; public: __cdecl v8::internal::Assembler::Assembler(struct v8::internal::AssemblerOptions const &__ptr64 ,class std::<class v8::internal::AssemblerBuffer,struct std::<class v8::internal::AssemblerBuffer>>)__ptr64 
??0Assembler@internal@v8@@QEAA@AEBUAssemblerOptions@12@V?$unique_ptr@VAssemblerBuffer@internal@v8@@U?$default_delete@VAssemblerBuffer@internal@v8@@@std@@@std@@@Z
; public: __cdecl v8::internal::AssemblerBase::AssemblerBase(struct v8::internal::AssemblerOptions const &__ptr64 ,class std::<class v8::internal::AssemblerBuffer,struct std::<class v8::internal::AssemblerBuffer>>)__ptr64 
??0AssemblerBase@internal@v8@@QEAA@AEBUAssemblerOptions@12@V?$unique_ptr@VAssemblerBuffer@internal@v8@@U?$default_delete@VAssemblerBuffer@internal@v8@@@std@@@std@@@Z
; public: __cdecl v8::internal::AssemblerOptions::AssemblerOptions(void)__ptr64 
??0AssemblerOptions@internal@v8@@QEAA@XZ
; public: __cdecl node::AsyncResource::AsyncResource(class v8::Isolate *__ptr64,class v8::<class v8::Object>,char const *__ptr64,double)__ptr64 
??0AsyncResource@node@@QEAA@PEAVIsolate@v8@@V?$Local@VObject@v8@@@3@PEBDN@Z
; public: __cdecl v8::internal::BackgroundCompileTask::BackgroundCompileTask(struct v8::internal::ScriptStreamingData *__ptr64,class v8::internal::Isolate *__ptr64)__ptr64 
??0BackgroundCompileTask@internal@v8@@QEAA@PEAUScriptStreamingData@12@PEAVIsolate@12@@Z
; public: __cdecl v8::internal::BackgroundCompileTask::BackgroundCompileTask(class v8::internal::AccountingAllocator *__ptr64,class v8::internal::ParseInfo const *__ptr64,class v8::internal::AstRawString const *__ptr64,class v8::internal::FunctionLiteral const *__ptr64,class v8::internal::WorkerThreadRuntimeCallStats *__ptr64,class v8::internal::TimedHistogram *__ptr64,int)__ptr64 
??0BackgroundCompileTask@internal@v8@@QEAA@PEAVAccountingAllocator@12@PEBVParseInfo@12@PEBVAstRawString@12@PEBVFunctionLiteral@12@PEAVWorkerThreadRuntimeCallStats@12@PEAVTimedHistogram@12@H@Z
; public: __cdecl v8::internal::GCTracer::BackgroundScope::BackgroundScope(class v8::internal::GCTracer *__ptr64,enum v8::internal::GCTracer::BackgroundScope::ScopeId,class v8::internal::RuntimeCallStats *__ptr64)__ptr64 
??0BackgroundScope@GCTracer@internal@v8@@QEAA@PEAV123@W4ScopeId@0123@PEAVRuntimeCallStats@23@@Z
; public: __cdecl v8::Context::BackupIncumbentScope::BackupIncumbentScope(class v8::<class v8::Context>)__ptr64 
??0BackupIncumbentScope@Context@v8@@QEAA@V?$Local@VContext@v8@@@2@@Z
; public: __cdecl v8::internal::compiler::BasicBlock::BasicBlock(class v8::internal::Zone *__ptr64,class v8::internal::compiler::BasicBlock::Id)__ptr64 
??0BasicBlock@compiler@internal@v8@@QEAA@PEAVZone@23@VId@0123@@Z
; protected: __cdecl v8::internal::BigIntToI32PairDescriptor::BigIntToI32PairDescriptor(enum v8::internal::CallDescriptors::Key)__ptr64 
??0BigIntToI32PairDescriptor@internal@v8@@IEAA@W4Key@CallDescriptors@12@@Z
; public: __cdecl v8::internal::BigIntToI32PairDescriptor::BigIntToI32PairDescriptor(,class v8::internal::BigIntToI32PairDescriptor *__ptr64 const)__ptr64 
??0BigIntToI32PairDescriptor@internal@v8@@QEAA@$$QEAV012@@Z
; public: __cdecl v8::internal::BigIntToI32PairDescriptor::BigIntToI32PairDescriptor(class v8::internal::BigIntToI32PairDescriptor const &__ptr64 )__ptr64 
??0BigIntToI32PairDescriptor@internal@v8@@QEAA@AEBV012@@Z
; public: __cdecl v8::internal::BigIntToI32PairDescriptor::BigIntToI32PairDescriptor(void)__ptr64 
??0BigIntToI32PairDescriptor@internal@v8@@QEAA@XZ
; protected: __cdecl v8::internal::BigIntToI64Descriptor::BigIntToI64Descriptor(enum v8::internal::CallDescriptors::Key)__ptr64 
??0BigIntToI64Descriptor@internal@v8@@IEAA@W4Key@CallDescriptors@12@@Z
; public: __cdecl v8::internal::BigIntToI64Descriptor::BigIntToI64Descriptor(,class v8::internal::BigIntToI64Descriptor *__ptr64 const)__ptr64 
??0BigIntToI64Descriptor@internal@v8@@QEAA@$$QEAV012@@Z
; public: __cdecl v8::internal::BigIntToI64Descriptor::BigIntToI64Descriptor(class v8::internal::BigIntToI64Descriptor const &__ptr64 )__ptr64 
??0BigIntToI64Descriptor@internal@v8@@QEAA@AEBV012@@Z
; public: __cdecl v8::internal::BigIntToI64Descriptor::BigIntToI64Descriptor(void)__ptr64 
??0BigIntToI64Descriptor@internal@v8@@QEAA@XZ
; public: __cdecl v8::internal::Bignum::Bignum(void)__ptr64 
??0Bignum@internal@v8@@QEAA@XZ
; public: __cdecl v8::internal::BitVector::BitVector(class v8::internal::BitVector const &__ptr64 ,class v8::internal::Zone *__ptr64)__ptr64 
??0BitVector@internal@v8@@QEAA@AEBV012@PEAVZone@12@@Z
; public: __cdecl v8::internal::BitVector::BitVector(int,class v8::internal::Zone *__ptr64)__ptr64 
??0BitVector@internal@v8@@QEAA@HPEAVZone@12@@Z
; public: __cdecl v8::internal::BitVector::BitVector(void)__ptr64 
??0BitVector@internal@v8@@QEAA@XZ
; public: __cdecl v8::internal::interpreter::BlockBuilder::BlockBuilder(class v8::internal::interpreter::BytecodeArrayBuilder *__ptr64,class v8::internal::interpreter::BlockCoverageBuilder *__ptr64,class v8::internal::BreakableStatement *__ptr64)__ptr64 
??0BlockBuilder@interpreter@internal@v8@@QEAA@PEAVBytecodeArrayBuilder@123@PEAVBlockCoverageBuilder@123@PEAVBreakableStatement@23@@Z
; private: __cdecl v8::debug::Coverage::BlockData::BlockData(struct v8::internal::CoverageBlock *__ptr64,class std::<class v8::internal::Coverage>)__ptr64 
??0BlockData@Coverage@debug@v8@@AEAA@PEAUCoverageBlock@internal@3@V?$shared_ptr@VCoverage@internal@v8@@@std@@@Z
; public: __cdecl v8::debug::Coverage::BlockData::BlockData(,class v8::debug::Coverage::BlockData *__ptr64 const)__ptr64 
??0BlockData@Coverage@debug@v8@@QEAA@$$QEAV0123@@Z
; public: __cdecl v8::internal::Scanner::BookmarkScope::BookmarkScope(class v8::internal::Scanner *__ptr64)__ptr64 
??0BookmarkScope@Scanner@internal@v8@@QEAA@PEAV123@@Z
; public: __cdecl v8::base::BoundedPageAllocator::BoundedPageAllocator(class v8::PageAllocator *__ptr64,unsigned __int64,unsigned __int64,unsigned __int64)__ptr64 
??0BoundedPageAllocator@base@v8@@QEAA@PEAVPageAllocator@2@_K11@Z
; public: __cdecl v8::internal::compiler::BranchElimination::BranchElimination(class v8::internal::compiler::BranchElimination const &__ptr64 )__ptr64 
??0BranchElimination@compiler@internal@v8@@QEAA@AEBV0123@@Z
; public: __cdecl v8::internal::compiler::BranchElimination::BranchElimination(class v8::internal::compiler::AdvancedReducer::Editor *__ptr64,class v8::internal::compiler::JSGraph *__ptr64,class v8::internal::Zone *__ptr64,enum v8::internal::compiler::BranchElimination::Phase)__ptr64 
??0BranchElimination@compiler@internal@v8@@QEAA@PEAVEditor@AdvancedReducer@123@PEAVJSGraph@123@PEAVZone@23@W4Phase@0123@@Z
; public: __cdecl v8::internal::compiler::BranchMatcher::BranchMatcher(class v8::internal::compiler::Node *__ptr64)__ptr64 
??0BranchMatcher@compiler@internal@v8@@QEAA@PEAVNode@123@@Z
; public: __cdecl v8::internal::BreakIterator::BreakIterator(class v8::internal::<class v8::internal::DebugInfo>)__ptr64 
??0BreakIterator@internal@v8@@QEAA@V?$Handle@VDebugInfo@internal@v8@@@12@@Z
; public: __cdecl v8::debug::BreakLocation::BreakLocation(int,int,enum v8::debug::BreakLocationType)__ptr64 
??0BreakLocation@debug@v8@@QEAA@HHW4BreakLocationType@12@@Z
; public: __cdecl v8::internal::interpreter::BreakableControlFlowBuilder::BreakableControlFlowBuilder(class v8::internal::interpreter::BytecodeArrayBuilder *__ptr64,class v8::internal::interpreter::BlockCoverageBuilder *__ptr64,class v8::internal::AstNode *__ptr64)__ptr64 
??0BreakableControlFlowBuilder@interpreter@internal@v8@@QEAA@PEAVBytecodeArrayBuilder@123@PEAVBlockCoverageBuilder@123@PEAVAstNode@23@@Z
; public: __cdecl v8::internal::PreparseDataBuilder::ByteData::ByteData(void)__ptr64 
??0ByteData@PreparseDataBuilder@internal@v8@@QEAA@XZ
; public: __cdecl v8::internal::compiler::BytecodeAnalysis::BytecodeAnalysis(class v8::internal::<class v8::internal::BytecodeArray>,class v8::internal::Zone *__ptr64,class v8::internal::BailoutId,bool)__ptr64 
??0BytecodeAnalysis@compiler@internal@v8@@QEAA@V?$Handle@VBytecodeArray@internal@v8@@@23@PEAVZone@23@VBailoutId@23@_N@Z
; public: __cdecl v8::internal::interpreter::BytecodeArrayAccessor::BytecodeArrayAccessor(class v8::internal::<class v8::internal::BytecodeArray>,int)__ptr64 
??0BytecodeArrayAccessor@interpreter@internal@v8@@QEAA@V?$Handle@VBytecodeArray@internal@v8@@@23@H@Z
; public: __cdecl v8::internal::interpreter::BytecodeArrayAccessor::BytecodeArrayAccessor(class std::<class v8::internal::interpreter::AbstractBytecodeArray,struct std::<class v8::internal::interpreter::AbstractBytecodeArray>>,int)__ptr64 
??0BytecodeArrayAccessor@interpreter@internal@v8@@QEAA@V?$unique_ptr@VAbstractBytecodeArray@interpreter@internal@v8@@U?$default_delete@VAbstractBytecodeArray@interpreter@internal@v8@@@std@@@std@@H@Z
; public: __cdecl v8::internal::interpreter::BytecodeArrayBuilder::BytecodeArrayBuilder(class v8::internal::Zone *__ptr64,int,int,class v8::internal::FeedbackVectorSpec *__ptr64,enum v8::internal::SourcePositionTableBuilder::RecordingMode)__ptr64 
??0BytecodeArrayBuilder@interpreter@internal@v8@@QEAA@PEAVZone@23@HHPEAVFeedbackVectorSpec@23@W4RecordingMode@SourcePositionTableBuilder@23@@Z
; public: __cdecl v8::internal::interpreter::BytecodeArrayIterator::BytecodeArrayIterator(class v8::internal::<class v8::internal::BytecodeArray>)__ptr64 
??0BytecodeArrayIterator@interpreter@internal@v8@@QEAA@V?$Handle@VBytecodeArray@internal@v8@@@23@@Z
; public: __cdecl v8::internal::interpreter::BytecodeArrayIterator::BytecodeArrayIterator(class std::<class v8::internal::interpreter::AbstractBytecodeArray,struct std::<class v8::internal::interpreter::AbstractBytecodeArray>>)__ptr64 
??0BytecodeArrayIterator@interpreter@internal@v8@@QEAA@V?$unique_ptr@VAbstractBytecodeArray@interpreter@internal@v8@@U?$default_delete@VAbstractBytecodeArray@interpreter@internal@v8@@@std@@@std@@@Z
; public: __cdecl v8::internal::interpreter::BytecodeArrayRandomIterator::BytecodeArrayRandomIterator(class v8::internal::<class v8::internal::BytecodeArray>,class v8::internal::Zone *__ptr64)__ptr64 
??0BytecodeArrayRandomIterator@interpreter@internal@v8@@QEAA@V?$Handle@VBytecodeArray@internal@v8@@@23@PEAVZone@23@@Z
; public: __cdecl v8::internal::interpreter::BytecodeArrayRandomIterator::BytecodeArrayRandomIterator(class std::<class v8::internal::interpreter::AbstractBytecodeArray,struct std::<class v8::internal::interpreter::AbstractBytecodeArray>>,class v8::internal::Zone *__ptr64)__ptr64 
??0BytecodeArrayRandomIterator@interpreter@internal@v8@@QEAA@V?$unique_ptr@VAbstractBytecodeArray@interpreter@internal@v8@@U?$default_delete@VAbstractBytecodeArray@interpreter@internal@v8@@@std@@@std@@PEAVZone@23@@Z
; public: __cdecl v8::internal::interpreter::BytecodeArrayWriter::BytecodeArrayWriter(class v8::internal::Zone *__ptr64,class v8::internal::interpreter::ConstantArrayBuilder *__ptr64,enum v8::internal::SourcePositionTableBuilder::RecordingMode)__ptr64 
??0BytecodeArrayWriter@interpreter@internal@v8@@QEAA@PEAVZone@23@PEAVConstantArrayBuilder@123@W4RecordingMode@SourcePositionTableBuilder@23@@Z
; public: __cdecl v8::internal::wasm::BytecodeIterator::BytecodeIterator(,class v8::internal::wasm::BytecodeIterator *__ptr64 const)__ptr64 
??0BytecodeIterator@wasm@internal@v8@@QEAA@$$QEAV0123@@Z
; public: __cdecl v8::internal::wasm::BytecodeIterator::BytecodeIterator(class v8::internal::wasm::BytecodeIterator const &__ptr64 )__ptr64 
??0BytecodeIterator@wasm@internal@v8@@QEAA@AEBV0123@@Z
; public: __cdecl v8::internal::wasm::BytecodeIterator::BytecodeIterator(unsigned char const *__ptr64,unsigned char const *__ptr64,struct v8::internal::wasm::BodyLocalDecls *__ptr64)__ptr64 
??0BytecodeIterator@wasm@internal@v8@@QEAA@PEBE0PEAUBodyLocalDecls@123@@Z
; public: __cdecl v8::internal::interpreter::BytecodeJumpTable::BytecodeJumpTable(unsigned __int64,int,int,class v8::internal::Zone *__ptr64)__ptr64 
??0BytecodeJumpTable@interpreter@internal@v8@@QEAA@_KHHPEAVZone@23@@Z
; public: __cdecl v8::internal::interpreter::BytecodeLabel::BytecodeLabel(void)__ptr64 
??0BytecodeLabel@interpreter@internal@v8@@QEAA@XZ
; public: __cdecl v8::internal::interpreter::BytecodeLabels::BytecodeLabels(class v8::internal::Zone *__ptr64)__ptr64 
??0BytecodeLabels@interpreter@internal@v8@@QEAA@PEAVZone@23@@Z
; public: __cdecl v8::internal::compiler::BytecodeLivenessMap::BytecodeLivenessMap(int,class v8::internal::Zone *__ptr64)__ptr64 
??0BytecodeLivenessMap@compiler@internal@v8@@QEAA@HPEAVZone@23@@Z
; public: __cdecl v8::internal::compiler::BytecodeLoopAssignments::BytecodeLoopAssignments(int,int,class v8::internal::Zone *__ptr64)__ptr64 
??0BytecodeLoopAssignments@compiler@internal@v8@@QEAA@HHPEAVZone@23@@Z
; public: __cdecl v8::internal::interpreter::BytecodeLoopHeader::BytecodeLoopHeader(void)__ptr64 
??0BytecodeLoopHeader@interpreter@internal@v8@@QEAA@XZ
; private: __cdecl v8::internal::interpreter::BytecodeNode::BytecodeNode(enum v8::internal::interpreter::Bytecode,int,enum v8::internal::interpreter::OperandScale,class v8::internal::interpreter::BytecodeSourceInfo,unsigned int,unsigned int,unsigned int,unsigned int,unsigned int)__ptr64 
??0BytecodeNode@interpreter@internal@v8@@AEAA@W4Bytecode@123@HW4OperandScale@123@VBytecodeSourceInfo@123@IIIII@Z
; public: __cdecl v8::internal::interpreter::BytecodeNode::BytecodeNode(enum v8::internal::interpreter::Bytecode,unsigned int,unsigned int,unsigned int,unsigned int,unsigned int,class v8::internal::interpreter::BytecodeSourceInfo)__ptr64 
??0BytecodeNode@interpreter@internal@v8@@QEAA@W4Bytecode@123@IIIIIVBytecodeSourceInfo@123@@Z
; public: __cdecl v8::internal::interpreter::BytecodeNode::BytecodeNode(enum v8::internal::interpreter::Bytecode,unsigned int,unsigned int,unsigned int,unsigned int,class v8::internal::interpreter::BytecodeSourceInfo)__ptr64 
??0BytecodeNode@interpreter@internal@v8@@QEAA@W4Bytecode@123@IIIIVBytecodeSourceInfo@123@@Z
; public: __cdecl v8::internal::interpreter::BytecodeNode::BytecodeNode(enum v8::internal::interpreter::Bytecode,unsigned int,unsigned int,unsigned int,class v8::internal::interpreter::BytecodeSourceInfo)__ptr64 
??0BytecodeNode@interpreter@internal@v8@@QEAA@W4Bytecode@123@IIIVBytecodeSourceInfo@123@@Z
; public: __cdecl v8::internal::interpreter::BytecodeNode::BytecodeNode(enum v8::internal::interpreter::Bytecode,unsigned int,unsigned int,class v8::internal::interpreter::BytecodeSourceInfo)__ptr64 
??0BytecodeNode@interpreter@internal@v8@@QEAA@W4Bytecode@123@IIVBytecodeSourceInfo@123@@Z
; public: __cdecl v8::internal::interpreter::BytecodeNode::BytecodeNode(enum v8::internal::interpreter::Bytecode,unsigned int,class v8::internal::interpreter::BytecodeSourceInfo)__ptr64 
??0BytecodeNode@interpreter@internal@v8@@QEAA@W4Bytecode@123@IVBytecodeSourceInfo@123@@Z
; public: __cdecl v8::internal::interpreter::BytecodeNode::BytecodeNode(enum v8::internal::interpreter::Bytecode,class v8::internal::interpreter::BytecodeSourceInfo)__ptr64 
??0BytecodeNode@interpreter@internal@v8@@QEAA@W4Bytecode@123@VBytecodeSourceInfo@123@@Z
; public: __cdecl v8::internal::interpreter::BytecodeRegisterOptimizer::BytecodeRegisterOptimizer(class v8::internal::Zone *__ptr64,class v8::internal::interpreter::BytecodeRegisterAllocator *__ptr64,int,int,class v8::internal::interpreter::BytecodeRegisterOptimizer::BytecodeWriter *__ptr64)__ptr64 
??0BytecodeRegisterOptimizer@interpreter@internal@v8@@QEAA@PEAVZone@23@PEAVBytecodeRegisterAllocator@123@HHPEAVBytecodeWriter@0123@@Z
; public: __cdecl v8::base::CPU::CPU(void)__ptr64 
??0CPU@base@v8@@QEAA@XZ
; public: __cdecl v8::ScriptCompiler::CachedData::CachedData(unsigned char const *__ptr64,int,enum v8::ScriptCompiler::CachedData::BufferPolicy)__ptr64 
??0CachedData@ScriptCompiler@v8@@QEAA@PEBEHW4BufferPolicy@012@@Z
; public: __cdecl v8::ScriptCompiler::CachedData::CachedData(void)__ptr64 
??0CachedData@ScriptCompiler@v8@@QEAA@XZ
; public: __cdecl v8::internal::compiler::CallDescriptor::CallDescriptor(enum v8::internal::compiler::CallDescriptor::Kind,class v8::internal::MachineType,class v8::internal::compiler::LinkageLocation,class v8::internal::<class v8::internal::compiler::LinkageLocation> *__ptr64,unsigned __int64,class v8::base::<enum v8::internal::compiler::Operator::Property,unsigned char>,unsigned int,unsigned int,class v8::base::<enum v8::internal::compiler::CallDescriptor::Flag,int>,char const *__ptr64,unsigned int,unsigned __int64)__ptr64 
??0CallDescriptor@compiler@internal@v8@@QEAA@W4Kind@0123@VMachineType@23@VLinkageLocation@123@PEAV?$Signature@VLinkageLocation@compiler@internal@v8@@@23@_KV?$Flags@W4Property@Operator@compiler@internal@v8@@E@base@3@IIV?$Flags@W4Flag@CallDescriptor@compiler@internal@v8@@H@93@PEBDI4@Z
; public: __cdecl v8::internal::CallInterfaceDescriptor::CallInterfaceDescriptor(class v8::internal::CallInterfaceDescriptor const &__ptr64 )__ptr64 
??0CallInterfaceDescriptor@internal@v8@@QEAA@AEBV012@@Z
; public: __cdecl v8::internal::CallInterfaceDescriptor::CallInterfaceDescriptor(enum v8::internal::CallDescriptors::Key)__ptr64 
??0CallInterfaceDescriptor@internal@v8@@QEAA@W4Key@CallDescriptors@12@@Z
; public: __cdecl v8::internal::CallInterfaceDescriptor::CallInterfaceDescriptor(void)__ptr64 
??0CallInterfaceDescriptor@internal@v8@@QEAA@XZ
; public: __cdecl v8::internal::CallInterfaceDescriptorData::CallInterfaceDescriptorData(void)__ptr64 
??0CallInterfaceDescriptorData@internal@v8@@QEAA@XZ
; public: __cdecl node::AsyncResource::CallbackScope::CallbackScope(class node::AsyncResource *__ptr64)__ptr64 
??0CallbackScope@AsyncResource@node@@QEAA@PEAV12@@Z
; public: __cdecl node::CallbackScope::CallbackScope(class v8::Isolate *__ptr64,class v8::<class v8::Object>,struct node::async_context)__ptr64 
??0CallbackScope@node@@QEAA@PEAVIsolate@v8@@V?$Local@VObject@v8@@@3@Uasync_context@1@@Z
; public: __cdecl v8::internal::Cancelable::Cancelable(class v8::internal::CancelableTaskManager *__ptr64)__ptr64 
??0Cancelable@internal@v8@@QEAA@PEAVCancelableTaskManager@12@@Z
; public: __cdecl v8::internal::CancelableTask::CancelableTask(class v8::internal::CancelableTaskManager *__ptr64)__ptr64 
??0CancelableTask@internal@v8@@QEAA@PEAVCancelableTaskManager@12@@Z
; public: __cdecl v8::internal::CancelableTask::CancelableTask(class v8::internal::Isolate *__ptr64)__ptr64 
??0CancelableTask@internal@v8@@QEAA@PEAVIsolate@12@@Z
; public: __cdecl v8::internal::CancelableTaskManager::CancelableTaskManager(void)__ptr64 
??0CancelableTaskManager@internal@v8@@QEAA@XZ
; public: __cdecl v8::internal::CanonicalHandleScope::CanonicalHandleScope(class v8::internal::Isolate *__ptr64)__ptr64 
??0CanonicalHandleScope@internal@v8@@QEAA@PEAVIsolate@12@@Z
; public: __cdecl v8_inspector::V8Inspector::Channel::Channel(class v8_inspector::V8Inspector::Channel const &__ptr64 )__ptr64 
??0Channel@V8Inspector@v8_inspector@@QEAA@AEBV012@@Z
; public: __cdecl v8_inspector::V8Inspector::Channel::Channel(void)__ptr64 
??0Channel@V8Inspector@v8_inspector@@QEAA@XZ
; public: __cdecl v8::internal::compiler::CheckpointElimination::CheckpointElimination(class v8::internal::compiler::CheckpointElimination const &__ptr64 )__ptr64 
??0CheckpointElimination@compiler@internal@v8@@QEAA@AEBV0123@@Z
; public: __cdecl v8::internal::compiler::CheckpointElimination::CheckpointElimination(class v8::internal::compiler::AdvancedReducer::Editor *__ptr64)__ptr64 
??0CheckpointElimination@compiler@internal@v8@@QEAA@PEAVEditor@AdvancedReducer@123@@Z
; public: __cdecl v8::internal::ClassScope::ClassScope(class v8::internal::Zone *__ptr64,class v8::internal::AstValueFactory *__ptr64,class v8::internal::<class v8::internal::ScopeInfo>)__ptr64 
??0ClassScope@internal@v8@@QEAA@PEAVZone@12@PEAVAstValueFactory@12@V?$Handle@VScopeInfo@internal@v8@@@12@@Z
; public: __cdecl v8::internal::ClassScope::ClassScope(class v8::internal::Zone *__ptr64,class v8::internal::Scope *__ptr64)__ptr64 
??0ClassScope@internal@v8@@QEAA@PEAVZone@12@PEAVScope@12@@Z
; public: __cdecl v8::internal::compiler::CodeAssembler::CodeAssembler(class v8::internal::compiler::CodeAssemblerState *__ptr64)__ptr64 
??0CodeAssembler@compiler@internal@v8@@QEAA@PEAVCodeAssemblerState@123@@Z
; public: __cdecl v8::internal::compiler::CodeAssemblerLabel::CodeAssemblerLabel(class v8::internal::compiler::CodeAssembler *__ptr64,class v8::internal::<class v8::internal::compiler::CodeAssemblerVariable *__ptr64> const &__ptr64 ,enum v8::internal::compiler::CodeAssemblerLabel::Type)__ptr64 
??0CodeAssemblerLabel@compiler@internal@v8@@QEAA@PEAVCodeAssembler@123@AEBV?$ZoneVector@PEAVCodeAssemblerVariable@compiler@internal@v8@@@23@W4Type@0123@@Z
; public: __cdecl v8::internal::compiler::CodeAssemblerLabel::CodeAssemblerLabel(class v8::internal::compiler::CodeAssembler *__ptr64,class v8::internal::compiler::CodeAssemblerVariable *__ptr64,enum v8::internal::compiler::CodeAssemblerLabel::Type)__ptr64 
??0CodeAssemblerLabel@compiler@internal@v8@@QEAA@PEAVCodeAssembler@123@PEAVCodeAssemblerVariable@123@W4Type@0123@@Z
; public: __cdecl v8::internal::compiler::CodeAssemblerLabel::CodeAssemblerLabel(class v8::internal::compiler::CodeAssembler *__ptr64,class std::<class v8::internal::compiler::CodeAssemblerVariable *__ptr64>,enum v8::internal::compiler::CodeAssemblerLabel::Type)__ptr64 
??0CodeAssemblerLabel@compiler@internal@v8@@QEAA@PEAVCodeAssembler@123@V?$initializer_list@PEAVCodeAssemblerVariable@compiler@internal@v8@@@std@@W4Type@0123@@Z
; public: __cdecl v8::internal::compiler::CodeAssemblerLabel::CodeAssemblerLabel(class v8::internal::compiler::CodeAssembler *__ptr64,enum v8::internal::compiler::CodeAssemblerLabel::Type)__ptr64 
??0CodeAssemblerLabel@compiler@internal@v8@@QEAA@PEAVCodeAssembler@123@W4Type@0123@@Z
; public: __cdecl v8::internal::compiler::CodeAssemblerLabel::CodeAssemblerLabel(class v8::internal::compiler::CodeAssembler *__ptr64,unsigned __int64,class v8::internal::compiler::CodeAssemblerVariable *__ptr64 const *__ptr64,enum v8::internal::compiler::CodeAssemblerLabel::Type)__ptr64 
??0CodeAssemblerLabel@compiler@internal@v8@@QEAA@PEAVCodeAssembler@123@_KPEBQEAVCodeAssemblerVariable@123@W4Type@0123@@Z
; public: __cdecl v8::internal::compiler::CodeAssemblerScopedExceptionHandler::CodeAssemblerScopedExceptionHandler(class v8::internal::compiler::CodeAssembler *__ptr64,class v8::internal::compiler::<class v8::internal::Object> *__ptr64)__ptr64 
??0CodeAssemblerScopedExceptionHandler@compiler@internal@v8@@QEAA@PEAVCodeAssembler@123@PEAV?$CodeAssemblerParameterizedLabel@VObject@internal@v8@@@123@@Z
; public: __cdecl v8::internal::compiler::CodeAssemblerScopedExceptionHandler::CodeAssemblerScopedExceptionHandler(class v8::internal::compiler::CodeAssembler *__ptr64,class v8::internal::compiler::CodeAssemblerLabel *__ptr64,class v8::internal::compiler::<class v8::internal::Object> *__ptr64)__ptr64 
??0CodeAssemblerScopedExceptionHandler@compiler@internal@v8@@QEAA@PEAVCodeAssembler@123@PEAVCodeAssemblerLabel@123@PEAV?$TypedCodeAssemblerVariable@VObject@internal@v8@@@123@@Z
; private: __cdecl v8::internal::compiler::CodeAssemblerState::CodeAssemblerState(class v8::internal::Isolate *__ptr64,class v8::internal::Zone *__ptr64,class v8::internal::compiler::CallDescriptor *__ptr64,enum v8::internal::Code::Kind,char const *__ptr64,enum v8::internal::PoisoningMitigationLevel,int)__ptr64 
??0CodeAssemblerState@compiler@internal@v8@@AEAA@PEAVIsolate@23@PEAVZone@23@PEAVCallDescriptor@123@W4Kind@Code@23@PEBDW4PoisoningMitigationLevel@23@H@Z
; public: __cdecl v8::internal::compiler::CodeAssemblerState::CodeAssemblerState(class v8::internal::Isolate *__ptr64,class v8::internal::Zone *__ptr64,class v8::internal::CallInterfaceDescriptor const &__ptr64 ,enum v8::internal::Code::Kind,char const *__ptr64,enum v8::internal::PoisoningMitigationLevel,int)__ptr64 
??0CodeAssemblerState@compiler@internal@v8@@QEAA@PEAVIsolate@23@PEAVZone@23@AEBVCallInterfaceDescriptor@23@W4Kind@Code@23@PEBDW4PoisoningMitigationLevel@23@H@Z
; public: __cdecl v8::internal::compiler::CodeAssemblerState::CodeAssemblerState(class v8::internal::Isolate *__ptr64,class v8::internal::Zone *__ptr64,int,enum v8::internal::Code::Kind,char const *__ptr64,enum v8::internal::PoisoningMitigationLevel,int)__ptr64 
??0CodeAssemblerState@compiler@internal@v8@@QEAA@PEAVIsolate@23@PEAVZone@23@HW4Kind@Code@23@PEBDW4PoisoningMitigationLevel@23@H@Z
; public: __cdecl v8::internal::compiler::CodeAssemblerVariable::CodeAssemblerVariable(class v8::internal::compiler::CodeAssembler *__ptr64,enum v8::internal::MachineRepresentation)__ptr64 
??0CodeAssemblerVariable@compiler@internal@v8@@QEAA@PEAVCodeAssembler@123@W4MachineRepresentation@23@@Z
; public: __cdecl v8::internal::compiler::CodeAssemblerVariable::CodeAssemblerVariable(class v8::internal::compiler::CodeAssembler *__ptr64,enum v8::internal::MachineRepresentation,class v8::internal::compiler::Node *__ptr64)__ptr64 
??0CodeAssemblerVariable@compiler@internal@v8@@QEAA@PEAVCodeAssembler@123@W4MachineRepresentation@23@PEAVNode@123@@Z
; public: __cdecl v8::internal::Factory::CodeBuilder::CodeBuilder(class v8::internal::Isolate *__ptr64,class v8::internal::CodeDesc const &__ptr64 ,enum v8::internal::Code::Kind)__ptr64 
??0CodeBuilder@Factory@internal@v8@@QEAA@PEAVIsolate@23@AEBVCodeDesc@23@W4Kind@Code@23@@Z
; public: __cdecl v8::internal::CodeCommentsIterator::CodeCommentsIterator(unsigned __int64,unsigned int)__ptr64 
??0CodeCommentsIterator@internal@v8@@QEAA@_KI@Z
; public: __cdecl v8::CodeEventHandler::CodeEventHandler(class v8::Isolate *__ptr64)__ptr64 
??0CodeEventHandler@v8@@QEAA@PEAVIsolate@1@@Z
; public: __cdecl v8::internal::CodeEventLogger::CodeEventLogger(class v8::internal::CodeEventLogger const &__ptr64 )__ptr64 
??0CodeEventLogger@internal@v8@@QEAA@AEBV012@@Z
; public: __cdecl v8::internal::CodeEventLogger::CodeEventLogger(class v8::internal::Isolate *__ptr64)__ptr64 
??0CodeEventLogger@internal@v8@@QEAA@PEAVIsolate@12@@Z
; public: __cdecl v8::internal::compiler::CodeGenerator::CodeGenerator(class v8::internal::Zone *__ptr64,class v8::internal::compiler::Frame *__ptr64,class v8::internal::compiler::Linkage *__ptr64,class v8::internal::compiler::InstructionSequence *__ptr64,class v8::internal::OptimizedCompilationInfo *__ptr64,class v8::internal::Isolate *__ptr64,class v8::base::<class v8::internal::compiler::OsrHelper>,int,class v8::internal::JumpOptimizationInfo *__ptr64,enum v8::internal::PoisoningMitigationLevel,struct v8::internal::AssemblerOptions const &__ptr64 ,int,unsigned __int64,class std::<class v8::internal::AssemblerBuffer,struct std::<class v8::internal::AssemblerBuffer>>)__ptr64 
??0CodeGenerator@compiler@internal@v8@@QEAA@PEAVZone@23@PEAVFrame@123@PEAVLinkage@123@PEAVInstructionSequence@123@PEAVOptimizedCompilationInfo@23@PEAVIsolate@23@V?$Optional@VOsrHelper@compiler@internal@v8@@@base@3@HPEAVJumpOptimizationInfo@23@W4PoisoningMitigationLevel@23@AEBUAssemblerOptions@23@H_KV?$unique_ptr@VAssemblerBuffer@internal@v8@@U?$default_delete@VAssemblerBuffer@internal@v8@@@std@@@std@@@Z
; public: __cdecl v8::internal::CodeMap::CodeMap(void)__ptr64 
??0CodeMap@internal@v8@@QEAA@XZ
; public: __cdecl v8::internal::CodeObjectRegistry::CodeObjectRegistry(,class v8::internal::CodeObjectRegistry *__ptr64 const)__ptr64 
??0CodeObjectRegistry@internal@v8@@QEAA@$$QEAV012@@Z
; public: __cdecl v8::internal::CodeObjectRegistry::CodeObjectRegistry(class v8::internal::CodeObjectRegistry const &__ptr64 )__ptr64 
??0CodeObjectRegistry@internal@v8@@QEAA@AEBV012@@Z
; public: __cdecl v8::internal::CodeObjectRegistry::CodeObjectRegistry(void)__ptr64 
??0CodeObjectRegistry@internal@v8@@QEAA@XZ
; public: __cdecl v8::internal::CombinedHeapObjectIterator::CombinedHeapObjectIterator(class v8::internal::Heap *__ptr64,enum v8::internal::HeapObjectIterator::HeapObjectsFiltering)__ptr64 
??0CombinedHeapObjectIterator@internal@v8@@QEAA@PEAVHeap@12@W4HeapObjectsFiltering@HeapObjectIterator@12@@Z
; public: __cdecl v8::internal::compiler::CommonOperatorBuilder::CommonOperatorBuilder(class v8::internal::Zone *__ptr64)__ptr64 
??0CommonOperatorBuilder@compiler@internal@v8@@QEAA@PEAVZone@23@@Z
; public: __cdecl v8::internal::compiler::CommonOperatorReducer::CommonOperatorReducer(class v8::internal::compiler::CommonOperatorReducer const &__ptr64 )__ptr64 
??0CommonOperatorReducer@compiler@internal@v8@@QEAA@AEBV0123@@Z
; public: __cdecl v8::internal::compiler::CommonOperatorReducer::CommonOperatorReducer(class v8::internal::compiler::AdvancedReducer::Editor *__ptr64,class v8::internal::compiler::Graph *__ptr64,class v8::internal::compiler::JSHeapBroker *__ptr64,class v8::internal::compiler::CommonOperatorBuilder *__ptr64,class v8::internal::compiler::MachineOperatorBuilder *__ptr64,class v8::internal::Zone *__ptr64)__ptr64 
??0CommonOperatorReducer@compiler@internal@v8@@QEAA@PEAVEditor@AdvancedReducer@123@PEAVGraph@123@PEAVJSHeapBroker@123@PEAVCommonOperatorBuilder@123@PEAVMachineOperatorBuilder@123@PEAVZone@23@@Z
; public: __cdecl v8::internal::CompactionSpace::CompactionSpace(class v8::internal::Heap *__ptr64,enum v8::internal::AllocationSpace,enum v8::internal::Executability)__ptr64 
??0CompactionSpace@internal@v8@@QEAA@PEAVHeap@12@W4AllocationSpace@12@W4Executability@12@@Z
; private: __cdecl v8::internal::CompilationCache::CompilationCache(class v8::internal::Isolate *__ptr64)__ptr64 
??0CompilationCache@internal@v8@@AEAA@PEAVIsolate@12@@Z
; public: __cdecl v8::internal::compiler::CompilationDependencies::CompilationDependencies(,class v8::internal::compiler::CompilationDependencies *__ptr64 const)__ptr64 
??0CompilationDependencies@compiler@internal@v8@@QEAA@$$QEAV0123@@Z
; public: __cdecl v8::internal::compiler::CompilationDependencies::CompilationDependencies(class v8::internal::compiler::CompilationDependencies const &__ptr64 )__ptr64 
??0CompilationDependencies@compiler@internal@v8@@QEAA@AEBV0123@@Z
; public: __cdecl v8::internal::compiler::CompilationDependencies::CompilationDependencies(class v8::internal::compiler::JSHeapBroker *__ptr64,class v8::internal::Zone *__ptr64)__ptr64 
??0CompilationDependencies@compiler@internal@v8@@QEAA@PEAVJSHeapBroker@123@PEAVZone@23@@Z
; public: __cdecl v8::internal::CompilationJob::CompilationJob(class v8::internal::CompilationJob const &__ptr64 )__ptr64 
??0CompilationJob@internal@v8@@QEAA@AEBV012@@Z
; public: __cdecl v8::internal::CompilationJob::CompilationJob(enum v8::internal::CompilationJob::State)__ptr64 
??0CompilationJob@internal@v8@@QEAA@W4State@012@@Z
; public: __cdecl v8::internal::wasm::CompilationResultResolver::CompilationResultResolver(class v8::internal::wasm::CompilationResultResolver const &__ptr64 )__ptr64 
??0CompilationResultResolver@wasm@internal@v8@@QEAA@AEBV0123@@Z
; public: __cdecl v8::internal::wasm::CompilationResultResolver::CompilationResultResolver(void)__ptr64 
??0CompilationResultResolver@wasm@internal@v8@@QEAA@XZ
; private: __cdecl v8::CompiledWasmModule::CompiledWasmModule(class std::<class v8::internal::wasm::NativeModule>)__ptr64 
??0CompiledWasmModule@v8@@AEAA@V?$shared_ptr@VNativeModule@wasm@internal@v8@@@std@@@Z
; public: __cdecl v8::CompiledWasmModule::CompiledWasmModule(,class v8::CompiledWasmModule *__ptr64 const)__ptr64 
??0CompiledWasmModule@v8@@QEAA@$$QEAV01@@Z
; public: __cdecl v8::CompiledWasmModule::CompiledWasmModule(class v8::CompiledWasmModule const &__ptr64 )__ptr64 
??0CompiledWasmModule@v8@@QEAA@AEBV01@@Z
; public: __cdecl v8::internal::CompilerDispatcher::CompilerDispatcher(class v8::internal::Isolate *__ptr64,class v8::Platform *__ptr64,unsigned __int64)__ptr64 
??0CompilerDispatcher@internal@v8@@QEAA@PEAVIsolate@12@PEAVPlatform@2@_K@Z
; public: __cdecl v8::internal::ConcurrentMarking::ConcurrentMarking(class v8::internal::Heap *__ptr64,class v8::internal::<class v8::internal::HeapObject,0x28ULL> *__ptr64,class v8::internal::<class v8::internal::HeapObject,0x28ULL> *__ptr64,struct v8::internal::WeakObjects *__ptr64,class v8::internal::<class v8::internal::HeapObject,0xaULL> *__ptr64)__ptr64 
??0ConcurrentMarking@internal@v8@@QEAA@PEAVHeap@12@PEAV?$Worklist@VHeapObject@internal@v8@@$0EA@@12@1PEAUWeakObjects@12@PEAV?$Worklist@VHeapObject@internal@v8@@$0BA@@12@@Z
; public: __cdecl v8::base::ConditionVariable::ConditionVariable(void)__ptr64 
??0ConditionVariable@base@v8@@QEAA@XZ
; public: __cdecl v8::internal::interpreter::ConditionalControlFlowBuilder::ConditionalControlFlowBuilder(class v8::internal::interpreter::BytecodeArrayBuilder *__ptr64,class v8::internal::interpreter::BlockCoverageBuilder *__ptr64,class v8::internal::AstNode *__ptr64)__ptr64 
??0ConditionalControlFlowBuilder@interpreter@internal@v8@@QEAA@PEAVBytecodeArrayBuilder@123@PEAVBlockCoverageBuilder@123@PEAVAstNode@23@@Z
; public: __cdecl v8::internal::compiler::Constant::Constant(int)__ptr64 
??0Constant@compiler@internal@v8@@QEAA@H@Z
; public: __cdecl v8::internal::compiler::Constant::Constant(float)__ptr64 
??0Constant@compiler@internal@v8@@QEAA@M@Z
; public: __cdecl v8::internal::compiler::Constant::Constant(double)__ptr64 
??0Constant@compiler@internal@v8@@QEAA@N@Z
; public: __cdecl v8::internal::compiler::Constant::Constant(class v8::internal::StringConstantBase const *__ptr64)__ptr64 
??0Constant@compiler@internal@v8@@QEAA@PEBVStringConstantBase@23@@Z
; public: __cdecl v8::internal::compiler::Constant::Constant(class v8::internal::<class v8::internal::HeapObject>,bool)__ptr64 
??0Constant@compiler@internal@v8@@QEAA@V?$Handle@VHeapObject@internal@v8@@@23@_N@Z
; public: __cdecl v8::internal::compiler::Constant::Constant(class v8::internal::ExternalReference)__ptr64 
??0Constant@compiler@internal@v8@@QEAA@VExternalReference@23@@Z
; public: __cdecl v8::internal::compiler::Constant::Constant(class v8::internal::compiler::RelocatablePtrConstantInfo)__ptr64 
??0Constant@compiler@internal@v8@@QEAA@VRelocatablePtrConstantInfo@123@@Z
; public: __cdecl v8::internal::compiler::Constant::Constant(class v8::internal::compiler::RpoNumber)__ptr64 
??0Constant@compiler@internal@v8@@QEAA@VRpoNumber@123@@Z
; public: __cdecl v8::internal::compiler::Constant::Constant(__int64)__ptr64 
??0Constant@compiler@internal@v8@@QEAA@_J@Z
; public: __cdecl v8::internal::interpreter::ConstantArrayBuilder::ConstantArrayBuilder(class v8::internal::Zone *__ptr64)__ptr64 
??0ConstantArrayBuilder@interpreter@internal@v8@@QEAA@PEAVZone@23@@Z
; public: __cdecl v8::internal::compiler::ConstantFoldingReducer::ConstantFoldingReducer(class v8::internal::compiler::AdvancedReducer::Editor *__ptr64,class v8::internal::compiler::JSGraph *__ptr64,class v8::internal::compiler::JSHeapBroker *__ptr64)__ptr64 
??0ConstantFoldingReducer@compiler@internal@v8@@QEAA@PEAVEditor@AdvancedReducer@123@PEAVJSGraph@123@PEAVJSHeapBroker@123@@Z
; private: __cdecl v8::ArrayBuffer::Contents::Contents(void *__ptr64,unsigned __int64,void *__ptr64,unsigned __int64,enum v8::ArrayBuffer::Allocator::AllocationMode,void(__cdecl *)(void *__ptr64,unsigned __int64,void *__ptr64),void *__ptr64)__ptr64 
??0Contents@ArrayBuffer@v8@@AEAA@PEAX_K01W4AllocationMode@Allocator@12@P6AX010@Z0@Z
; public: __cdecl v8::ArrayBuffer::Contents::Contents(void)__ptr64 
??0Contents@ArrayBuffer@v8@@QEAA@XZ
; private: __cdecl v8::SharedArrayBuffer::Contents::Contents(void *__ptr64,unsigned __int64,void *__ptr64,unsigned __int64,enum v8::ArrayBuffer::Allocator::AllocationMode,void(__cdecl *)(void *__ptr64,unsigned __int64,void *__ptr64),void *__ptr64,bool)__ptr64 
??0Contents@SharedArrayBuffer@v8@@AEAA@PEAX_K01W4AllocationMode@Allocator@ArrayBuffer@2@P6AX010@Z0_N@Z
; public: __cdecl v8::SharedArrayBuffer::Contents::Contents(void)__ptr64 
??0Contents@SharedArrayBuffer@v8@@QEAA@XZ
; public: __cdecl v8::internal::compiler::ControlEquivalence::ControlEquivalence(,class v8::internal::compiler::ControlEquivalence *__ptr64 const)__ptr64 
??0ControlEquivalence@compiler@internal@v8@@QEAA@$$QEAV0123@@Z
; public: __cdecl v8::internal::compiler::ControlEquivalence::ControlEquivalence(class v8::internal::compiler::ControlEquivalence const &__ptr64 )__ptr64 
??0ControlEquivalence@compiler@internal@v8@@QEAA@AEBV0123@@Z
; public: __cdecl v8::internal::compiler::ControlEquivalence::ControlEquivalence(class v8::internal::Zone *__ptr64,class v8::internal::compiler::Graph *__ptr64)__ptr64 
??0ControlEquivalence@compiler@internal@v8@@QEAA@PEAVZone@23@PEAVGraph@123@@Z
; public: __cdecl v8::internal::interpreter::ControlFlowBuilder::ControlFlowBuilder(class v8::internal::interpreter::BytecodeArrayBuilder *__ptr64)__ptr64 
??0ControlFlowBuilder@interpreter@internal@v8@@QEAA@PEAVBytecodeArrayBuilder@123@@Z
; public: __cdecl v8::internal::compiler::ControlFlowOptimizer::ControlFlowOptimizer(class v8::internal::compiler::Graph *__ptr64,class v8::internal::compiler::CommonOperatorBuilder *__ptr64,class v8::internal::compiler::MachineOperatorBuilder *__ptr64,class v8::internal::TickCounter *__ptr64,class v8::internal::Zone *__ptr64)__ptr64 
??0ControlFlowOptimizer@compiler@internal@v8@@QEAA@PEAVGraph@123@PEAVCommonOperatorBuilder@123@PEAVMachineOperatorBuilder@123@PEAVTickCounter@23@PEAVZone@23@@Z
; private: __cdecl v8::debug::Coverage::Coverage(class std::<class v8::internal::Coverage>)__ptr64 
??0Coverage@debug@v8@@AEAA@V?$shared_ptr@VCoverage@internal@v8@@@std@@@Z
; public: __cdecl v8::debug::Coverage::Coverage(,class v8::debug::Coverage *__ptr64 const)__ptr64 
??0Coverage@debug@v8@@QEAA@$$QEAV012@@Z
; public: __cdecl v8::internal::CpuFeatureScope::CpuFeatureScope(class v8::internal::AssemblerBase *__ptr64,enum v8::internal::CpuFeature,enum v8::internal::CpuFeatureScope::CheckPolicy)__ptr64 
??0CpuFeatureScope@internal@v8@@QEAA@PEAVAssemblerBase@12@W4CpuFeature@12@W4CheckPolicy@012@@Z
; public: __cdecl v8::internal::CpuProfile::CpuProfile(class v8::internal::CpuProfiler *__ptr64,char const *__ptr64,class v8::CpuProfilingOptions)__ptr64 
??0CpuProfile@internal@v8@@QEAA@PEAVCpuProfiler@12@PEBDVCpuProfilingOptions@2@@Z
; public: __cdecl v8::CpuProfileDeoptInfo::CpuProfileDeoptInfo(,struct v8::CpuProfileDeoptInfo *__ptr64 const)__ptr64 
??0CpuProfileDeoptInfo@v8@@QEAA@$$QEAU01@@Z
; public: __cdecl v8::CpuProfileDeoptInfo::CpuProfileDeoptInfo(struct v8::CpuProfileDeoptInfo const &__ptr64 )__ptr64 
??0CpuProfileDeoptInfo@v8@@QEAA@AEBU01@@Z
; public: __cdecl v8::CpuProfileDeoptInfo::CpuProfileDeoptInfo(void)__ptr64 
??0CpuProfileDeoptInfo@v8@@QEAA@XZ
; public: __cdecl v8::internal::CpuProfiler::CpuProfiler(class v8::internal::Isolate *__ptr64,enum v8::CpuProfilingNamingMode,enum v8::CpuProfilingLoggingMode)__ptr64 
??0CpuProfiler@internal@v8@@QEAA@PEAVIsolate@12@W4CpuProfilingNamingMode@2@W4CpuProfilingLoggingMode@2@@Z
; public: __cdecl v8::internal::CpuProfiler::CpuProfiler(class v8::internal::Isolate *__ptr64,enum v8::CpuProfilingNamingMode,enum v8::CpuProfilingLoggingMode,class v8::internal::CpuProfilesCollection *__ptr64,class v8::internal::ProfileGenerator *__ptr64,class v8::internal::ProfilerEventsProcessor *__ptr64)__ptr64 
??0CpuProfiler@internal@v8@@QEAA@PEAVIsolate@12@W4CpuProfilingNamingMode@2@W4CpuProfilingLoggingMode@2@PEAVCpuProfilesCollection@12@PEAVProfileGenerator@12@PEAVProfilerEventsProcessor@12@@Z
; public: __cdecl v8::internal::CpuProfilesCollection::CpuProfilesCollection(class v8::internal::Isolate *__ptr64)__ptr64 
??0CpuProfilesCollection@internal@v8@@QEAA@PEAVIsolate@12@@Z
; public: __cdecl v8::CpuProfilingOptions::CpuProfilingOptions(enum v8::CpuProfilingMode,unsigned int,int)__ptr64 
??0CpuProfilingOptions@v8@@QEAA@W4CpuProfilingMode@1@IH@Z
; public: __cdecl v8::internal::compiler::CsaLoadElimination::CsaLoadElimination(class v8::internal::compiler::AdvancedReducer::Editor *__ptr64,class v8::internal::compiler::JSGraph *__ptr64,class v8::internal::Zone *__ptr64)__ptr64 
??0CsaLoadElimination@compiler@internal@v8@@QEAA@PEAVEditor@AdvancedReducer@123@PEAVJSGraph@123@PEAVZone@23@@Z
; public: __cdecl v8::internal::DateCache::DateCache(class v8::internal::DateCache const &__ptr64 )__ptr64 
??0DateCache@internal@v8@@QEAA@AEBV012@@Z
; public: __cdecl v8::internal::DateCache::DateCache(void)__ptr64 
??0DateCache@internal@v8@@QEAA@XZ
; public: __cdecl v8::internal::DbgStreamBuf::DbgStreamBuf(class v8::internal::DbgStreamBuf const &__ptr64 )__ptr64 
??0DbgStreamBuf@internal@v8@@QEAA@AEBV012@@Z
; public: __cdecl v8::internal::DbgStreamBuf::DbgStreamBuf(void)__ptr64 
??0DbgStreamBuf@internal@v8@@QEAA@XZ
; public: __cdecl v8::internal::compiler::DeadCodeElimination::DeadCodeElimination(class v8::internal::compiler::AdvancedReducer::Editor *__ptr64,class v8::internal::compiler::Graph *__ptr64,class v8::internal::compiler::CommonOperatorBuilder *__ptr64,class v8::internal::Zone *__ptr64)__ptr64 
??0DeadCodeElimination@compiler@internal@v8@@QEAA@PEAVEditor@AdvancedReducer@123@PEAVGraph@123@PEAVCommonOperatorBuilder@123@PEAVZone@23@@Z
; private: __cdecl v8::internal::Debug::Debug(class v8::internal::Isolate *__ptr64)__ptr64 
??0Debug@internal@v8@@AEAA@PEAVIsolate@12@@Z
; public: __cdecl v8::internal::DeclarationScope::DeclarationScope(class v8::internal::Zone *__ptr64,class v8::internal::AstValueFactory *__ptr64)__ptr64 
??0DeclarationScope@internal@v8@@QEAA@PEAVZone@12@PEAVAstValueFactory@12@@Z
; public: __cdecl v8::internal::DeclarationScope::DeclarationScope(class v8::internal::Zone *__ptr64,class v8::internal::Scope *__ptr64,enum v8::internal::ScopeType,enum v8::internal::FunctionKind)__ptr64 
??0DeclarationScope@internal@v8@@QEAA@PEAVZone@12@PEAVScope@12@W4ScopeType@12@W4FunctionKind@12@@Z
; public: __cdecl v8::internal::DeclarationScope::DeclarationScope(class v8::internal::Zone *__ptr64,enum v8::internal::ScopeType,class v8::internal::<class v8::internal::ScopeInfo>)__ptr64 
??0DeclarationScope@internal@v8@@QEAA@PEAVZone@12@W4ScopeType@12@V?$Handle@VScopeInfo@internal@v8@@@12@@Z
; public: __cdecl v8::internal::compiler::DecompressionElimination::DecompressionElimination(class v8::internal::compiler::DecompressionElimination const &__ptr64 )__ptr64 
??0DecompressionElimination@compiler@internal@v8@@QEAA@AEBV0123@@Z
; public: __cdecl v8::internal::compiler::DecompressionElimination::DecompressionElimination(class v8::internal::compiler::AdvancedReducer::Editor *__ptr64,class v8::internal::compiler::Graph *__ptr64,class v8::internal::compiler::MachineOperatorBuilder *__ptr64,class v8::internal::compiler::CommonOperatorBuilder *__ptr64)__ptr64 
??0DecompressionElimination@compiler@internal@v8@@QEAA@PEAVEditor@AdvancedReducer@123@PEAVGraph@123@PEAVMachineOperatorBuilder@123@PEAVCommonOperatorBuilder@123@@Z
; public: __cdecl v8::internal::DeferredHandleScope::DeferredHandleScope(class v8::internal::Isolate *__ptr64)__ptr64 
??0DeferredHandleScope@internal@v8@@QEAA@PEAVIsolate@12@@Z
; private: __cdecl v8::internal::DeferredHandles::DeferredHandles(unsigned __int64 *__ptr64,class v8::internal::Isolate *__ptr64)__ptr64 
??0DeferredHandles@internal@v8@@AEAA@PEA_KPEAVIsolate@12@@Z
; public: __cdecl v8::internal::DeferredHandles::DeferredHandles(class v8::internal::DeferredHandles const &__ptr64 )__ptr64 
??0DeferredHandles@internal@v8@@QEAA@AEBV012@@Z
; public: __cdecl v8::ValueDeserializer::Delegate::Delegate(class v8::ValueDeserializer::Delegate const &__ptr64 )__ptr64 
??0Delegate@ValueDeserializer@v8@@QEAA@AEBV012@@Z
; public: __cdecl v8::ValueDeserializer::Delegate::Delegate(void)__ptr64 
??0Delegate@ValueDeserializer@v8@@QEAA@XZ
; public: __cdecl v8::ValueSerializer::Delegate::Delegate(class v8::ValueSerializer::Delegate const &__ptr64 )__ptr64 
??0Delegate@ValueSerializer@v8@@QEAA@AEBV012@@Z
; public: __cdecl v8::ValueSerializer::Delegate::Delegate(void)__ptr64 
??0Delegate@ValueSerializer@v8@@QEAA@XZ
; protected: __cdecl v8::internal::Descriptor::Descriptor(class v8::internal::<class v8::internal::Name>,class v8::internal::MaybeObjectHandle const &__ptr64 ,class v8::internal::PropertyDetails)__ptr64 
??0Descriptor@internal@v8@@IEAA@V?$Handle@VName@internal@v8@@@12@AEBVMaybeObjectHandle@12@VPropertyDetails@12@@Z
; protected: __cdecl v8::internal::Descriptor::Descriptor(class v8::internal::<class v8::internal::Name>,class v8::internal::MaybeObjectHandle const &__ptr64 ,enum v8::internal::PropertyKind,enum v8::internal::PropertyAttributes,enum v8::internal::PropertyLocation,enum v8::internal::PropertyConstness,class v8::internal::Representation,int)__ptr64 
??0Descriptor@internal@v8@@IEAA@V?$Handle@VName@internal@v8@@@12@AEBVMaybeObjectHandle@12@W4PropertyKind@12@W4PropertyAttributes@12@W4PropertyLocation@12@W4PropertyConstness@12@VRepresentation@12@H@Z
; public: __cdecl v8::internal::Descriptor::Descriptor(void)__ptr64 
??0Descriptor@internal@v8@@QEAA@XZ
; public: __cdecl v8::internal::DetachableVectorBase::DetachableVectorBase(void)__ptr64 
??0DetachableVectorBase@internal@v8@@QEAA@XZ
; public: __cdecl v8::internal::compiler::DiamondMatcher::DiamondMatcher(class v8::internal::compiler::Node *__ptr64)__ptr64 
??0DiamondMatcher@compiler@internal@v8@@QEAA@PEAVNode@123@@Z
; public: __cdecl v8::Isolate::DisallowJavascriptExecutionScope::DisallowJavascriptExecutionScope(class v8::Isolate *__ptr64,enum v8::Isolate::DisallowJavascriptExecutionScope::OnFailure)__ptr64 
??0DisallowJavascriptExecutionScope@Isolate@v8@@QEAA@PEAV12@W4OnFailure@012@@Z
; public: __cdecl v8::internal::wasm::DisjointAllocationPool::DisjointAllocationPool(,class v8::internal::wasm::DisjointAllocationPool *__ptr64 const)__ptr64 
??0DisjointAllocationPool@wasm@internal@v8@@QEAA@$$QEAV0123@@Z
; public: __cdecl v8::internal::wasm::DisjointAllocationPool::DisjointAllocationPool(class v8::base::AddressRegion)__ptr64 
??0DisjointAllocationPool@wasm@internal@v8@@QEAA@VAddressRegion@base@3@@Z
; public: __cdecl v8::internal::wasm::DisjointAllocationPool::DisjointAllocationPool(void)__ptr64 
??0DisjointAllocationPool@wasm@internal@v8@@QEAA@XZ
; public: __cdecl v8_inspector::protocol::Schema::API::Domain::Domain(,class v8_inspector::protocol::Schema::API::Domain *__ptr64 const)__ptr64 
??0Domain@API@Schema@protocol@v8_inspector@@QEAA@$$QEAV01234@@Z
; public: __cdecl v8_inspector::protocol::Schema::API::Domain::Domain(class v8_inspector::protocol::Schema::API::Domain const &__ptr64 )__ptr64 
??0Domain@API@Schema@protocol@v8_inspector@@QEAA@AEBV01234@@Z
; public: __cdecl v8_inspector::protocol::Schema::API::Domain::Domain(void)__ptr64 
??0Domain@API@Schema@protocol@v8_inspector@@QEAA@XZ
; public: __cdecl v8::internal::EhFrameIterator::EhFrameIterator(unsigned char const *__ptr64,unsigned char const *__ptr64)__ptr64 
??0EhFrameIterator@internal@v8@@QEAA@PEBE0@Z
; public: __cdecl v8::internal::EhFrameWriter::EhFrameWriter(class v8::internal::Zone *__ptr64)__ptr64 
??0EhFrameWriter@internal@v8@@QEAA@PEAVZone@12@@Z
; public: __cdecl v8::EmbedderGraph::EmbedderGraph(class v8::EmbedderGraph const &__ptr64 )__ptr64 
??0EmbedderGraph@v8@@QEAA@AEBV01@@Z
; public: __cdecl v8::EmbedderGraph::EmbedderGraph(void)__ptr64 
??0EmbedderGraph@v8@@QEAA@XZ
; public: __cdecl v8::EmbedderHeapTracer::EmbedderHeapTracer(class v8::EmbedderHeapTracer const &__ptr64 )__ptr64 
??0EmbedderHeapTracer@v8@@QEAA@AEBV01@@Z
; public: __cdecl v8::EmbedderHeapTracer::EmbedderHeapTracer(void)__ptr64 
??0EmbedderHeapTracer@v8@@QEAA@XZ
; public: __cdecl v8::internal::EmbedderStackStateScope::EmbedderStackStateScope(class v8::internal::LocalEmbedderHeapTracer *__ptr64,enum v8::EmbedderHeapTracer::EmbedderStackState)__ptr64 
??0EmbedderStackStateScope@internal@v8@@QEAA@PEAVLocalEmbedderHeapTracer@12@W4EmbedderStackState@EmbedderHeapTracer@2@@Z
; private: __cdecl v8::debug::TypeProfile::Entry::Entry(struct v8::internal::TypeProfileEntry const *__ptr64,class std::<class v8::internal::TypeProfile>)__ptr64 
??0Entry@TypeProfile@debug@v8@@AEAA@PEBUTypeProfileEntry@internal@3@V?$shared_ptr@VTypeProfile@internal@v8@@@std@@@Z
; public: __cdecl v8::debug::TypeProfile::Entry::Entry(,class v8::debug::TypeProfile::Entry *__ptr64 const)__ptr64 
??0Entry@TypeProfile@debug@v8@@QEAA@$$QEAV0123@@Z
; protected: __cdecl v8::internal::EphemeronHashTable::EphemeronHashTable(unsigned __int64)__ptr64 
??0EphemeronHashTable@internal@v8@@IEAA@_K@Z
; public: __cdecl v8::internal::EphemeronHashTable::EphemeronHashTable(void)__ptr64 
??0EphemeronHashTable@internal@v8@@QEAA@XZ
; public: __cdecl v8::internal::wasm::ErrorThrower::ErrorThrower(,class v8::internal::wasm::ErrorThrower *__ptr64 const)__ptr64 
??0ErrorThrower@wasm@internal@v8@@QEAA@$$QEAV0123@@Z
; public: __cdecl v8::internal::wasm::ErrorThrower::ErrorThrower(class v8::internal::Isolate *__ptr64,char const *__ptr64)__ptr64 
??0ErrorThrower@wasm@internal@v8@@QEAA@PEAVIsolate@23@PEBD@Z
; public: __cdecl v8::EscapableHandleScope::EscapableHandleScope(class v8::Isolate *__ptr64)__ptr64 
??0EscapableHandleScope@v8@@QEAA@PEAVIsolate@1@@Z
; public: __cdecl v8::internal::compiler::EscapeAnalysis::EscapeAnalysis(class v8::internal::compiler::JSGraph *__ptr64,class v8::internal::TickCounter *__ptr64,class v8::internal::Zone *__ptr64)__ptr64 
??0EscapeAnalysis@compiler@internal@v8@@QEAA@PEAVJSGraph@123@PEAVTickCounter@23@PEAVZone@23@@Z
; public: __cdecl v8::internal::compiler::EscapeAnalysisReducer::EscapeAnalysisReducer(class v8::internal::compiler::AdvancedReducer::Editor *__ptr64,class v8::internal::compiler::JSGraph *__ptr64,class v8::internal::compiler::EscapeAnalysisResult,class v8::internal::Zone *__ptr64)__ptr64 
??0EscapeAnalysisReducer@compiler@internal@v8@@QEAA@PEAVEditor@AdvancedReducer@123@PEAVJSGraph@123@VEscapeAnalysisResult@123@PEAVZone@23@@Z
; public: __cdecl v8::internal::compiler::ExplicitOperand::ExplicitOperand(enum v8::internal::compiler::LocationOperand::LocationKind,enum v8::internal::MachineRepresentation,int)__ptr64 
??0ExplicitOperand@compiler@internal@v8@@QEAA@W4LocationKind@LocationOperand@123@W4MachineRepresentation@23@H@Z
; public: __cdecl v8_inspector::protocol::Exported::Exported(class v8_inspector::protocol::Exported const &__ptr64 )__ptr64 
??0Exported@protocol@v8_inspector@@QEAA@AEBV012@@Z
; public: __cdecl v8_inspector::protocol::Exported::Exported(void)__ptr64 
??0Exported@protocol@v8_inspector@@QEAA@XZ
; public: __cdecl v8::Extension::Extension(char const *__ptr64,char const *__ptr64,int,char const *__ptr64 *__ptr64,int)__ptr64 
??0Extension@v8@@QEAA@PEBD0HPEAPEBDH@Z
; public: __cdecl v8::ExtensionConfiguration::ExtensionConfiguration(int,char const *__ptr64 *__ptr64 const)__ptr64 
??0ExtensionConfiguration@v8@@QEAA@HQEAPEBD@Z
; public: __cdecl v8::ExtensionConfiguration::ExtensionConfiguration(void)__ptr64 
??0ExtensionConfiguration@v8@@QEAA@XZ
; protected: __cdecl v8::String::ExternalOneByteStringResource::ExternalOneByteStringResource(void)__ptr64 
??0ExternalOneByteStringResource@String@v8@@IEAA@XZ
; public: __cdecl v8::ExternalResourceVisitor::ExternalResourceVisitor(class v8::ExternalResourceVisitor const &__ptr64 )__ptr64 
??0ExternalResourceVisitor@v8@@QEAA@AEBV01@@Z
; public: __cdecl v8::ExternalResourceVisitor::ExternalResourceVisitor(void)__ptr64 
??0ExternalResourceVisitor@v8@@QEAA@XZ
; public: __cdecl v8::ScriptCompiler::ExternalSourceStream::ExternalSourceStream(class v8::ScriptCompiler::ExternalSourceStream const &__ptr64 )__ptr64 
??0ExternalSourceStream@ScriptCompiler@v8@@QEAA@AEBV012@@Z
; public: __cdecl v8::ScriptCompiler::ExternalSourceStream::ExternalSourceStream(void)__ptr64 
??0ExternalSourceStream@ScriptCompiler@v8@@QEAA@XZ
; protected: __cdecl v8::String::ExternalStringResource::ExternalStringResource(void)__ptr64 
??0ExternalStringResource@String@v8@@IEAA@XZ
; protected: __cdecl v8::String::ExternalStringResourceBase::ExternalStringResourceBase(void)__ptr64 
??0ExternalStringResourceBase@String@v8@@IEAA@XZ
; public: __cdecl v8::internal::FeedbackNexus::FeedbackNexus(class v8::internal::<class v8::internal::FeedbackVector>,class v8::internal::FeedbackSlot)__ptr64 
??0FeedbackNexus@internal@v8@@QEAA@V?$Handle@VFeedbackVector@internal@v8@@@12@VFeedbackSlot@12@@Z
; public: __cdecl v8::internal::FeedbackNexus::FeedbackNexus(class v8::internal::FeedbackVector,class v8::internal::FeedbackSlot)__ptr64 
??0FeedbackNexus@internal@v8@@QEAA@VFeedbackVector@12@VFeedbackSlot@12@@Z
; public: __cdecl v8::internal::compiler::FeedbackSource::FeedbackSource(class v8::internal::<class v8::internal::FeedbackVector>,class v8::internal::FeedbackSlot)__ptr64 
??0FeedbackSource@compiler@internal@v8@@QEAA@V?$Handle@VFeedbackVector@internal@v8@@@23@VFeedbackSlot@23@@Z
; public: __cdecl v8::internal::FeedbackVectorSpec::FeedbackVectorSpec(,class v8::internal::FeedbackVectorSpec *__ptr64 const)__ptr64 
??0FeedbackVectorSpec@internal@v8@@QEAA@$$QEAV012@@Z
; public: __cdecl v8::internal::FeedbackVectorSpec::FeedbackVectorSpec(class v8::internal::FeedbackVectorSpec const &__ptr64 )__ptr64 
??0FeedbackVectorSpec@internal@v8@@QEAA@AEBV012@@Z
; public: __cdecl v8::internal::FeedbackVectorSpec::FeedbackVectorSpec(class v8::internal::Zone *__ptr64)__ptr64 
??0FeedbackVectorSpec@internal@v8@@QEAA@PEAVZone@12@@Z
; public: __cdecl v8::internal::FlatStringReader::FlatStringReader(,class v8::internal::FlatStringReader *__ptr64 const)__ptr64 
??0FlatStringReader@internal@v8@@QEAA@$$QEAV012@@Z
; public: __cdecl v8::internal::FlatStringReader::FlatStringReader(class v8::internal::FlatStringReader const &__ptr64 )__ptr64 
??0FlatStringReader@internal@v8@@QEAA@AEBV012@@Z
; public: __cdecl v8::internal::FlatStringReader::FlatStringReader(class v8::internal::Isolate *__ptr64,class v8::internal::<class v8::internal::String>)__ptr64 
??0FlatStringReader@internal@v8@@QEAA@PEAVIsolate@12@V?$Handle@VString@internal@v8@@@12@@Z
; public: __cdecl v8::internal::FlatStringReader::FlatStringReader(class v8::internal::Isolate *__ptr64,class v8::internal::<char const>)__ptr64 
??0FlatStringReader@internal@v8@@QEAA@PEAVIsolate@12@V?$Vector@$$CBD@12@@Z
; public: __cdecl v8::internal::compiler::Frame::Frame(int)__ptr64 
??0Frame@compiler@internal@v8@@QEAA@H@Z
; public: __cdecl v8::internal::FrameSummary::FrameSummary(class v8::internal::FrameSummary::JavaScriptFrameSummary)__ptr64 
??0FrameSummary@internal@v8@@QEAA@VJavaScriptFrameSummary@012@@Z
; public: __cdecl v8::internal::FrameSummary::FrameSummary(class v8::internal::FrameSummary::WasmCompiledFrameSummary)__ptr64 
??0FrameSummary@internal@v8@@QEAA@VWasmCompiledFrameSummary@012@@Z
; public: __cdecl v8::internal::FrameSummary::FrameSummary(class v8::internal::FrameSummary::WasmInterpretedFrameSummary)__ptr64 
??0FrameSummary@internal@v8@@QEAA@VWasmInterpretedFrameSummary@012@@Z
; public: __cdecl v8::internal::FreeListFastAlloc::FreeListFastAlloc(void)__ptr64 
??0FreeListFastAlloc@internal@v8@@QEAA@XZ
; public: __cdecl v8::internal::FreeListLegacy::FreeListLegacy(void)__ptr64 
??0FreeListLegacy@internal@v8@@QEAA@XZ
; public: __cdecl v8::internal::FreeListMany::FreeListMany(void)__ptr64 
??0FreeListMany@internal@v8@@QEAA@XZ
; public: __cdecl v8::internal::FreeListManyCached::FreeListManyCached(void)__ptr64 
??0FreeListManyCached@internal@v8@@QEAA@XZ
; public: __cdecl v8::internal::FreeListManyCachedFastPath::FreeListManyCachedFastPath(void)__ptr64 
??0FreeListManyCachedFastPath@internal@v8@@QEAA@XZ
; public: __cdecl v8::internal::FreeListManyCachedOrigin::FreeListManyCachedOrigin(void)__ptr64 
??0FreeListManyCachedOrigin@internal@v8@@QEAA@XZ
; public: __cdecl v8::internal::FreeListMap::FreeListMap(void)__ptr64 
??0FreeListMap@internal@v8@@QEAA@XZ
; private: __cdecl v8::debug::Coverage::FunctionData::FunctionData(struct v8::internal::CoverageFunction *__ptr64,class std::<class v8::internal::Coverage>)__ptr64 
??0FunctionData@Coverage@debug@v8@@AEAA@PEAUCoverageFunction@internal@3@V?$shared_ptr@VCoverage@internal@v8@@@std@@@Z
; public: __cdecl v8::debug::Coverage::FunctionData::FunctionData(,class v8::debug::Coverage::FunctionData *__ptr64 const)__ptr64 
??0FunctionData@Coverage@debug@v8@@QEAA@$$QEAV0123@@Z
; public: __cdecl v8::internal::GCTracer::GCTracer(class v8::internal::Heap *__ptr64)__ptr64 
??0GCTracer@internal@v8@@QEAA@PEAVHeap@12@@Z
; protected: __cdecl v8::internal::GlobalDictionary::GlobalDictionary(unsigned __int64)__ptr64 
??0GlobalDictionary@internal@v8@@IEAA@_K@Z
; public: __cdecl v8::internal::GlobalDictionary::GlobalDictionary(void)__ptr64 
??0GlobalDictionary@internal@v8@@QEAA@XZ
; public: __cdecl v8::internal::GlobalHandles::GlobalHandles(class v8::internal::Isolate *__ptr64)__ptr64 
??0GlobalHandles@internal@v8@@QEAA@PEAVIsolate@12@@Z
; public: __cdecl v8::internal::compiler::Graph::Graph(class v8::internal::Zone *__ptr64)__ptr64 
??0Graph@compiler@internal@v8@@QEAA@PEAVZone@23@@Z
; public: __cdecl v8::internal::compiler::GraphReducer::GraphReducer(class v8::internal::Zone *__ptr64,class v8::internal::compiler::Graph *__ptr64,class v8::internal::TickCounter *__ptr64,class v8::internal::compiler::Node *__ptr64)__ptr64 
??0GraphReducer@compiler@internal@v8@@QEAA@PEAVZone@23@PEAVGraph@123@PEAVTickCounter@23@PEAVNode@123@@Z
; public: __cdecl v8::internal::compiler::GraphTrimmer::GraphTrimmer(class v8::internal::Zone *__ptr64,class v8::internal::compiler::Graph *__ptr64)__ptr64 
??0GraphTrimmer@compiler@internal@v8@@QEAA@PEAVZone@23@PEAVGraph@123@@Z
; public: __cdecl v8::HandleScope::HandleScope(class v8::Isolate *__ptr64)__ptr64 
??0HandleScope@v8@@QEAA@PEAVIsolate@1@@Z
; public: __cdecl v8::internal::HandlerTable::HandlerTable(class v8::internal::ByteArray)__ptr64 
??0HandlerTable@internal@v8@@QEAA@VByteArray@12@@Z
; public: __cdecl v8::internal::HandlerTable::HandlerTable(class v8::internal::BytecodeArray)__ptr64 
??0HandlerTable@internal@v8@@QEAA@VBytecodeArray@12@@Z
; public: __cdecl v8::internal::HandlerTable::HandlerTable(class v8::internal::Code)__ptr64 
??0HandlerTable@internal@v8@@QEAA@VCode@12@@Z
; public: __cdecl v8::internal::HandlerTable::HandlerTable(unsigned __int64,int,enum v8::internal::HandlerTable::EncodingMode)__ptr64 
??0HandlerTable@internal@v8@@QEAA@_KHW4EncodingMode@012@@Z
; public: __cdecl v8::internal::interpreter::HandlerTableBuilder::HandlerTableBuilder(class v8::internal::Zone *__ptr64)__ptr64 
??0HandlerTableBuilder@interpreter@internal@v8@@QEAA@PEAVZone@23@@Z
; protected: __cdecl v8::internal::HashTableBase::HashTableBase(unsigned __int64)__ptr64 
??0HashTableBase@internal@v8@@IEAA@_K@Z
; public: __cdecl v8::internal::HashTableBase::HashTableBase(void)__ptr64 
??0HashTableBase@internal@v8@@QEAA@XZ
; public: __cdecl v8::HeapCodeStatistics::HeapCodeStatistics(void)__ptr64 
??0HeapCodeStatistics@v8@@QEAA@XZ
; private: __cdecl v8::internal::compiler::HeapConstantType::HeapConstantType(unsigned int,class v8::internal::compiler::HeapObjectRef const &__ptr64 )__ptr64 
??0HeapConstantType@compiler@internal@v8@@AEAA@IAEBVHeapObjectRef@123@@Z
; public: __cdecl v8::internal::HeapObjectIterator::HeapObjectIterator(class v8::internal::Heap *__ptr64,enum v8::internal::HeapObjectIterator::HeapObjectsFiltering)__ptr64 
??0HeapObjectIterator@internal@v8@@QEAA@PEAVHeap@12@W4HeapObjectsFiltering@012@@Z
; public: __cdecl v8::HeapObjectStatistics::HeapObjectStatistics(void)__ptr64 
??0HeapObjectStatistics@v8@@QEAA@XZ
; public: __cdecl v8::HeapSpaceStatistics::HeapSpaceStatistics(void)__ptr64 
??0HeapSpaceStatistics@v8@@QEAA@XZ
; public: __cdecl v8::HeapStatistics::HeapStatistics(void)__ptr64 
??0HeapStatistics@v8@@QEAA@XZ
; protected: __cdecl v8::internal::I32PairToBigIntDescriptor::I32PairToBigIntDescriptor(enum v8::internal::CallDescriptors::Key)__ptr64 
??0I32PairToBigIntDescriptor@internal@v8@@IEAA@W4Key@CallDescriptors@12@@Z
; public: __cdecl v8::internal::I32PairToBigIntDescriptor::I32PairToBigIntDescriptor(,class v8::internal::I32PairToBigIntDescriptor *__ptr64 const)__ptr64 
??0I32PairToBigIntDescriptor@internal@v8@@QEAA@$$QEAV012@@Z
; public: __cdecl v8::internal::I32PairToBigIntDescriptor::I32PairToBigIntDescriptor(class v8::internal::I32PairToBigIntDescriptor const &__ptr64 )__ptr64 
??0I32PairToBigIntDescriptor@internal@v8@@QEAA@AEBV012@@Z
; public: __cdecl v8::internal::I32PairToBigIntDescriptor::I32PairToBigIntDescriptor(void)__ptr64 
??0I32PairToBigIntDescriptor@internal@v8@@QEAA@XZ
; protected: __cdecl v8::internal::I64ToBigIntDescriptor::I64ToBigIntDescriptor(enum v8::internal::CallDescriptors::Key)__ptr64 
??0I64ToBigIntDescriptor@internal@v8@@IEAA@W4Key@CallDescriptors@12@@Z
; public: __cdecl v8::internal::I64ToBigIntDescriptor::I64ToBigIntDescriptor(,class v8::internal::I64ToBigIntDescriptor *__ptr64 const)__ptr64 
??0I64ToBigIntDescriptor@internal@v8@@QEAA@$$QEAV012@@Z
; public: __cdecl v8::internal::I64ToBigIntDescriptor::I64ToBigIntDescriptor(class v8::internal::I64ToBigIntDescriptor const &__ptr64 )__ptr64 
??0I64ToBigIntDescriptor@internal@v8@@QEAA@AEBV012@@Z
; public: __cdecl v8::internal::I64ToBigIntDescriptor::I64ToBigIntDescriptor(void)__ptr64 
??0I64ToBigIntDescriptor@internal@v8@@QEAA@XZ
; protected: __cdecl v8::internal::IdentityMapBase::IdentityMapBase(class v8::internal::Heap *__ptr64)__ptr64 
??0IdentityMapBase@internal@v8@@IEAA@PEAVHeap@12@@Z
; public: __cdecl v8::internal::IncrementalMarking::IncrementalMarking(class v8::internal::Heap *__ptr64,class v8::internal::MarkCompactCollector::MarkingWorklist *__ptr64,struct v8::internal::WeakObjects *__ptr64)__ptr64 
??0IncrementalMarking@internal@v8@@QEAA@PEAVHeap@12@PEAVMarkingWorklist@MarkCompactCollector@12@PEAUWeakObjects@12@@Z
; public: __cdecl v8::internal::compiler::Node::Inputs::Inputs(class v8::internal::compiler::Node *__ptr64 const *__ptr64,int)__ptr64 
??0Inputs@Node@compiler@internal@v8@@QEAA@PEBQEAV1234@H@Z
; public: __cdecl v8_inspector::V8InspectorSession::Inspectable::Inspectable(class v8_inspector::V8InspectorSession::Inspectable const &__ptr64 )__ptr64 
??0Inspectable@V8InspectorSession@v8_inspector@@QEAA@AEBV012@@Z
; public: __cdecl v8_inspector::V8InspectorSession::Inspectable::Inspectable(void)__ptr64 
??0Inspectable@V8InspectorSession@v8_inspector@@QEAA@XZ
; public: __cdecl v8::internal::wasm::InstantiationResultResolver::InstantiationResultResolver(class v8::internal::wasm::InstantiationResultResolver const &__ptr64 )__ptr64 
??0InstantiationResultResolver@wasm@internal@v8@@QEAA@AEBV0123@@Z
; public: __cdecl v8::internal::wasm::InstantiationResultResolver::InstantiationResultResolver(void)__ptr64 
??0InstantiationResultResolver@wasm@internal@v8@@QEAA@XZ
; private: __cdecl v8::internal::compiler::Instruction::Instruction(int)__ptr64 
??0Instruction@compiler@internal@v8@@AEAA@H@Z
; private: __cdecl v8::internal::compiler::Instruction::Instruction(int,unsigned __int64,class v8::internal::compiler::InstructionOperand *__ptr64,unsigned __int64,class v8::internal::compiler::InstructionOperand *__ptr64,unsigned __int64,class v8::internal::compiler::InstructionOperand *__ptr64)__ptr64 
??0Instruction@compiler@internal@v8@@AEAA@H_KPEAVInstructionOperand@123@0101@Z
; public: __cdecl v8::internal::compiler::InstructionBlock::InstructionBlock(,class v8::internal::compiler::InstructionBlock *__ptr64 const)__ptr64 
??0InstructionBlock@compiler@internal@v8@@QEAA@$$QEAV0123@@Z
; public: __cdecl v8::internal::compiler::InstructionBlock::InstructionBlock(class v8::internal::compiler::InstructionBlock const &__ptr64 )__ptr64 
??0InstructionBlock@compiler@internal@v8@@QEAA@AEBV0123@@Z
; public: __cdecl v8::internal::compiler::InstructionBlock::InstructionBlock(class v8::internal::Zone *__ptr64,class v8::internal::compiler::RpoNumber,class v8::internal::compiler::RpoNumber,class v8::internal::compiler::RpoNumber,bool,bool)__ptr64 
??0InstructionBlock@compiler@internal@v8@@QEAA@PEAVZone@23@VRpoNumber@123@11_N2@Z
; protected: __cdecl v8::internal::compiler::InstructionOperand::InstructionOperand(enum v8::internal::compiler::InstructionOperand::Kind)__ptr64 
??0InstructionOperand@compiler@internal@v8@@IEAA@W4Kind@0123@@Z
; public: __cdecl v8::internal::compiler::InstructionOperand::InstructionOperand(void)__ptr64 
??0InstructionOperand@compiler@internal@v8@@QEAA@XZ
; public: __cdecl v8::internal::compiler::InstructionScheduler::InstructionScheduler(class v8::internal::Zone *__ptr64,class v8::internal::compiler::InstructionSequence *__ptr64)__ptr64 
??0InstructionScheduler@compiler@internal@v8@@QEAA@PEAVZone@23@PEAVInstructionSequence@123@@Z
; public: __cdecl v8::internal::compiler::InstructionSelector::InstructionSelector(,class v8::internal::compiler::InstructionSelector *__ptr64 const)__ptr64 
??0InstructionSelector@compiler@internal@v8@@QEAA@$$QEAV0123@@Z
; public: __cdecl v8::internal::compiler::InstructionSelector::InstructionSelector(class v8::internal::compiler::InstructionSelector const &__ptr64 )__ptr64 
??0InstructionSelector@compiler@internal@v8@@QEAA@AEBV0123@@Z
; public: __cdecl v8::internal::compiler::InstructionSelector::InstructionSelector(class v8::internal::Zone *__ptr64,unsigned __int64,class v8::internal::compiler::Linkage *__ptr64,class v8::internal::compiler::InstructionSequence *__ptr64,class v8::internal::compiler::Schedule *__ptr64,class v8::internal::compiler::SourcePositionTable *__ptr64,class v8::internal::compiler::Frame *__ptr64,enum v8::internal::compiler::InstructionSelector::EnableSwitchJumpTable,class v8::internal::TickCounter *__ptr64,unsigned __int64 *__ptr64,enum v8::internal::compiler::InstructionSelector::SourcePositionMode,class v8::internal::compiler::InstructionSelector::Features,enum v8::internal::compiler::InstructionSelector::EnableScheduling,enum v8::internal::compiler::InstructionSelector::EnableRootsRelativeAddressing,enum v8::internal::PoisoningMitigationLevel,enum v8::internal::compiler::InstructionSelector::EnableTraceTurboJson)__ptr64 
??0InstructionSelector@compiler@internal@v8@@QEAA@PEAVZone@23@_KPEAVLinkage@123@PEAVInstructionSequence@123@PEAVSchedule@123@PEAVSourcePositionTable@123@PEAVFrame@123@W4EnableSwitchJumpTable@0123@PEAVTickCounter@23@PEA_KW4SourcePositionMode@0123@VFeatures@0123@W4EnableScheduling@0123@W4EnableRootsRelativeAddressing@0123@W4PoisoningMitigationLevel@23@W4EnableTraceTurboJson@0123@@Z
; public: __cdecl v8::internal::compiler::InstructionSequence::InstructionSequence(class v8::internal::Isolate *__ptr64,class v8::internal::Zone *__ptr64,class v8::internal::<class v8::internal::compiler::InstructionBlock *__ptr64> *__ptr64)__ptr64 
??0InstructionSequence@compiler@internal@v8@@QEAA@PEAVIsolate@23@PEAVZone@23@PEAV?$ZoneVector@PEAVInstructionBlock@compiler@internal@v8@@@23@@Z
; public: __cdecl v8::internal::compiler::Int64Lowering::Int64Lowering(class v8::internal::compiler::Graph *__ptr64,class v8::internal::compiler::MachineOperatorBuilder *__ptr64,class v8::internal::compiler::CommonOperatorBuilder *__ptr64,class v8::internal::Zone *__ptr64,class v8::internal::<enum v8::internal::MachineRepresentation> *__ptr64,class std::<struct v8::internal::compiler::Int64LoweringSpecialCase,struct std::<struct v8::internal::compiler::Int64LoweringSpecialCase>>)__ptr64 
??0Int64Lowering@compiler@internal@v8@@QEAA@PEAVGraph@123@PEAVMachineOperatorBuilder@123@PEAVCommonOperatorBuilder@123@PEAVZone@23@PEAV?$Signature@W4MachineRepresentation@internal@v8@@@23@V?$unique_ptr@UInt64LoweringSpecialCase@compiler@internal@v8@@U?$default_delete@UInt64LoweringSpecialCase@compiler@internal@v8@@@std@@@std@@@Z
; public: __cdecl v8::internal::compiler::Int64LoweringSpecialCase::Int64LoweringSpecialCase(void)__ptr64 
??0Int64LoweringSpecialCase@compiler@internal@v8@@QEAA@XZ
; protected: __cdecl v8::internal::InterpreterDispatchDescriptor::InterpreterDispatchDescriptor(enum v8::internal::CallDescriptors::Key)__ptr64 
??0InterpreterDispatchDescriptor@internal@v8@@IEAA@W4Key@CallDescriptors@12@@Z
; public: __cdecl v8::internal::InterpreterDispatchDescriptor::InterpreterDispatchDescriptor(,class v8::internal::InterpreterDispatchDescriptor *__ptr64 const)__ptr64 
??0InterpreterDispatchDescriptor@internal@v8@@QEAA@$$QEAV012@@Z
; public: __cdecl v8::internal::InterpreterDispatchDescriptor::InterpreterDispatchDescriptor(class v8::internal::InterpreterDispatchDescriptor const &__ptr64 )__ptr64 
??0InterpreterDispatchDescriptor@internal@v8@@QEAA@AEBV012@@Z
; public: __cdecl v8::internal::InterpreterDispatchDescriptor::InterpreterDispatchDescriptor(void)__ptr64 
??0InterpreterDispatchDescriptor@internal@v8@@QEAA@XZ
; public: __cdecl v8::internal::InterruptsScope::InterruptsScope(class v8::internal::Isolate *__ptr64,__int64,enum v8::internal::InterruptsScope::Mode)__ptr64 
??0InterruptsScope@internal@v8@@QEAA@PEAVIsolate@12@_JW4Mode@012@@Z
; public: __cdecl v8::internal::InvalidatedSlotsCleanup::InvalidatedSlotsCleanup(,class v8::internal::InvalidatedSlotsCleanup *__ptr64 const)__ptr64 
??0InvalidatedSlotsCleanup@internal@v8@@QEAA@$$QEAV012@@Z
; public: __cdecl v8::internal::InvalidatedSlotsCleanup::InvalidatedSlotsCleanup(class v8::internal::InvalidatedSlotsCleanup const &__ptr64 )__ptr64 
??0InvalidatedSlotsCleanup@internal@v8@@QEAA@AEBV012@@Z
; public: __cdecl v8::internal::InvalidatedSlotsCleanup::InvalidatedSlotsCleanup(class v8::internal::MemoryChunk *__ptr64,class std::<class v8::internal::HeapObject,int,struct v8::internal::Object::Comparer,class std::<struct std::<class v8::internal::HeapObject const,int>>> *__ptr64)__ptr64 
??0InvalidatedSlotsCleanup@internal@v8@@QEAA@PEAVMemoryChunk@12@PEAV?$map@VHeapObject@internal@v8@@HUComparer@Object@23@V?$allocator@U?$pair@$$CBVHeapObject@internal@v8@@H@std@@@std@@@std@@@Z
; public: __cdecl v8::internal::InvalidatedSlotsFilter::InvalidatedSlotsFilter(,class v8::internal::InvalidatedSlotsFilter *__ptr64 const)__ptr64 
??0InvalidatedSlotsFilter@internal@v8@@QEAA@$$QEAV012@@Z
; public: __cdecl v8::internal::InvalidatedSlotsFilter::InvalidatedSlotsFilter(class v8::internal::InvalidatedSlotsFilter const &__ptr64 )__ptr64 
??0InvalidatedSlotsFilter@internal@v8@@QEAA@AEBV012@@Z
; public: __cdecl v8::internal::InvalidatedSlotsFilter::InvalidatedSlotsFilter(class v8::internal::MemoryChunk *__ptr64,class std::<class v8::internal::HeapObject,int,struct v8::internal::Object::Comparer,class std::<struct std::<class v8::internal::HeapObject const,int>>> *__ptr64,bool)__ptr64 
??0InvalidatedSlotsFilter@internal@v8@@QEAA@PEAVMemoryChunk@12@PEAV?$map@VHeapObject@internal@v8@@HUComparer@Object@23@V?$allocator@U?$pair@$$CBVHeapObject@internal@v8@@H@std@@@std@@@std@@_N@Z
; public: __cdecl v8::internal::IsolateAllocator::IsolateAllocator(enum v8::internal::IsolateAllocationMode)__ptr64 
??0IsolateAllocator@internal@v8@@QEAA@W4IsolateAllocationMode@12@@Z
; public: __cdecl v8::internal::ItemParallelJob::Item::Item(void)__ptr64 
??0Item@ItemParallelJob@internal@v8@@QEAA@XZ
; public: __cdecl v8::internal::ItemParallelJob::ItemParallelJob(class v8::internal::CancelableTaskManager *__ptr64,class v8::base::Semaphore *__ptr64)__ptr64 
??0ItemParallelJob@internal@v8@@QEAA@PEAVCancelableTaskManager@12@PEAVSemaphore@base@2@@Z
; public: __cdecl v8::internal::Script::Iterator::Iterator(class v8::internal::Isolate *__ptr64)__ptr64 
??0Iterator@Script@internal@v8@@QEAA@PEAVIsolate@23@@Z
; public: __cdecl v8::internal::compiler::JSCallReducer::JSCallReducer(,class v8::internal::compiler::JSCallReducer *__ptr64 const)__ptr64 
??0JSCallReducer@compiler@internal@v8@@QEAA@$$QEAV0123@@Z
; public: __cdecl v8::internal::compiler::JSCallReducer::JSCallReducer(class v8::internal::compiler::JSCallReducer const &__ptr64 )__ptr64 
??0JSCallReducer@compiler@internal@v8@@QEAA@AEBV0123@@Z
; public: __cdecl v8::internal::compiler::JSCallReducer::JSCallReducer(class v8::internal::compiler::AdvancedReducer::Editor *__ptr64,class v8::internal::compiler::JSGraph *__ptr64,class v8::internal::compiler::JSHeapBroker *__ptr64,class v8::base::<enum v8::internal::compiler::JSCallReducer::Flag,int>,class v8::internal::compiler::CompilationDependencies *__ptr64)__ptr64 
??0JSCallReducer@compiler@internal@v8@@QEAA@PEAVEditor@AdvancedReducer@123@PEAVJSGraph@123@PEAVJSHeapBroker@123@V?$Flags@W4Flag@JSCallReducer@compiler@internal@v8@@H@base@3@PEAVCompilationDependencies@123@@Z
; public: __cdecl v8::internal::compiler::JSContextSpecialization::JSContextSpecialization(class v8::internal::compiler::AdvancedReducer::Editor *__ptr64,class v8::internal::compiler::JSGraph *__ptr64,class v8::internal::compiler::JSHeapBroker *__ptr64,class v8::<struct v8::internal::compiler::OuterContext>,class v8::internal::<class v8::internal::JSFunction>)__ptr64 
??0JSContextSpecialization@compiler@internal@v8@@QEAA@PEAVEditor@AdvancedReducer@123@PEAVJSGraph@123@PEAVJSHeapBroker@123@V?$Maybe@UOuterContext@compiler@internal@v8@@@3@V?$MaybeHandle@VJSFunction@internal@v8@@@23@@Z
; public: __cdecl v8::internal::compiler::JSCreateLowering::JSCreateLowering(class v8::internal::compiler::JSCreateLowering const &__ptr64 )__ptr64 
??0JSCreateLowering@compiler@internal@v8@@QEAA@AEBV0123@@Z
; public: __cdecl v8::internal::compiler::JSCreateLowering::JSCreateLowering(class v8::internal::compiler::AdvancedReducer::Editor *__ptr64,class v8::internal::compiler::CompilationDependencies *__ptr64,class v8::internal::compiler::JSGraph *__ptr64,class v8::internal::compiler::JSHeapBroker *__ptr64,class v8::internal::Zone *__ptr64)__ptr64 
??0JSCreateLowering@compiler@internal@v8@@QEAA@PEAVEditor@AdvancedReducer@123@PEAVCompilationDependencies@123@PEAVJSGraph@123@PEAVJSHeapBroker@123@PEAVZone@23@@Z
; public: __cdecl v8::internal::compiler::JSFunctionRef::JSFunctionRef(class v8::internal::compiler::JSHeapBroker *__ptr64,class v8::internal::compiler::ObjectData *__ptr64,bool)__ptr64 
??0JSFunctionRef@compiler@internal@v8@@QEAA@PEAVJSHeapBroker@123@PEAVObjectData@123@_N@Z
; public: __cdecl v8::internal::compiler::JSFunctionRef::JSFunctionRef(class v8::internal::compiler::JSHeapBroker *__ptr64,class v8::internal::<class v8::internal::Object>,bool)__ptr64 
??0JSFunctionRef@compiler@internal@v8@@QEAA@PEAVJSHeapBroker@123@V?$Handle@VObject@internal@v8@@@23@_N@Z
; public: __cdecl v8::internal::compiler::JSGraph::JSGraph(class v8::internal::Isolate *__ptr64,class v8::internal::compiler::Graph *__ptr64,class v8::internal::compiler::CommonOperatorBuilder *__ptr64,class v8::internal::compiler::JSOperatorBuilder *__ptr64,class v8::internal::compiler::SimplifiedOperatorBuilder *__ptr64,class v8::internal::compiler::MachineOperatorBuilder *__ptr64)__ptr64 
??0JSGraph@compiler@internal@v8@@QEAA@PEAVIsolate@23@PEAVGraph@123@PEAVCommonOperatorBuilder@123@PEAVJSOperatorBuilder@123@PEAVSimplifiedOperatorBuilder@123@PEAVMachineOperatorBuilder@123@@Z
; public: __cdecl v8::internal::compiler::JSHeapBroker::JSHeapBroker(class v8::internal::Isolate *__ptr64,class v8::internal::Zone *__ptr64,bool)__ptr64 
??0JSHeapBroker@compiler@internal@v8@@QEAA@PEAVIsolate@23@PEAVZone@23@_N@Z
; public: __cdecl v8::internal::compiler::JSHeapCopyReducer::JSHeapCopyReducer(,class v8::internal::compiler::JSHeapCopyReducer *__ptr64 const)__ptr64 
??0JSHeapCopyReducer@compiler@internal@v8@@QEAA@$$QEAV0123@@Z
; public: __cdecl v8::internal::compiler::JSHeapCopyReducer::JSHeapCopyReducer(class v8::internal::compiler::JSHeapCopyReducer const &__ptr64 )__ptr64 
??0JSHeapCopyReducer@compiler@internal@v8@@QEAA@AEBV0123@@Z
; public: __cdecl v8::internal::compiler::JSHeapCopyReducer::JSHeapCopyReducer(class v8::internal::compiler::JSHeapBroker *__ptr64)__ptr64 
??0JSHeapCopyReducer@compiler@internal@v8@@QEAA@PEAVJSHeapBroker@123@@Z
; public: __cdecl v8::internal::compiler::JSIntrinsicLowering::JSIntrinsicLowering(class v8::internal::compiler::JSIntrinsicLowering const &__ptr64 )__ptr64 
??0JSIntrinsicLowering@compiler@internal@v8@@QEAA@AEBV0123@@Z
; public: __cdecl v8::internal::compiler::JSIntrinsicLowering::JSIntrinsicLowering(class v8::internal::compiler::AdvancedReducer::Editor *__ptr64,class v8::internal::compiler::JSGraph *__ptr64,class v8::internal::compiler::JSHeapBroker *__ptr64)__ptr64 
??0JSIntrinsicLowering@compiler@internal@v8@@QEAA@PEAVEditor@AdvancedReducer@123@PEAVJSGraph@123@PEAVJSHeapBroker@123@@Z
; public: __cdecl v8::internal::compiler::JSNativeContextSpecialization::JSNativeContextSpecialization(class v8::internal::compiler::AdvancedReducer::Editor *__ptr64,class v8::internal::compiler::JSGraph *__ptr64,class v8::internal::compiler::JSHeapBroker *__ptr64,class v8::base::<enum v8::internal::compiler::JSNativeContextSpecialization::Flag,int>,class v8::internal::compiler::CompilationDependencies *__ptr64,class v8::internal::Zone *__ptr64,class v8::internal::Zone *__ptr64)__ptr64 
??0JSNativeContextSpecialization@compiler@internal@v8@@QEAA@PEAVEditor@AdvancedReducer@123@PEAVJSGraph@123@PEAVJSHeapBroker@123@V?$Flags@W4Flag@JSNativeContextSpecialization@compiler@internal@v8@@H@base@3@PEAVCompilationDependencies@123@PEAVZone@23@5@Z
; public: __cdecl v8::internal::compiler::JSOperatorBuilder::JSOperatorBuilder(class v8::internal::Zone *__ptr64)__ptr64 
??0JSOperatorBuilder@compiler@internal@v8@@QEAA@PEAVZone@23@@Z
; public: __cdecl v8::internal::wasm::JSToWasmWrapperCompilationUnit::JSToWasmWrapperCompilationUnit(class v8::internal::Isolate *__ptr64,class v8::internal::wasm::WasmEngine *__ptr64,class v8::internal::<enum v8::internal::wasm::ValueType> *__ptr64,bool,struct v8::internal::wasm::WasmFeatures const &__ptr64 )__ptr64 
??0JSToWasmWrapperCompilationUnit@wasm@internal@v8@@QEAA@PEAVIsolate@23@PEAVWasmEngine@123@PEAV?$Signature@W4ValueType@wasm@internal@v8@@@23@_NAEBUWasmFeatures@123@@Z
; public: __cdecl v8::internal::compiler::JSTypedLowering::JSTypedLowering(class v8::internal::compiler::JSTypedLowering const &__ptr64 )__ptr64 
??0JSTypedLowering@compiler@internal@v8@@QEAA@AEBV0123@@Z
; public: __cdecl v8::internal::compiler::JSTypedLowering::JSTypedLowering(class v8::internal::compiler::AdvancedReducer::Editor *__ptr64,class v8::internal::compiler::JSGraph *__ptr64,class v8::internal::compiler::JSHeapBroker *__ptr64,class v8::internal::Zone *__ptr64)__ptr64 
??0JSTypedLowering@compiler@internal@v8@@QEAA@PEAVEditor@AdvancedReducer@123@PEAVJSGraph@123@PEAVJSHeapBroker@123@PEAVZone@23@@Z
; private: __cdecl v8::internal::wasm::JumpTableAssembler::JumpTableAssembler(unsigned __int64,int)__ptr64 
??0JumpTableAssembler@wasm@internal@v8@@AEAA@_KH@Z
; public: __cdecl v8::internal::interpreter::JumpTableTargetOffsets::JumpTableTargetOffsets(class v8::internal::interpreter::BytecodeArrayAccessor const *__ptr64,int,int,int)__ptr64 
??0JumpTableTargetOffsets@interpreter@internal@v8@@QEAA@PEBVBytecodeArrayAccessor@123@HHH@Z
; protected: __cdecl v8::internal::LayoutDescriptor::LayoutDescriptor(unsigned __int64)__ptr64 
??0LayoutDescriptor@internal@v8@@IEAA@_K@Z
; public: __cdecl v8::internal::LayoutDescriptor::LayoutDescriptor(void)__ptr64 
??0LayoutDescriptor@internal@v8@@QEAA@XZ
; public: __cdecl v8::internal::compiler::Linkage::Linkage(class v8::internal::compiler::CallDescriptor *__ptr64)__ptr64 
??0Linkage@compiler@internal@v8@@QEAA@PEAVCallDescriptor@123@@Z
; private: __cdecl v8::internal::compiler::LiveRange::LiveRange(int,enum v8::internal::MachineRepresentation,class v8::internal::compiler::TopLevelLiveRange *__ptr64)__ptr64 
??0LiveRange@compiler@internal@v8@@AEAA@HW4MachineRepresentation@23@PEAVTopLevelLiveRange@123@@Z
; public: __cdecl v8::internal::compiler::LoadElimination::LoadElimination(class v8::internal::compiler::AdvancedReducer::Editor *__ptr64,class v8::internal::compiler::JSGraph *__ptr64,class v8::internal::Zone *__ptr64)__ptr64 
??0LoadElimination@compiler@internal@v8@@QEAA@PEAVEditor@AdvancedReducer@123@PEAVJSGraph@123@PEAVZone@23@@Z
; private: __cdecl v8::internal::LocalAllocationBuffer::LocalAllocationBuffer(class v8::internal::Heap *__ptr64,class v8::internal::LinearAllocationArea)__ptr64 
??0LocalAllocationBuffer@internal@v8@@AEAA@PEAVHeap@12@VLinearAllocationArea@12@@Z
; public: __cdecl v8::internal::wasm::LocalDeclEncoder::LocalDeclEncoder(,class v8::internal::wasm::LocalDeclEncoder *__ptr64 const)__ptr64 
??0LocalDeclEncoder@wasm@internal@v8@@QEAA@$$QEAV0123@@Z
; public: __cdecl v8::internal::wasm::LocalDeclEncoder::LocalDeclEncoder(class v8::internal::wasm::LocalDeclEncoder const &__ptr64 )__ptr64 
??0LocalDeclEncoder@wasm@internal@v8@@QEAA@AEBV0123@@Z
; public: __cdecl v8::internal::wasm::LocalDeclEncoder::LocalDeclEncoder(class v8::internal::Zone *__ptr64,class v8::internal::<enum v8::internal::wasm::ValueType> *__ptr64)__ptr64 
??0LocalDeclEncoder@wasm@internal@v8@@QEAA@PEAVZone@23@PEAV?$Signature@W4ValueType@wasm@internal@v8@@@23@@Z
; public: __cdecl v8::internal::LocalEmbedderHeapTracer::LocalEmbedderHeapTracer(class v8::internal::Isolate *__ptr64)__ptr64 
??0LocalEmbedderHeapTracer@internal@v8@@QEAA@PEAVIsolate@12@@Z
; public: __cdecl v8::debug::Location::Location(int,int)__ptr64 
??0Location@debug@v8@@QEAA@HH@Z
; public: __cdecl v8::debug::Location::Location(void)__ptr64 
??0Location@debug@v8@@QEAA@XZ
; public: __cdecl v8::Location::Location(int,int)__ptr64 
??0Location@v8@@QEAA@HH@Z
; public: __cdecl v8::Locker::Locker(class v8::Isolate *__ptr64)__ptr64 
??0Locker@v8@@QEAA@PEAVIsolate@1@@Z
; private: __cdecl v8::internal::LookupIterator::LookupIterator(class v8::internal::Isolate *__ptr64,class v8::internal::<class v8::internal::Object>,class v8::internal::<class v8::internal::Name>,class v8::internal::<class v8::internal::Map>,class v8::internal::PropertyDetails,bool)__ptr64 
??0LookupIterator@internal@v8@@AEAA@PEAVIsolate@12@V?$Handle@VObject@internal@v8@@@12@V?$Handle@VName@internal@v8@@@12@V?$Handle@VMap@internal@v8@@@12@VPropertyDetails@12@_N@Z
; public: __cdecl v8::internal::LookupIterator::LookupIterator(class v8::internal::Isolate *__ptr64,class v8::internal::<class v8::internal::Object>,unsigned int,class v8::internal::<class v8::internal::JSReceiver>,enum v8::internal::LookupIterator::Configuration)__ptr64 
??0LookupIterator@internal@v8@@QEAA@PEAVIsolate@12@V?$Handle@VObject@internal@v8@@@12@IV?$Handle@VJSReceiver@internal@v8@@@12@W4Configuration@012@@Z
; public: __cdecl v8::internal::LookupIterator::LookupIterator(class v8::internal::Isolate *__ptr64,class v8::internal::<class v8::internal::Object>,unsigned int,enum v8::internal::LookupIterator::Configuration)__ptr64 
??0LookupIterator@internal@v8@@QEAA@PEAVIsolate@12@V?$Handle@VObject@internal@v8@@@12@IW4Configuration@012@@Z
; public: __cdecl v8::internal::LookupIterator::LookupIterator(class v8::internal::Isolate *__ptr64,class v8::internal::<class v8::internal::Object>,class v8::internal::<class v8::internal::Name>,class v8::internal::<class v8::internal::JSReceiver>,enum v8::internal::LookupIterator::Configuration)__ptr64 
??0LookupIterator@internal@v8@@QEAA@PEAVIsolate@12@V?$Handle@VObject@internal@v8@@@12@V?$Handle@VName@internal@v8@@@12@V?$Handle@VJSReceiver@internal@v8@@@12@W4Configuration@012@@Z
; public: __cdecl v8::internal::LookupIterator::LookupIterator(class v8::internal::Isolate *__ptr64,class v8::internal::<class v8::internal::Object>,class v8::internal::<class v8::internal::Name>,enum v8::internal::LookupIterator::Configuration)__ptr64 
??0LookupIterator@internal@v8@@QEAA@PEAVIsolate@12@V?$Handle@VObject@internal@v8@@@12@V?$Handle@VName@internal@v8@@@12@W4Configuration@012@@Z
; public: __cdecl v8::internal::LookupIterator::LookupIterator(class v8::internal::<class v8::internal::Object>,class v8::internal::<class v8::internal::Name>,class v8::internal::<class v8::internal::JSReceiver>,enum v8::internal::LookupIterator::Configuration)__ptr64 
??0LookupIterator@internal@v8@@QEAA@V?$Handle@VObject@internal@v8@@@12@V?$Handle@VName@internal@v8@@@12@V?$Handle@VJSReceiver@internal@v8@@@12@W4Configuration@012@@Z
; public: __cdecl v8::internal::interpreter::LoopBuilder::LoopBuilder(class v8::internal::interpreter::BytecodeArrayBuilder *__ptr64,class v8::internal::interpreter::BlockCoverageBuilder *__ptr64,class v8::internal::AstNode *__ptr64)__ptr64 
??0LoopBuilder@interpreter@internal@v8@@QEAA@PEAVBytecodeArrayBuilder@123@PEAVBlockCoverageBuilder@123@PEAVAstNode@23@@Z
; public: __cdecl v8::internal::compiler::LoopInfo::LoopInfo(,struct v8::internal::compiler::LoopInfo *__ptr64 const)__ptr64 
??0LoopInfo@compiler@internal@v8@@QEAA@$$QEAU0123@@Z
; public: __cdecl v8::internal::compiler::LoopInfo::LoopInfo(struct v8::internal::compiler::LoopInfo const &__ptr64 )__ptr64 
??0LoopInfo@compiler@internal@v8@@QEAA@AEBU0123@@Z
; public: __cdecl v8::internal::compiler::LoopInfo::LoopInfo(int,int,int,class v8::internal::Zone *__ptr64)__ptr64 
??0LoopInfo@compiler@internal@v8@@QEAA@HHHPEAVZone@23@@Z
; public: __cdecl v8::internal::compiler::LoopPeeler::LoopPeeler(class v8::internal::compiler::Graph *__ptr64,class v8::internal::compiler::CommonOperatorBuilder *__ptr64,class v8::internal::compiler::LoopTree *__ptr64,class v8::internal::Zone *__ptr64,class v8::internal::compiler::SourcePositionTable *__ptr64,class v8::internal::compiler::NodeOriginTable *__ptr64)__ptr64 
??0LoopPeeler@compiler@internal@v8@@QEAA@PEAVGraph@123@PEAVCommonOperatorBuilder@123@PEAVLoopTree@123@PEAVZone@23@PEAVSourcePositionTable@123@PEAVNodeOriginTable@123@@Z
; public: __cdecl v8::internal::compiler::MachineGraph::MachineGraph(class v8::internal::compiler::Graph *__ptr64,class v8::internal::compiler::CommonOperatorBuilder *__ptr64,class v8::internal::compiler::MachineOperatorBuilder *__ptr64)__ptr64 
??0MachineGraph@compiler@internal@v8@@QEAA@PEAVGraph@123@PEAVCommonOperatorBuilder@123@PEAVMachineOperatorBuilder@123@@Z
; public: __cdecl v8::internal::compiler::MachineOperatorBuilder::MachineOperatorBuilder(class v8::internal::Zone *__ptr64,enum v8::internal::MachineRepresentation,class v8::base::<enum v8::internal::compiler::MachineOperatorBuilder::Flag,unsigned int>,class v8::internal::compiler::MachineOperatorBuilder::AlignmentRequirements)__ptr64 
??0MachineOperatorBuilder@compiler@internal@v8@@QEAA@PEAVZone@23@W4MachineRepresentation@23@V?$Flags@W4Flag@MachineOperatorBuilder@compiler@internal@v8@@I@base@3@VAlignmentRequirements@0123@@Z
; public: __cdecl v8::internal::compiler::MachineOperatorReducer::MachineOperatorReducer(class v8::internal::compiler::MachineOperatorReducer const &__ptr64 )__ptr64 
??0MachineOperatorReducer@compiler@internal@v8@@QEAA@AEBV0123@@Z
; public: __cdecl v8::internal::compiler::MachineOperatorReducer::MachineOperatorReducer(class v8::internal::compiler::AdvancedReducer::Editor *__ptr64,class v8::internal::compiler::MachineGraph *__ptr64,bool)__ptr64 
??0MachineOperatorReducer@compiler@internal@v8@@QEAA@PEAVEditor@AdvancedReducer@123@PEAVMachineGraph@123@_N@Z
; public: __cdecl v8::internal::MacroAssembler::MacroAssembler(class v8::internal::Isolate *__ptr64,struct v8::internal::AssemblerOptions const &__ptr64 ,enum v8::internal::CodeObjectRequired)__ptr64 
??0MacroAssembler@internal@v8@@QEAA@PEAVIsolate@12@AEBUAssemblerOptions@12@W4CodeObjectRequired@12@@Z
; public: __cdecl v8::internal::MacroAssembler::MacroAssembler(class v8::internal::Isolate *__ptr64,struct v8::internal::AssemblerOptions const &__ptr64 ,enum v8::internal::CodeObjectRequired,class std::<class v8::internal::AssemblerBuffer,struct std::<class v8::internal::AssemblerBuffer>>)__ptr64 
??0MacroAssembler@internal@v8@@QEAA@PEAVIsolate@12@AEBUAssemblerOptions@12@W4CodeObjectRequired@12@V?$unique_ptr@VAssemblerBuffer@internal@v8@@U?$default_delete@VAssemblerBuffer@internal@v8@@@std@@@std@@@Z
; public: __cdecl v8::internal::MacroAssembler::MacroAssembler(class v8::internal::Isolate *__ptr64,enum v8::internal::CodeObjectRequired)__ptr64 
??0MacroAssembler@internal@v8@@QEAA@PEAVIsolate@12@W4CodeObjectRequired@12@@Z
; public: __cdecl v8::internal::MacroAssembler::MacroAssembler(class v8::internal::Isolate *__ptr64,enum v8::internal::CodeObjectRequired,class std::<class v8::internal::AssemblerBuffer,struct std::<class v8::internal::AssemblerBuffer>>)__ptr64 
??0MacroAssembler@internal@v8@@QEAA@PEAVIsolate@12@W4CodeObjectRequired@12@V?$unique_ptr@VAssemblerBuffer@internal@v8@@U?$default_delete@VAssemblerBuffer@internal@v8@@@std@@@std@@@Z
; public: __cdecl v8::internal::compiler::MapRef::MapRef(class v8::internal::compiler::JSHeapBroker *__ptr64,class v8::internal::compiler::ObjectData *__ptr64,bool)__ptr64 
??0MapRef@compiler@internal@v8@@QEAA@PEAVJSHeapBroker@123@PEAVObjectData@123@_N@Z
; public: __cdecl v8::internal::compiler::MapRef::MapRef(class v8::internal::compiler::JSHeapBroker *__ptr64,class v8::internal::<class v8::internal::Object>,bool)__ptr64 
??0MapRef@compiler@internal@v8@@QEAA@PEAVJSHeapBroker@123@V?$Handle@VObject@internal@v8@@@23@_N@Z
; public: __cdecl v8::internal::MemoryAllocator::MemoryAllocator(class v8::internal::Isolate *__ptr64,unsigned __int64,unsigned __int64)__ptr64 
??0MemoryAllocator@internal@v8@@QEAA@PEAVIsolate@12@_K1@Z
; public: __cdecl v8::base::OS::MemoryMappedFile::MemoryMappedFile(class v8::base::OS::MemoryMappedFile const &__ptr64 )__ptr64 
??0MemoryMappedFile@OS@base@v8@@QEAA@AEBV0123@@Z
; public: __cdecl v8::base::OS::MemoryMappedFile::MemoryMappedFile(void)__ptr64 
??0MemoryMappedFile@OS@base@v8@@QEAA@XZ
; public: __cdecl v8::internal::MemoryReducer::MemoryReducer(class v8::internal::Heap *__ptr64)__ptr64 
??0MemoryReducer@internal@v8@@QEAA@PEAVHeap@12@@Z
; public: __cdecl v8::internal::MessageLocation::MessageLocation(class v8::internal::<class v8::internal::Script>,int,int)__ptr64 
??0MessageLocation@internal@v8@@QEAA@V?$Handle@VScript@internal@v8@@@12@HH@Z
; public: __cdecl v8::internal::MessageLocation::MessageLocation(class v8::internal::<class v8::internal::Script>,int,int,class v8::internal::<class v8::internal::SharedFunctionInfo>)__ptr64 
??0MessageLocation@internal@v8@@QEAA@V?$Handle@VScript@internal@v8@@@12@HHV?$Handle@VSharedFunctionInfo@internal@v8@@@12@@Z
; public: __cdecl v8::internal::MessageLocation::MessageLocation(class v8::internal::<class v8::internal::Script>,class v8::internal::<class v8::internal::SharedFunctionInfo>,int)__ptr64 
??0MessageLocation@internal@v8@@QEAA@V?$Handle@VScript@internal@v8@@@12@V?$Handle@VSharedFunctionInfo@internal@v8@@@12@H@Z
; public: __cdecl v8::internal::MessageLocation::MessageLocation(void)__ptr64 
??0MessageLocation@internal@v8@@QEAA@XZ
; private: __cdecl v8::internal::MicrotaskQueue::MicrotaskQueue(void)__ptr64 
??0MicrotaskQueue@internal@v8@@AEAA@XZ
; public: __cdecl v8::internal::MicrotaskQueue::MicrotaskQueue(class v8::internal::MicrotaskQueue const &__ptr64 )__ptr64 
??0MicrotaskQueue@internal@v8@@QEAA@AEBV012@@Z
; private: __cdecl v8::MicrotaskQueue::MicrotaskQueue(void)__ptr64 
??0MicrotaskQueue@v8@@AEAA@XZ
; public: __cdecl v8::MicrotaskQueue::MicrotaskQueue(class v8::MicrotaskQueue const &__ptr64 )__ptr64 
??0MicrotaskQueue@v8@@QEAA@AEBV01@@Z
; public: __cdecl v8::MicrotasksScope::MicrotasksScope(class v8::Isolate *__ptr64,class v8::MicrotaskQueue *__ptr64,enum v8::MicrotasksScope::Type)__ptr64 
??0MicrotasksScope@v8@@QEAA@PEAVIsolate@1@PEAVMicrotaskQueue@1@W4Type@01@@Z
; public: __cdecl v8::MicrotasksScope::MicrotasksScope(class v8::Isolate *__ptr64,enum v8::MicrotasksScope::Type)__ptr64 
??0MicrotasksScope@v8@@QEAA@PEAVIsolate@1@W4Type@01@@Z
; public: __cdecl v8::internal::wasm::ModuleWireBytes::ModuleWireBytes(unsigned char const *__ptr64,unsigned char const *__ptr64)__ptr64 
??0ModuleWireBytes@wasm@internal@v8@@QEAA@PEBE0@Z
; public: __cdecl v8::internal::wasm::ModuleWireBytes::ModuleWireBytes(class v8::internal::<unsigned char const>)__ptr64 
??0ModuleWireBytes@wasm@internal@v8@@QEAA@V?$Vector@$$CBE@23@@Z
; public: __cdecl v8::internal::compiler::MoveOperands::MoveOperands(class v8::internal::compiler::InstructionOperand const &__ptr64 ,class v8::internal::compiler::InstructionOperand const &__ptr64 )__ptr64 
??0MoveOperands@compiler@internal@v8@@QEAA@AEBVInstructionOperand@123@0@Z
; public: __cdecl v8::internal::compiler::MoveOptimizer::MoveOptimizer(class v8::internal::Zone *__ptr64,class v8::internal::compiler::InstructionSequence *__ptr64)__ptr64 
??0MoveOptimizer@compiler@internal@v8@@QEAA@PEAVZone@23@PEAVInstructionSequence@123@@Z
; public: __cdecl node::MultiIsolatePlatform::MultiIsolatePlatform(class node::MultiIsolatePlatform const &__ptr64 )__ptr64 
??0MultiIsolatePlatform@node@@QEAA@AEBV01@@Z
; public: __cdecl node::MultiIsolatePlatform::MultiIsolatePlatform(void)__ptr64 
??0MultiIsolatePlatform@node@@QEAA@XZ
; public: __cdecl v8::base::Mutex::Mutex(void)__ptr64 
??0Mutex@base@v8@@QEAA@XZ
; public: __cdecl disasm::NameConverter::NameConverter(void)__ptr64 
??0NameConverter@disasm@@QEAA@XZ
; protected: __cdecl v8::internal::NameDictionary::NameDictionary(unsigned __int64)__ptr64 
??0NameDictionary@internal@v8@@IEAA@_K@Z
; public: __cdecl v8::internal::NameDictionary::NameDictionary(void)__ptr64 
??0NameDictionary@internal@v8@@QEAA@XZ
; private: __cdecl v8::internal::wasm::NativeModule::NativeModule(class v8::internal::wasm::WasmEngine *__ptr64,struct v8::internal::wasm::WasmFeatures const &__ptr64 ,bool,class v8::internal::VirtualMemory,class std::<struct v8::internal::wasm::WasmModule const>,class std::<class v8::internal::Counters>,class std::<class v8::internal::wasm::NativeModule> *__ptr64)__ptr64 
??0NativeModule@wasm@internal@v8@@AEAA@PEAVWasmEngine@123@AEBUWasmFeatures@123@_NVVirtualMemory@23@V?$shared_ptr@$$CBUWasmModule@wasm@internal@v8@@@std@@V?$shared_ptr@VCounters@internal@v8@@@8@PEAV?$shared_ptr@VNativeModule@wasm@internal@v8@@@8@@Z
; public: __cdecl v8::internal::wasm::NativeModuleDeserializer::NativeModuleDeserializer(class v8::internal::wasm::NativeModule *__ptr64)__ptr64 
??0NativeModuleDeserializer@wasm@internal@v8@@QEAA@PEAVNativeModule@123@@Z
; public: __cdecl v8::internal::wasm::NativeModuleSerializer::NativeModuleSerializer(class v8::internal::wasm::NativeModule const *__ptr64,class v8::internal::<class v8::internal::wasm::WasmCode *__ptr64 const>)__ptr64 
??0NativeModuleSerializer@wasm@internal@v8@@QEAA@PEBVNativeModule@123@V?$Vector@QEAVWasmCode@wasm@internal@v8@@@23@@Z
; public: __cdecl v8::internal::NewSpace::NewSpace(class v8::internal::Heap *__ptr64,class v8::PageAllocator *__ptr64,unsigned __int64,unsigned __int64)__ptr64 
??0NewSpace@internal@v8@@QEAA@PEAVHeap@12@PEAVPageAllocator@2@_K2@Z
; private: __cdecl v8::internal::compiler::Node::Node(unsigned int,class v8::internal::compiler::Operator const *__ptr64,int,int)__ptr64 
??0Node@compiler@internal@v8@@AEAA@IPEBVOperator@123@HH@Z
; public: __cdecl v8::internal::compiler::NodeOriginTable::NodeOriginTable(class v8::internal::compiler::Graph *__ptr64)__ptr64 
??0NodeOriginTable@compiler@internal@v8@@QEAA@PEAVGraph@123@@Z
; public: __cdecl v8::internal::OFStream::OFStream(struct _iobuf *__ptr64)__ptr64 
??0OFStream@internal@v8@@QEAA@PEAU_iobuf@@@Z
; public: __cdecl v8::internal::OFStreamBase::OFStreamBase(class v8::internal::OFStreamBase const &__ptr64 )__ptr64 
??0OFStreamBase@internal@v8@@QEAA@AEBV012@@Z
; public: __cdecl v8::internal::OFStreamBase::OFStreamBase(struct _iobuf *__ptr64)__ptr64 
??0OFStreamBase@internal@v8@@QEAA@PEAU_iobuf@@@Z
; protected: __cdecl v8::internal::ObjectHashSet::ObjectHashSet(unsigned __int64)__ptr64 
??0ObjectHashSet@internal@v8@@IEAA@_K@Z
; public: __cdecl v8::internal::ObjectHashSet::ObjectHashSet(void)__ptr64 
??0ObjectHashSet@internal@v8@@QEAA@XZ
; protected: __cdecl v8::internal::ObjectHashTable::ObjectHashTable(unsigned __int64)__ptr64 
??0ObjectHashTable@internal@v8@@IEAA@_K@Z
; public: __cdecl v8::internal::ObjectHashTable::ObjectHashTable(void)__ptr64 
??0ObjectHashTable@internal@v8@@QEAA@XZ
; public: __cdecl v8::internal::ObjectIterator::ObjectIterator(class v8::internal::ObjectIterator const &__ptr64 )__ptr64 
??0ObjectIterator@internal@v8@@QEAA@AEBV012@@Z
; public: __cdecl v8::internal::ObjectIterator::ObjectIterator(void)__ptr64 
??0ObjectIterator@internal@v8@@QEAA@XZ
; public: __cdecl v8::internal::compiler::ObjectRef::ObjectRef(class v8::internal::compiler::JSHeapBroker *__ptr64,class v8::internal::compiler::ObjectData *__ptr64,bool)__ptr64 
??0ObjectRef@compiler@internal@v8@@QEAA@PEAVJSHeapBroker@123@PEAVObjectData@123@_N@Z
; public: __cdecl v8::internal::compiler::ObjectRef::ObjectRef(class v8::internal::compiler::JSHeapBroker *__ptr64,class v8::internal::<class v8::internal::Object>,bool)__ptr64 
??0ObjectRef@compiler@internal@v8@@QEAA@PEAVJSHeapBroker@123@V?$Handle@VObject@internal@v8@@@23@_N@Z
; public: __cdecl v8::internal::Operand::Operand(class v8::internal::Label *__ptr64,int)__ptr64 
??0Operand@internal@v8@@QEAA@PEAVLabel@12@H@Z
; public: __cdecl v8::internal::Operand::Operand(class v8::internal::Operand,int)__ptr64 
??0Operand@internal@v8@@QEAA@V012@H@Z
; public: __cdecl v8::internal::Operand::Operand(class v8::internal::Register,class v8::internal::Register,enum v8::internal::ScaleFactor,int)__ptr64 
??0Operand@internal@v8@@QEAA@VRegister@12@0W4ScaleFactor@12@H@Z
; public: __cdecl v8::internal::Operand::Operand(class v8::internal::Register,int)__ptr64 
??0Operand@internal@v8@@QEAA@VRegister@12@H@Z
; public: __cdecl v8::internal::Operand::Operand(class v8::internal::Register,enum v8::internal::ScaleFactor,int)__ptr64 
??0Operand@internal@v8@@QEAA@VRegister@12@W4ScaleFactor@12@H@Z
; public: __cdecl v8::internal::compiler::OperationTyper::OperationTyper(class v8::internal::compiler::JSHeapBroker *__ptr64,class v8::internal::Zone *__ptr64)__ptr64 
??0OperationTyper@compiler@internal@v8@@QEAA@PEAVJSHeapBroker@123@PEAVZone@23@@Z
; public: __cdecl v8::internal::compiler::Operator::Operator(unsigned short,class v8::base::<enum v8::internal::compiler::Operator::Property,unsigned char>,char const *__ptr64,unsigned __int64,unsigned __int64,unsigned __int64,unsigned __int64,unsigned __int64,unsigned __int64)__ptr64 
??0Operator@compiler@internal@v8@@QEAA@GV?$Flags@W4Property@Operator@compiler@internal@v8@@E@base@3@PEBD_K22222@Z
; private: __cdecl v8::internal::OptimizedCompilationInfo::OptimizedCompilationInfo(enum v8::internal::Code::Kind,class v8::internal::Zone *__ptr64)__ptr64 
??0OptimizedCompilationInfo@internal@v8@@AEAA@W4Kind@Code@12@PEAVZone@12@@Z
; public: __cdecl v8::internal::OptimizedCompilationInfo::OptimizedCompilationInfo(class v8::internal::Zone *__ptr64,class v8::internal::Isolate *__ptr64,class v8::internal::<class v8::internal::SharedFunctionInfo>,class v8::internal::<class v8::internal::JSFunction>)__ptr64 
??0OptimizedCompilationInfo@internal@v8@@QEAA@PEAVZone@12@PEAVIsolate@12@V?$Handle@VSharedFunctionInfo@internal@v8@@@12@V?$Handle@VJSFunction@internal@v8@@@12@@Z
; public: __cdecl v8::internal::OptimizedCompilationInfo::OptimizedCompilationInfo(class v8::internal::<char const>,class v8::internal::Zone *__ptr64,enum v8::internal::Code::Kind)__ptr64 
??0OptimizedCompilationInfo@internal@v8@@QEAA@V?$Vector@$$CBD@12@PEAVZone@12@W4Kind@Code@12@@Z
; public: __cdecl v8::internal::OptimizingCompileDispatcher::OptimizingCompileDispatcher(class v8::internal::Isolate *__ptr64)__ptr64 
??0OptimizingCompileDispatcher@internal@v8@@QEAA@PEAVIsolate@12@@Z
; protected: __cdecl v8::internal::OrderedHashMap::OrderedHashMap(unsigned __int64)__ptr64 
??0OrderedHashMap@internal@v8@@IEAA@_K@Z
; public: __cdecl v8::internal::OrderedHashMap::OrderedHashMap(void)__ptr64 
??0OrderedHashMap@internal@v8@@QEAA@XZ
; protected: __cdecl v8::internal::OrderedHashSet::OrderedHashSet(unsigned __int64)__ptr64 
??0OrderedHashSet@internal@v8@@IEAA@_K@Z
; public: __cdecl v8::internal::OrderedHashSet::OrderedHashSet(void)__ptr64 
??0OrderedHashSet@internal@v8@@QEAA@XZ
; public: __cdecl v8::OutputStream::OutputStream(class v8::OutputStream const &__ptr64 )__ptr64 
??0OutputStream@v8@@QEAA@AEBV01@@Z
; public: __cdecl v8::OutputStream::OutputStream(void)__ptr64 
??0OutputStream@v8@@QEAA@XZ
; public: __cdecl v8::base::PageAllocator::PageAllocator(class v8::base::PageAllocator const &__ptr64 )__ptr64 
??0PageAllocator@base@v8@@QEAA@AEBV012@@Z
; public: __cdecl v8::base::PageAllocator::PageAllocator(void)__ptr64 
??0PageAllocator@base@v8@@QEAA@XZ
; public: __cdecl v8::internal::PagedSpace::PagedSpace(class v8::internal::Heap *__ptr64,enum v8::internal::AllocationSpace,enum v8::internal::Executability,class v8::internal::FreeList *__ptr64)__ptr64 
??0PagedSpace@internal@v8@@QEAA@PEAVHeap@12@W4AllocationSpace@12@W4Executability@12@PEAVFreeList@12@@Z
; public: __cdecl v8::internal::PagedSpaceIterator::PagedSpaceIterator(class v8::internal::Heap *__ptr64)__ptr64 
??0PagedSpaceIterator@internal@v8@@QEAA@PEAVHeap@12@@Z
; public: __cdecl v8::internal::PagedSpaceObjectIterator::PagedSpaceObjectIterator(,class v8::internal::PagedSpaceObjectIterator *__ptr64 const)__ptr64 
??0PagedSpaceObjectIterator@internal@v8@@QEAA@$$QEAV012@@Z
; public: __cdecl v8::internal::PagedSpaceObjectIterator::PagedSpaceObjectIterator(class v8::internal::PagedSpaceObjectIterator const &__ptr64 )__ptr64 
??0PagedSpaceObjectIterator@internal@v8@@QEAA@AEBV012@@Z
; public: __cdecl v8::internal::PagedSpaceObjectIterator::PagedSpaceObjectIterator(class v8::internal::Page *__ptr64)__ptr64 
??0PagedSpaceObjectIterator@internal@v8@@QEAA@PEAVPage@12@@Z
; public: __cdecl v8::internal::PagedSpaceObjectIterator::PagedSpaceObjectIterator(class v8::internal::PagedSpace *__ptr64)__ptr64 
??0PagedSpaceObjectIterator@internal@v8@@QEAA@PEAVPagedSpace@12@@Z
; public: __cdecl v8::internal::compiler::ParallelMove::ParallelMove(class v8::internal::Zone *__ptr64)__ptr64 
??0ParallelMove@compiler@internal@v8@@QEAA@PEAVZone@23@@Z
; public: __cdecl v8::internal::ParseInfo::ParseInfo(class v8::internal::AccountingAllocator *__ptr64)__ptr64 
??0ParseInfo@internal@v8@@QEAA@PEAVAccountingAllocator@12@@Z
; public: __cdecl v8::internal::ParseInfo::ParseInfo(class v8::internal::Isolate *__ptr64)__ptr64 
??0ParseInfo@internal@v8@@QEAA@PEAVIsolate@12@@Z
; public: __cdecl v8::internal::ParseInfo::ParseInfo(class v8::internal::Isolate *__ptr64,class v8::internal::AccountingAllocator *__ptr64)__ptr64 
??0ParseInfo@internal@v8@@QEAA@PEAVIsolate@12@PEAVAccountingAllocator@12@@Z
; public: __cdecl v8::internal::ParseInfo::ParseInfo(class v8::internal::Isolate *__ptr64,class v8::internal::<class v8::internal::Script>)__ptr64 
??0ParseInfo@internal@v8@@QEAA@PEAVIsolate@12@V?$Handle@VScript@internal@v8@@@12@@Z
; public: __cdecl v8::internal::ParseInfo::ParseInfo(class v8::internal::Isolate *__ptr64,class v8::internal::<class v8::internal::SharedFunctionInfo>)__ptr64 
??0ParseInfo@internal@v8@@QEAA@PEAVIsolate@12@V?$Handle@VSharedFunctionInfo@internal@v8@@@12@@Z
; public: __cdecl v8::internal::Parser::Parser(class v8::internal::ParseInfo *__ptr64)__ptr64 
??0Parser@internal@v8@@QEAA@PEAVParseInfo@12@@Z
; private: __cdecl v8::internal::PartialDeserializer::PartialDeserializer(class v8::internal::SnapshotData const *__ptr64)__ptr64 
??0PartialDeserializer@internal@v8@@AEAA@PEBVSnapshotData@12@@Z
; public: __cdecl v8::internal::PartialSerializer::PartialSerializer(class v8::internal::Isolate *__ptr64,class v8::internal::StartupSerializer *__ptr64,struct v8::SerializeInternalFieldsCallback)__ptr64 
??0PartialSerializer@internal@v8@@QEAA@PEAVIsolate@12@PEAVStartupSerializer@12@USerializeInternalFieldsCallback@2@@Z
; public: __cdecl v8::internal::PauseAllocationObserversScope::PauseAllocationObserversScope(class v8::internal::Heap *__ptr64)__ptr64 
??0PauseAllocationObserversScope@internal@v8@@QEAA@PEAVHeap@12@@Z
; public: __cdecl v8::PersistentHandleVisitor::PersistentHandleVisitor(class v8::PersistentHandleVisitor const &__ptr64 )__ptr64 
??0PersistentHandleVisitor@v8@@QEAA@AEBV01@@Z
; public: __cdecl v8::PersistentHandleVisitor::PersistentHandleVisitor(void)__ptr64 
??0PersistentHandleVisitor@v8@@QEAA@XZ
; public: __cdecl v8::internal::compiler::PhiInstruction::PhiInstruction(,class v8::internal::compiler::PhiInstruction *__ptr64 const)__ptr64 
??0PhiInstruction@compiler@internal@v8@@QEAA@$$QEAV0123@@Z
; public: __cdecl v8::internal::compiler::PhiInstruction::PhiInstruction(class v8::internal::compiler::PhiInstruction const &__ptr64 )__ptr64 
??0PhiInstruction@compiler@internal@v8@@QEAA@AEBV0123@@Z
; public: __cdecl v8::internal::compiler::PhiInstruction::PhiInstruction(class v8::internal::Zone *__ptr64,int,unsigned __int64)__ptr64 
??0PhiInstruction@compiler@internal@v8@@QEAA@PEAVZone@23@H_K@Z
; public: __cdecl v8::internal::PreparseDataBuilder::PreparseDataBuilder(class v8::internal::Zone *__ptr64,class v8::internal::PreparseDataBuilder *__ptr64,class std::<void *__ptr64,class std::<void *__ptr64>> *__ptr64)__ptr64 
??0PreparseDataBuilder@internal@v8@@QEAA@PEAVZone@12@PEAV012@PEAV?$vector@PEAXV?$allocator@PEAX@std@@@std@@@Z
; public: __cdecl v8::internal::LocalEmbedderHeapTracer::ProcessingScope::ProcessingScope(class v8::internal::LocalEmbedderHeapTracer::ProcessingScope const &__ptr64 )__ptr64 
??0ProcessingScope@LocalEmbedderHeapTracer@internal@v8@@QEAA@AEBV0123@@Z
; public: __cdecl v8::internal::LocalEmbedderHeapTracer::ProcessingScope::ProcessingScope(class v8::internal::LocalEmbedderHeapTracer *__ptr64)__ptr64 
??0ProcessingScope@LocalEmbedderHeapTracer@internal@v8@@QEAA@PEAV123@@Z
; public: __cdecl v8::internal::ProfileGenerator::ProfileGenerator(class v8::internal::CpuProfilesCollection *__ptr64,class v8::internal::CodeMap *__ptr64)__ptr64 
??0ProfileGenerator@internal@v8@@QEAA@PEAVCpuProfilesCollection@12@PEAVCodeMap@12@@Z
; public: __cdecl v8::internal::ProfileNode::ProfileNode(class v8::internal::ProfileTree *__ptr64,class v8::internal::CodeEntry *__ptr64,class v8::internal::ProfileNode *__ptr64,int)__ptr64 
??0ProfileNode@internal@v8@@QEAA@PEAVProfileTree@12@PEAVCodeEntry@12@PEAV012@H@Z
; public: __cdecl v8::internal::ProfileTree::ProfileTree(class v8::internal::Isolate *__ptr64)__ptr64 
??0ProfileTree@internal@v8@@QEAA@PEAVIsolate@12@@Z
; public: __cdecl v8::internal::ProfilerCodeObserver::ProfilerCodeObserver(class v8::internal::Isolate *__ptr64)__ptr64 
??0ProfilerCodeObserver@internal@v8@@QEAA@PEAVIsolate@12@@Z
; protected: __cdecl v8::internal::ProfilerEventsProcessor::ProfilerEventsProcessor(class v8::internal::Isolate *__ptr64,class v8::internal::ProfileGenerator *__ptr64,class v8::internal::ProfilerCodeObserver *__ptr64)__ptr64 
??0ProfilerEventsProcessor@internal@v8@@IEAA@PEAVIsolate@12@PEAVProfileGenerator@12@PEAVProfilerCodeObserver@12@@Z
; public: __cdecl v8::internal::ProfilerListener::ProfilerListener(class v8::internal::Isolate *__ptr64,class v8::internal::CodeEventObserver *__ptr64,enum v8::CpuProfilingNamingMode)__ptr64 
??0ProfilerListener@internal@v8@@QEAA@PEAVIsolate@12@PEAVCodeEventObserver@12@W4CpuProfilingNamingMode@2@@Z
; public: __cdecl v8::PropertyDescriptor::PropertyDescriptor(class v8::<class v8::Value>,class v8::<class v8::Value>)__ptr64 
??0PropertyDescriptor@v8@@QEAA@V?$Local@VValue@v8@@@1@0@Z
; public: __cdecl v8::PropertyDescriptor::PropertyDescriptor(class v8::<class v8::Value>)__ptr64 
??0PropertyDescriptor@v8@@QEAA@V?$Local@VValue@v8@@@1@@Z
; public: __cdecl v8::PropertyDescriptor::PropertyDescriptor(class v8::<class v8::Value>,bool)__ptr64 
??0PropertyDescriptor@v8@@QEAA@V?$Local@VValue@v8@@@1@_N@Z
; public: __cdecl v8::PropertyDescriptor::PropertyDescriptor(void)__ptr64 
??0PropertyDescriptor@v8@@QEAA@XZ
; public: __cdecl v8::base::RandomNumberGenerator::RandomNumberGenerator(void)__ptr64 
??0RandomNumberGenerator@base@v8@@QEAA@XZ
; public: __cdecl v8::base::RandomNumberGenerator::RandomNumberGenerator(__int64)__ptr64 
??0RandomNumberGenerator@base@v8@@QEAA@_J@Z
; public: __cdecl v8::internal::compiler::RawMachineAssembler::RawMachineAssembler(class v8::internal::Isolate *__ptr64,class v8::internal::compiler::Graph *__ptr64,class v8::internal::compiler::CallDescriptor *__ptr64,enum v8::internal::MachineRepresentation,class v8::base::<enum v8::internal::compiler::MachineOperatorBuilder::Flag,unsigned int>,class v8::internal::compiler::MachineOperatorBuilder::AlignmentRequirements,enum v8::internal::PoisoningMitigationLevel)__ptr64 
??0RawMachineAssembler@compiler@internal@v8@@QEAA@PEAVIsolate@23@PEAVGraph@123@PEAVCallDescriptor@123@W4MachineRepresentation@23@V?$Flags@W4Flag@MachineOperatorBuilder@compiler@internal@v8@@I@base@3@VAlignmentRequirements@MachineOperatorBuilder@123@W4PoisoningMitigationLevel@23@@Z
; public: __cdecl v8::internal::compiler::RawMachineLabel::RawMachineLabel(enum v8::internal::compiler::RawMachineLabel::Type)__ptr64 
??0RawMachineLabel@compiler@internal@v8@@QEAA@W4Type@0123@@Z
; public: __cdecl v8::internal::ReadOnlyHeapObjectIterator::ReadOnlyHeapObjectIterator(class v8::internal::ReadOnlyHeap *__ptr64)__ptr64 
??0ReadOnlyHeapObjectIterator@internal@v8@@QEAA@PEAVReadOnlyHeap@12@@Z
; public: __cdecl v8::internal::ReadOnlyHeapObjectIterator::ReadOnlyHeapObjectIterator(class v8::internal::ReadOnlySpace *__ptr64)__ptr64 
??0ReadOnlyHeapObjectIterator@internal@v8@@QEAA@PEAVReadOnlySpace@12@@Z
; public: __cdecl v8::internal::ReadOnlySerializer::ReadOnlySerializer(class v8::internal::Isolate *__ptr64)__ptr64 
??0ReadOnlySerializer@internal@v8@@QEAA@PEAVIsolate@12@@Z
; public: __cdecl v8::base::RecursiveMutex::RecursiveMutex(void)__ptr64 
??0RecursiveMutex@base@v8@@QEAA@XZ
; public: __cdecl v8::internal::compiler::Reducer::Reducer(class v8::internal::compiler::Reducer const &__ptr64 )__ptr64 
??0Reducer@compiler@internal@v8@@QEAA@AEBV0123@@Z
; public: __cdecl v8::internal::compiler::Reducer::Reducer(void)__ptr64 
??0Reducer@compiler@internal@v8@@QEAA@XZ
; public: __cdecl v8::internal::compiler::RedundancyElimination::RedundancyElimination(class v8::internal::compiler::AdvancedReducer::Editor *__ptr64,class v8::internal::Zone *__ptr64)__ptr64 
??0RedundancyElimination@compiler@internal@v8@@QEAA@PEAVEditor@AdvancedReducer@123@PEAVZone@23@@Z
; public: __cdecl v8::internal::RegExpBytecodeGenerator::RegExpBytecodeGenerator(class v8::internal::Isolate *__ptr64,class v8::internal::Zone *__ptr64)__ptr64 
??0RegExpBytecodeGenerator@internal@v8@@QEAA@PEAVIsolate@12@PEAVZone@12@@Z
; public: __cdecl v8::internal::RegExpMacroAssemblerX64::RegExpMacroAssemblerX64(class v8::internal::Isolate *__ptr64,class v8::internal::Zone *__ptr64,enum v8::internal::NativeRegExpMacroAssembler::Mode,int)__ptr64 
??0RegExpMacroAssemblerX64@internal@v8@@QEAA@PEAVIsolate@12@PEAVZone@12@W4Mode@NativeRegExpMacroAssembler@12@H@Z
; protected: __cdecl v8::internal::RegExpMatchInfo::RegExpMatchInfo(unsigned __int64)__ptr64 
??0RegExpMatchInfo@internal@v8@@IEAA@_K@Z
; public: __cdecl v8::internal::RegExpMatchInfo::RegExpMatchInfo(void)__ptr64 
??0RegExpMatchInfo@internal@v8@@QEAA@XZ
; public: __cdecl v8::internal::RegExpParser::RegExpParser(class v8::internal::FlatStringReader *__ptr64,class v8::internal::<class v8::internal::String> *__ptr64,class v8::base::<enum v8::internal::JSRegExp::Flag,int>,class v8::internal::Isolate *__ptr64,class v8::internal::Zone *__ptr64)__ptr64 
??0RegExpParser@internal@v8@@QEAA@PEAVFlatStringReader@12@PEAV?$Handle@VString@internal@v8@@@12@V?$Flags@W4Flag@JSRegExp@internal@v8@@H@base@2@PEAVIsolate@12@PEAVZone@12@@Z
; public: __cdecl v8::base::RegionAllocator::RegionAllocator(unsigned __int64,unsigned __int64,unsigned __int64)__ptr64 
??0RegionAllocator@base@v8@@QEAA@_K00@Z
; public: __cdecl v8::internal::interpreter::Register::Register(int)__ptr64 
??0Register@interpreter@internal@v8@@QEAA@H@Z
; public: __cdecl v8::internal::RegisterConfiguration::RegisterConfiguration(class v8::internal::RegisterConfiguration const &__ptr64 )__ptr64 
??0RegisterConfiguration@internal@v8@@QEAA@AEBV012@@Z
; public: __cdecl v8::internal::RegisterConfiguration::RegisterConfiguration(int,int,int,int,int const *__ptr64,int const *__ptr64,enum v8::internal::RegisterConfiguration::AliasingKind)__ptr64 
??0RegisterConfiguration@internal@v8@@QEAA@HHHHPEBH0W4AliasingKind@012@@Z
; private: __cdecl v8::internal::RelocIterator::RelocIterator(class v8::internal::Code,unsigned __int64,unsigned __int64,unsigned char const *__ptr64,unsigned char const *__ptr64,int)__ptr64 
??0RelocIterator@internal@v8@@AEAA@VCode@12@_K1PEBE2H@Z
; public: __cdecl v8::internal::RelocIterator::RelocIterator(class v8::internal::CodeDesc const &__ptr64 ,int)__ptr64 
??0RelocIterator@internal@v8@@QEAA@AEBVCodeDesc@12@H@Z
; public: __cdecl v8::internal::RelocIterator::RelocIterator(class v8::internal::EmbeddedData *__ptr64,class v8::internal::Code,int)__ptr64 
??0RelocIterator@internal@v8@@QEAA@PEAVEmbeddedData@12@VCode@12@H@Z
; public: __cdecl v8::internal::RelocIterator::RelocIterator(class v8::internal::<unsigned char>,class v8::internal::<unsigned char const>,unsigned __int64,int)__ptr64 
??0RelocIterator@internal@v8@@QEAA@V?$Vector@E@12@V?$Vector@$$CBE@12@_KH@Z
; public: __cdecl v8::internal::RelocIterator::RelocIterator(class v8::internal::Code,int)__ptr64 
??0RelocIterator@internal@v8@@QEAA@VCode@12@H@Z
; public: __cdecl v8::internal::RelocIterator::RelocIterator(class v8::internal::Code,class v8::internal::ByteArray,int)__ptr64 
??0RelocIterator@internal@v8@@QEAA@VCode@12@VByteArray@12@H@Z
; public: __cdecl v8::internal::RelocIterator::RelocIterator(class v8::internal::CodeReference,int)__ptr64 
??0RelocIterator@internal@v8@@QEAA@VCodeReference@12@H@Z
; public: __cdecl v8_inspector::protocol::Runtime::API::RemoteObject::RemoteObject(,class v8_inspector::protocol::Runtime::API::RemoteObject *__ptr64 const)__ptr64 
??0RemoteObject@API@Runtime@protocol@v8_inspector@@QEAA@$$QEAV01234@@Z
; public: __cdecl v8_inspector::protocol::Runtime::API::RemoteObject::RemoteObject(class v8_inspector::protocol::Runtime::API::RemoteObject const &__ptr64 )__ptr64 
??0RemoteObject@API@Runtime@protocol@v8_inspector@@QEAA@AEBV01234@@Z
; public: __cdecl v8_inspector::protocol::Runtime::API::RemoteObject::RemoteObject(void)__ptr64 
??0RemoteObject@API@Runtime@protocol@v8_inspector@@QEAA@XZ
; public: __cdecl v8::internal::compiler::RepresentationChanger::RepresentationChanger(class v8::internal::compiler::JSGraph *__ptr64,class v8::internal::compiler::JSHeapBroker *__ptr64)__ptr64 
??0RepresentationChanger@compiler@internal@v8@@QEAA@PEAVJSGraph@123@PEAVJSHeapBroker@123@@Z
; public: __cdecl v8::ResourceConstraints::ResourceConstraints(void)__ptr64 
??0ResourceConstraints@v8@@QEAA@XZ
; private: __cdecl v8::internal::compiler::ResumeJumpTarget::ResumeJumpTarget(int,int,int)__ptr64 
??0ResumeJumpTarget@compiler@internal@v8@@AEAA@HHH@Z
; public: __cdecl v8::internal::RuntimeCallStats::RuntimeCallStats(void)__ptr64 
??0RuntimeCallStats@internal@v8@@QEAA@XZ
; public: __cdecl v8::Isolate::SafeForTerminationScope::SafeForTerminationScope(class v8::Isolate *__ptr64)__ptr64 
??0SafeForTerminationScope@Isolate@v8@@QEAA@PEAV12@@Z
; public: __cdecl v8::sampler::Sampler::Sampler(class v8::Isolate *__ptr64)__ptr64 
??0Sampler@sampler@v8@@QEAA@PEAVIsolate@2@@Z
; public: __cdecl v8::internal::SamplingEventsProcessor::SamplingEventsProcessor(class v8::internal::Isolate *__ptr64,class v8::internal::ProfileGenerator *__ptr64,class v8::internal::ProfilerCodeObserver *__ptr64,class v8::base::TimeDelta,bool)__ptr64 
??0SamplingEventsProcessor@internal@v8@@QEAA@PEAVIsolate@12@PEAVProfileGenerator@12@PEAVProfilerCodeObserver@12@VTimeDelta@base@2@_N@Z
; public: __cdecl v8::internal::SaveAndSwitchContext::SaveAndSwitchContext(class v8::internal::Isolate *__ptr64,class v8::internal::Context)__ptr64 
??0SaveAndSwitchContext@internal@v8@@QEAA@PEAVIsolate@12@VContext@12@@Z
; public: __cdecl v8::internal::SaveContext::SaveContext(class v8::internal::Isolate *__ptr64)__ptr64 
??0SaveContext@internal@v8@@QEAA@PEAVIsolate@12@@Z
; public: __cdecl v8::internal::Scanner::Scanner(class v8::internal::Utf16CharacterStream *__ptr64,bool)__ptr64 
??0Scanner@internal@v8@@QEAA@PEAVUtf16CharacterStream@12@_N@Z
; public: __cdecl v8::internal::ScavengeJob::ScavengeJob(void)__ptr64 
??0ScavengeJob@internal@v8@@QEAA@XZ
; public: __cdecl v8::internal::compiler::Schedule::Schedule(class v8::internal::Zone *__ptr64,unsigned __int64)__ptr64 
??0Schedule@compiler@internal@v8@@QEAA@PEAVZone@23@_K@Z
; private: __cdecl v8::internal::compiler::Scheduler::Scheduler(class v8::internal::Zone *__ptr64,class v8::internal::compiler::Graph *__ptr64,class v8::internal::compiler::Schedule *__ptr64,class v8::base::<enum v8::internal::compiler::Scheduler::Flag,int>,unsigned __int64,class v8::internal::TickCounter *__ptr64)__ptr64 
??0Scheduler@compiler@internal@v8@@AEAA@PEAVZone@23@PEAVGraph@123@PEAVSchedule@123@V?$Flags@W4Flag@Scheduler@compiler@internal@v8@@H@base@3@_KPEAVTickCounter@23@@Z
; public: __cdecl v8::internal::compiler::Scheduler::Scheduler(,class v8::internal::compiler::Scheduler *__ptr64 const)__ptr64 
??0Scheduler@compiler@internal@v8@@QEAA@$$QEAV0123@@Z
; public: __cdecl v8::internal::compiler::Scheduler::Scheduler(class v8::internal::compiler::Scheduler const &__ptr64 )__ptr64 
??0Scheduler@compiler@internal@v8@@QEAA@AEBV0123@@Z
; public: __cdecl v8::Isolate::Scope::Scope(class v8::Isolate *__ptr64)__ptr64 
??0Scope@Isolate@v8@@QEAA@PEAV12@@Z
; private: __cdecl v8::internal::Scope::Scope(class v8::internal::Zone *__ptr64,class v8::internal::AstRawString const *__ptr64,enum v8::internal::MaybeAssignedFlag,class v8::internal::<class v8::internal::ScopeInfo>)__ptr64 
??0Scope@internal@v8@@AEAA@PEAVZone@12@PEBVAstRawString@12@W4MaybeAssignedFlag@12@V?$Handle@VScopeInfo@internal@v8@@@12@@Z
; private: __cdecl v8::internal::Scope::Scope(class v8::internal::Zone *__ptr64,enum v8::internal::ScopeType,class v8::internal::<class v8::internal::ScopeInfo>)__ptr64 
??0Scope@internal@v8@@AEAA@PEAVZone@12@W4ScopeType@12@V?$Handle@VScopeInfo@internal@v8@@@12@@Z
; protected: __cdecl v8::internal::Scope::Scope(class v8::internal::Zone *__ptr64)__ptr64 
??0Scope@internal@v8@@IEAA@PEAVZone@12@@Z
; public: __cdecl v8::internal::Scope::Scope(class v8::internal::Zone *__ptr64,class v8::internal::Scope *__ptr64,enum v8::internal::ScopeType)__ptr64 
??0Scope@internal@v8@@QEAA@PEAVZone@12@PEAV012@W4ScopeType@12@@Z
; public: __cdecl v8::debug::ScopeIterator::ScopeIterator(void)__ptr64 
??0ScopeIterator@debug@v8@@QEAA@XZ
; private: __cdecl v8::debug::Coverage::ScriptData::ScriptData(unsigned __int64,class std::<class v8::internal::Coverage>)__ptr64 
??0ScriptData@Coverage@debug@v8@@AEAA@_KV?$shared_ptr@VCoverage@internal@v8@@@std@@@Z
; public: __cdecl v8::debug::Coverage::ScriptData::ScriptData(,class v8::debug::Coverage::ScriptData *__ptr64 const)__ptr64 
??0ScriptData@Coverage@debug@v8@@QEAA@$$QEAV0123@@Z
; private: __cdecl v8::debug::TypeProfile::ScriptData::ScriptData(unsigned __int64,class std::<class v8::internal::TypeProfile>)__ptr64 
??0ScriptData@TypeProfile@debug@v8@@AEAA@_KV?$shared_ptr@VTypeProfile@internal@v8@@@std@@@Z
; public: __cdecl v8::debug::TypeProfile::ScriptData::ScriptData(,class v8::debug::TypeProfile::ScriptData *__ptr64 const)__ptr64 
??0ScriptData@TypeProfile@debug@v8@@QEAA@$$QEAV0123@@Z
; public: __cdecl v8::internal::ScriptData::ScriptData(unsigned char const *__ptr64,int)__ptr64 
??0ScriptData@internal@v8@@QEAA@PEBEH@Z
; public: __cdecl v8::internal::SharedFunctionInfo::ScriptIterator::ScriptIterator(class v8::internal::Isolate *__ptr64,class v8::internal::Script)__ptr64 
??0ScriptIterator@SharedFunctionInfo@internal@v8@@QEAA@PEAVIsolate@23@VScript@23@@Z
; private: __cdecl v8::ScriptCompiler::ScriptStreamingTask::ScriptStreamingTask(struct v8::internal::ScriptStreamingData *__ptr64)__ptr64 
??0ScriptStreamingTask@ScriptCompiler@v8@@AEAA@PEAUScriptStreamingData@internal@2@@Z
; public: __cdecl v8::SealHandleScope::SealHandleScope(class v8::Isolate *__ptr64)__ptr64 
??0SealHandleScope@v8@@QEAA@PEAVIsolate@1@@Z
; public: __cdecl v8_inspector::protocol::Debugger::API::SearchMatch::SearchMatch(,class v8_inspector::protocol::Debugger::API::SearchMatch *__ptr64 const)__ptr64 
??0SearchMatch@API@Debugger@protocol@v8_inspector@@QEAA@$$QEAV01234@@Z
; public: __cdecl v8_inspector::protocol::Debugger::API::SearchMatch::SearchMatch(class v8_inspector::protocol::Debugger::API::SearchMatch const &__ptr64 )__ptr64 
??0SearchMatch@API@Debugger@protocol@v8_inspector@@QEAA@AEBV01234@@Z
; public: __cdecl v8_inspector::protocol::Debugger::API::SearchMatch::SearchMatch(void)__ptr64 
??0SearchMatch@API@Debugger@protocol@v8_inspector@@QEAA@XZ
; public: __cdecl v8::base::Semaphore::Semaphore(int)__ptr64 
??0Semaphore@base@v8@@QEAA@H@Z
; public: __cdecl v8::internal::SetupIsolateDelegate::SetupIsolateDelegate(class v8::internal::SetupIsolateDelegate const &__ptr64 )__ptr64 
??0SetupIsolateDelegate@internal@v8@@QEAA@AEBV012@@Z
; public: __cdecl v8::internal::SetupIsolateDelegate::SetupIsolateDelegate(bool)__ptr64 
??0SetupIsolateDelegate@internal@v8@@QEAA@_N@Z
; public: __cdecl v8::internal::compiler::SharedFunctionInfoRef::SharedFunctionInfoRef(class v8::internal::compiler::JSHeapBroker *__ptr64,class v8::internal::compiler::ObjectData *__ptr64,bool)__ptr64 
??0SharedFunctionInfoRef@compiler@internal@v8@@QEAA@PEAVJSHeapBroker@123@PEAVObjectData@123@_N@Z
; public: __cdecl v8::internal::compiler::SharedFunctionInfoRef::SharedFunctionInfoRef(class v8::internal::compiler::JSHeapBroker *__ptr64,class v8::internal::<class v8::internal::Object>,bool)__ptr64 
??0SharedFunctionInfoRef@compiler@internal@v8@@QEAA@PEAVJSHeapBroker@123@V?$Handle@VObject@internal@v8@@@23@_N@Z
; public: __cdecl v8::base::SharedMutex::SharedMutex(void)__ptr64 
??0SharedMutex@base@v8@@QEAA@XZ
; public: __cdecl v8::internal::wasm::SignatureMap::SignatureMap(,class v8::internal::wasm::SignatureMap *__ptr64 const)__ptr64 
??0SignatureMap@wasm@internal@v8@@QEAA@$$QEAV0123@@Z
; public: __cdecl v8::internal::wasm::SignatureMap::SignatureMap(void)__ptr64 
??0SignatureMap@wasm@internal@v8@@QEAA@XZ
; public: __cdecl v8::internal::compiler::SimplifiedLowering::SimplifiedLowering(class v8::internal::compiler::JSGraph *__ptr64,class v8::internal::compiler::JSHeapBroker *__ptr64,class v8::internal::Zone *__ptr64,class v8::internal::compiler::SourcePositionTable *__ptr64,class v8::internal::compiler::NodeOriginTable *__ptr64,enum v8::internal::PoisoningMitigationLevel,class v8::internal::TickCounter *__ptr64)__ptr64 
??0SimplifiedLowering@compiler@internal@v8@@QEAA@PEAVJSGraph@123@PEAVJSHeapBroker@123@PEAVZone@23@PEAVSourcePositionTable@123@PEAVNodeOriginTable@123@W4PoisoningMitigationLevel@23@PEAVTickCounter@23@@Z
; public: __cdecl v8::internal::compiler::SimplifiedOperatorBuilder::SimplifiedOperatorBuilder(class v8::internal::Zone *__ptr64)__ptr64 
??0SimplifiedOperatorBuilder@compiler@internal@v8@@QEAA@PEAVZone@23@@Z
; public: __cdecl v8::internal::compiler::SimplifiedOperatorReducer::SimplifiedOperatorReducer(class v8::internal::compiler::AdvancedReducer::Editor *__ptr64,class v8::internal::compiler::JSGraph *__ptr64,class v8::internal::compiler::JSHeapBroker *__ptr64)__ptr64 
??0SimplifiedOperatorReducer@compiler@internal@v8@@QEAA@PEAVEditor@AdvancedReducer@123@PEAVJSGraph@123@PEAVJSHeapBroker@123@@Z
; public: __cdecl v8::SnapshotCreator::SnapshotCreator(class v8::Isolate *__ptr64,__int64 const *__ptr64,class v8::StartupData *__ptr64)__ptr64 
??0SnapshotCreator@v8@@QEAA@PEAVIsolate@1@PEB_JPEAVStartupData@1@@Z
; public: __cdecl v8::SnapshotCreator::SnapshotCreator(__int64 const *__ptr64,class v8::StartupData *__ptr64)__ptr64 
??0SnapshotCreator@v8@@QEAA@PEB_JPEAVStartupData@1@@Z
; public: __cdecl v8::internal::SnapshotData::SnapshotData(,class v8::internal::SnapshotData *__ptr64 const)__ptr64 
??0SnapshotData@internal@v8@@QEAA@$$QEAV012@@Z
; public: __cdecl v8::internal::SnapshotData::SnapshotData(class v8::internal::Serializer const *__ptr64)__ptr64 
??0SnapshotData@internal@v8@@QEAA@PEBVSerializer@12@@Z
; public: __cdecl v8::internal::SnapshotData::SnapshotData(class v8::internal::<unsigned char const>)__ptr64 
??0SnapshotData@internal@v8@@QEAA@V?$Vector@$$CBE@12@@Z
; public: __cdecl v8::internal::compiler::SourceIdAssigner::SourceIdAssigner(,class v8::internal::compiler::SourceIdAssigner *__ptr64 const)__ptr64 
??0SourceIdAssigner@compiler@internal@v8@@QEAA@$$QEAV0123@@Z
; public: __cdecl v8::internal::compiler::SourceIdAssigner::SourceIdAssigner(class v8::internal::compiler::SourceIdAssigner const &__ptr64 )__ptr64 
??0SourceIdAssigner@compiler@internal@v8@@QEAA@AEBV0123@@Z
; public: __cdecl v8::internal::compiler::SourceIdAssigner::SourceIdAssigner(unsigned __int64)__ptr64 
??0SourceIdAssigner@compiler@internal@v8@@QEAA@_K@Z
; public: __cdecl v8::internal::compiler::SourcePositionTable::SourcePositionTable(class v8::internal::compiler::Graph *__ptr64)__ptr64 
??0SourcePositionTable@compiler@internal@v8@@QEAA@PEAVGraph@123@@Z
; public: __cdecl v8::internal::SourcePositionTable::SourcePositionTable(void)__ptr64 
??0SourcePositionTable@internal@v8@@QEAA@XZ
; public: __cdecl v8::internal::SourcePositionTableBuilder::SourcePositionTableBuilder(,class v8::internal::SourcePositionTableBuilder *__ptr64 const)__ptr64 
??0SourcePositionTableBuilder@internal@v8@@QEAA@$$QEAV012@@Z
; public: __cdecl v8::internal::SourcePositionTableBuilder::SourcePositionTableBuilder(class v8::internal::SourcePositionTableBuilder const &__ptr64 )__ptr64 
??0SourcePositionTableBuilder@internal@v8@@QEAA@AEBV012@@Z
; public: __cdecl v8::internal::SourcePositionTableBuilder::SourcePositionTableBuilder(enum v8::internal::SourcePositionTableBuilder::RecordingMode)__ptr64 
??0SourcePositionTableBuilder@internal@v8@@QEAA@W4RecordingMode@012@@Z
; public: __cdecl v8::internal::SourcePositionTableIterator::SourcePositionTableIterator(class v8::internal::<class v8::internal::ByteArray>,enum v8::internal::SourcePositionTableIterator::IterationFilter)__ptr64 
??0SourcePositionTableIterator@internal@v8@@QEAA@V?$Handle@VByteArray@internal@v8@@@12@W4IterationFilter@012@@Z
; public: __cdecl v8::internal::SourcePositionTableIterator::SourcePositionTableIterator(class v8::internal::<unsigned char const>,enum v8::internal::SourcePositionTableIterator::IterationFilter)__ptr64 
??0SourcePositionTableIterator@internal@v8@@QEAA@V?$Vector@$$CBE@12@W4IterationFilter@012@@Z
; public: __cdecl v8::internal::SourcePositionTableIterator::SourcePositionTableIterator(class v8::internal::ByteArray,enum v8::internal::SourcePositionTableIterator::IterationFilter)__ptr64 
??0SourcePositionTableIterator@internal@v8@@QEAA@VByteArray@12@W4IterationFilter@012@@Z
; public: __cdecl v8::internal::Space::Space(class v8::internal::Heap *__ptr64,enum v8::internal::AllocationSpace,class v8::internal::FreeList *__ptr64)__ptr64 
??0Space@internal@v8@@QEAA@PEAVHeap@12@W4AllocationSpace@12@PEAVFreeList@12@@Z
; public: __cdecl v8::internal::SpaceIterator::SpaceIterator(class v8::internal::SpaceIterator const &__ptr64 )__ptr64 
??0SpaceIterator@internal@v8@@QEAA@AEBV012@@Z
; public: __cdecl v8::internal::SpaceIterator::SpaceIterator(class v8::internal::Heap *__ptr64)__ptr64 
??0SpaceIterator@internal@v8@@QEAA@PEAVHeap@12@@Z
; public: __cdecl v8::internal::StackFrameIterator::StackFrameIterator(class v8::internal::Isolate *__ptr64)__ptr64 
??0StackFrameIterator@internal@v8@@QEAA@PEAVIsolate@12@@Z
; public: __cdecl v8::internal::StackFrameIterator::StackFrameIterator(class v8::internal::Isolate *__ptr64,class v8::internal::ThreadLocalTop *__ptr64)__ptr64 
??0StackFrameIterator@internal@v8@@QEAA@PEAVIsolate@12@PEAVThreadLocalTop@12@@Z
; public: __cdecl v8::internal::StackGuard::StackGuard(class v8::internal::Isolate *__ptr64)__ptr64 
??0StackGuard@internal@v8@@QEAA@PEAVIsolate@12@@Z
; public: __cdecl v8_inspector::protocol::Runtime::API::StackTrace::StackTrace(,class v8_inspector::protocol::Runtime::API::StackTrace *__ptr64 const)__ptr64 
??0StackTrace@API@Runtime@protocol@v8_inspector@@QEAA@$$QEAV01234@@Z
; public: __cdecl v8_inspector::protocol::Runtime::API::StackTrace::StackTrace(class v8_inspector::protocol::Runtime::API::StackTrace const &__ptr64 )__ptr64 
??0StackTrace@API@Runtime@protocol@v8_inspector@@QEAA@AEBV01234@@Z
; public: __cdecl v8_inspector::protocol::Runtime::API::StackTrace::StackTrace(void)__ptr64 
??0StackTrace@API@Runtime@protocol@v8_inspector@@QEAA@XZ
; public: __cdecl v8::internal::StackTraceFrameIterator::StackTraceFrameIterator(class v8::internal::Isolate *__ptr64)__ptr64 
??0StackTraceFrameIterator@internal@v8@@QEAA@PEAVIsolate@12@@Z
; public: __cdecl v8::internal::StackTraceFrameIterator::StackTraceFrameIterator(class v8::internal::Isolate *__ptr64,enum v8::internal::StackFrameId)__ptr64 
??0StackTraceFrameIterator@internal@v8@@QEAA@PEAVIsolate@12@W4StackFrameId@12@@Z
; public: __cdecl v8_inspector::protocol::Runtime::API::StackTraceId::StackTraceId(,class v8_inspector::protocol::Runtime::API::StackTraceId *__ptr64 const)__ptr64 
??0StackTraceId@API@Runtime@protocol@v8_inspector@@QEAA@$$QEAV01234@@Z
; public: __cdecl v8_inspector::protocol::Runtime::API::StackTraceId::StackTraceId(class v8_inspector::protocol::Runtime::API::StackTraceId const &__ptr64 )__ptr64 
??0StackTraceId@API@Runtime@protocol@v8_inspector@@QEAA@AEBV01234@@Z
; public: __cdecl v8_inspector::protocol::Runtime::API::StackTraceId::StackTraceId(void)__ptr64 
??0StackTraceId@API@Runtime@protocol@v8_inspector@@QEAA@XZ
; public: __cdecl v8::debug::StackTraceIterator::StackTraceIterator(void)__ptr64 
??0StackTraceIterator@debug@v8@@QEAA@XZ
; public: __cdecl v8::internal::StartupSerializer::StartupSerializer(class v8::internal::Isolate *__ptr64,class v8::internal::ReadOnlySerializer *__ptr64)__ptr64 
??0StartupSerializer@internal@v8@@QEAA@PEAVIsolate@12@PEAVReadOnlySerializer@12@@Z
; public: __cdecl v8::internal::compiler::StateValuesAccess::StateValuesAccess(class v8::internal::compiler::Node *__ptr64)__ptr64 
??0StateValuesAccess@compiler@internal@v8@@QEAA@PEAVNode@123@@Z
; public: __cdecl v8::internal::compiler::StateValuesCache::StateValuesCache(class v8::internal::compiler::JSGraph *__ptr64)__ptr64 
??0StateValuesCache@compiler@internal@v8@@QEAA@PEAVJSGraph@123@@Z
; private: __cdecl v8::internal::StatsCounterThreadSafe::StatsCounterThreadSafe(class v8::internal::Counters *__ptr64,char const *__ptr64)__ptr64 
??0StatsCounterThreadSafe@internal@v8@@AEAA@PEAVCounters@12@PEBD@Z
; public: __cdecl v8::internal::compiler::ZoneStats::StatsScope::StatsScope(class v8::internal::compiler::ZoneStats *__ptr64)__ptr64 
??0StatsScope@ZoneStats@compiler@internal@v8@@QEAA@PEAV1234@@Z
; public: __cdecl v8::ScriptCompiler::StreamedSource::StreamedSource(class v8::ScriptCompiler::ExternalSourceStream *__ptr64,enum v8::ScriptCompiler::StreamedSource::Encoding)__ptr64 
??0StreamedSource@ScriptCompiler@v8@@QEAA@PEAVExternalSourceStream@12@W4Encoding@012@@Z
; public: __cdecl v8::ScriptCompiler::StreamedSource::StreamedSource(class std::<class v8::ScriptCompiler::ExternalSourceStream,struct std::<class v8::ScriptCompiler::ExternalSourceStream>>,enum v8::ScriptCompiler::StreamedSource::Encoding)__ptr64 
??0StreamedSource@ScriptCompiler@v8@@QEAA@V?$unique_ptr@VExternalSourceStream@ScriptCompiler@v8@@U?$default_delete@VExternalSourceStream@ScriptCompiler@v8@@@std@@@std@@W4Encoding@012@@Z
; public: __cdecl v8::internal::wasm::StreamingDecoder::StreamingDecoder(class std::<class v8::internal::wasm::StreamingProcessor,struct std::<class v8::internal::wasm::StreamingProcessor>>)__ptr64 
??0StreamingDecoder@wasm@internal@v8@@QEAA@V?$unique_ptr@VStreamingProcessor@wasm@internal@v8@@U?$default_delete@VStreamingProcessor@wasm@internal@v8@@@std@@@std@@@Z
; public: __cdecl v8::internal::wasm::StreamingProcessor::StreamingProcessor(class v8::internal::wasm::StreamingProcessor const &__ptr64 )__ptr64 
??0StreamingProcessor@wasm@internal@v8@@QEAA@AEBV0123@@Z
; public: __cdecl v8::internal::wasm::StreamingProcessor::StreamingProcessor(void)__ptr64 
??0StreamingProcessor@wasm@internal@v8@@QEAA@XZ
; public: __cdecl v8_inspector::String16::String16(unsigned short const *__ptr64)__ptr64 
??0String16@v8_inspector@@QEAA@PEBG@Z
; public: __cdecl v8_inspector::StringBuffer::StringBuffer(class v8_inspector::StringBuffer const &__ptr64 )__ptr64 
??0StringBuffer@v8_inspector@@QEAA@AEBV01@@Z
; public: __cdecl v8_inspector::StringBuffer::StringBuffer(void)__ptr64 
??0StringBuffer@v8_inspector@@QEAA@XZ
; public: __cdecl v8_inspector::StringView::StringView(unsigned char const *__ptr64,unsigned __int64)__ptr64 
??0StringView@v8_inspector@@QEAA@PEBE_K@Z
; public: __cdecl v8_inspector::StringView::StringView(unsigned short const *__ptr64,unsigned __int64)__ptr64 
??0StringView@v8_inspector@@QEAA@PEBG_K@Z
; public: __cdecl v8_inspector::StringView::StringView(void)__ptr64 
??0StringView@v8_inspector@@QEAA@XZ
; public: __cdecl v8::internal::StringsStorage::StringsStorage(void)__ptr64 
??0StringsStorage@internal@v8@@QEAA@XZ
; public: __cdecl v8::internal::StubCache::StubCache(class v8::internal::Isolate *__ptr64)__ptr64 
??0StubCache@internal@v8@@QEAA@PEAVIsolate@12@@Z
; public: __cdecl v8::Isolate::SuppressMicrotaskExecutionScope::SuppressMicrotaskExecutionScope(class v8::Isolate *__ptr64)__ptr64 
??0SuppressMicrotaskExecutionScope@Isolate@v8@@QEAA@PEAV12@@Z
; public: __cdecl v8::internal::interpreter::SwitchBuilder::SwitchBuilder(class v8::internal::interpreter::BytecodeArrayBuilder *__ptr64,class v8::internal::interpreter::BlockCoverageBuilder *__ptr64,class v8::internal::SwitchStatement *__ptr64,int)__ptr64 
??0SwitchBuilder@interpreter@internal@v8@@QEAA@PEAVBytecodeArrayBuilder@123@PEAVBlockCoverageBuilder@123@PEAVSwitchStatement@23@H@Z
; public: __cdecl v8::internal::ItemParallelJob::Task::Task(class v8::internal::Isolate *__ptr64)__ptr64 
??0Task@ItemParallelJob@internal@v8@@QEAA@PEAVIsolate@23@@Z
; public: __cdecl v8::base::Thread::Thread(class v8::base::Thread::Options const &__ptr64 )__ptr64 
??0Thread@base@v8@@QEAA@AEBVOptions@012@@Z
; private: __cdecl v8::base::ThreadTicks::ThreadTicks(__int64)__ptr64 
??0ThreadTicks@base@v8@@AEAA@_J@Z
; public: __cdecl v8::base::ThreadTicks::ThreadTicks(void)__ptr64 
??0ThreadTicks@base@v8@@QEAA@XZ
; public: __cdecl v8::internal::TickSample::TickSample(void)__ptr64 
??0TickSample@internal@v8@@QEAA@XZ
; private: __cdecl v8::base::Time::Time(__int64)__ptr64 
??0Time@base@v8@@AEAA@_J@Z
; public: __cdecl v8::base::Time::Time(void)__ptr64 
??0Time@base@v8@@QEAA@XZ
; private: __cdecl v8::base::TimeDelta::TimeDelta(__int64)__ptr64 
??0TimeDelta@base@v8@@AEAA@_J@Z
; public: __cdecl v8::base::TimeDelta::TimeDelta(void)__ptr64 
??0TimeDelta@base@v8@@QEAA@XZ
; private: __cdecl v8::base::TimeTicks::TimeTicks(__int64)__ptr64 
??0TimeTicks@base@v8@@AEAA@_J@Z
; public: __cdecl v8::base::TimeTicks::TimeTicks(void)__ptr64 
??0TimeTicks@base@v8@@QEAA@XZ
; public: __cdecl v8::internal::compiler::TopLevelLiveRange::TopLevelLiveRange(int,enum v8::internal::MachineRepresentation)__ptr64 
??0TopLevelLiveRange@compiler@internal@v8@@QEAA@HW4MachineRepresentation@23@@Z
; public: __cdecl v8::EmbedderHeapTracer::TracedGlobalHandleVisitor::TracedGlobalHandleVisitor(class v8::EmbedderHeapTracer::TracedGlobalHandleVisitor const &__ptr64 )__ptr64 
??0TracedGlobalHandleVisitor@EmbedderHeapTracer@v8@@QEAA@AEBV012@@Z
; public: __cdecl v8::EmbedderHeapTracer::TracedGlobalHandleVisitor::TracedGlobalHandleVisitor(void)__ptr64 
??0TracedGlobalHandleVisitor@EmbedderHeapTracer@v8@@QEAA@XZ
; private: __cdecl v8::tracing::TracedValue::TracedValue(void)__ptr64 
??0TracedValue@tracing@v8@@AEAA@XZ
; public: __cdecl v8::internal::TransitionsAccessor::TransitionsAccessor(class v8::internal::Isolate *__ptr64,class v8::internal::<class v8::internal::Map>)__ptr64 
??0TransitionsAccessor@internal@v8@@QEAA@PEAVIsolate@12@V?$Handle@VMap@internal@v8@@@12@@Z
; public: __cdecl v8::internal::TransitionsAccessor::TransitionsAccessor(class v8::internal::Isolate *__ptr64,class v8::internal::Map,class v8::internal::<0x0ULL,0x0ULL> *__ptr64)__ptr64 
??0TransitionsAccessor@internal@v8@@QEAA@PEAVIsolate@12@VMap@12@PEAV?$PerThreadAssertScopeDebugOnly@$0A@$0A@@12@@Z
; public: __cdecl v8::TryCatch::TryCatch(class v8::Isolate *__ptr64)__ptr64 
??0TryCatch@v8@@QEAA@PEAVIsolate@1@@Z
; public: __cdecl v8::internal::interpreter::TryCatchBuilder::TryCatchBuilder(class v8::internal::interpreter::BytecodeArrayBuilder *__ptr64,class v8::internal::interpreter::BlockCoverageBuilder *__ptr64,class v8::internal::TryCatchStatement *__ptr64,enum v8::internal::HandlerTable::CatchPrediction)__ptr64 
??0TryCatchBuilder@interpreter@internal@v8@@QEAA@PEAVBytecodeArrayBuilder@123@PEAVBlockCoverageBuilder@123@PEAVTryCatchStatement@23@W4CatchPrediction@HandlerTable@23@@Z
; public: __cdecl v8::internal::interpreter::TryFinallyBuilder::TryFinallyBuilder(class v8::internal::interpreter::BytecodeArrayBuilder *__ptr64,class v8::internal::interpreter::BlockCoverageBuilder *__ptr64,class v8::internal::TryFinallyStatement *__ptr64,enum v8::internal::HandlerTable::CatchPrediction)__ptr64 
??0TryFinallyBuilder@interpreter@internal@v8@@QEAA@PEAVBytecodeArrayBuilder@123@PEAVBlockCoverageBuilder@123@PEAVTryFinallyStatement@23@W4CatchPrediction@HandlerTable@23@@Z
; public: __cdecl v8::internal::TurboAssembler::TurboAssembler(class v8::internal::Isolate *__ptr64,struct v8::internal::AssemblerOptions const &__ptr64 ,enum v8::internal::CodeObjectRequired)__ptr64 
??0TurboAssembler@internal@v8@@QEAA@PEAVIsolate@12@AEBUAssemblerOptions@12@W4CodeObjectRequired@12@@Z
; public: __cdecl v8::internal::TurboAssembler::TurboAssembler(class v8::internal::Isolate *__ptr64,struct v8::internal::AssemblerOptions const &__ptr64 ,enum v8::internal::CodeObjectRequired,class std::<class v8::internal::AssemblerBuffer,struct std::<class v8::internal::AssemblerBuffer>>)__ptr64 
??0TurboAssembler@internal@v8@@QEAA@PEAVIsolate@12@AEBUAssemblerOptions@12@W4CodeObjectRequired@12@V?$unique_ptr@VAssemblerBuffer@internal@v8@@U?$default_delete@VAssemblerBuffer@internal@v8@@@std@@@std@@@Z
; public: __cdecl v8::internal::TurboAssembler::TurboAssembler(class v8::internal::Isolate *__ptr64,enum v8::internal::CodeObjectRequired)__ptr64 
??0TurboAssembler@internal@v8@@QEAA@PEAVIsolate@12@W4CodeObjectRequired@12@@Z
; public: __cdecl v8::internal::TurboAssembler::TurboAssembler(class v8::internal::Isolate *__ptr64,enum v8::internal::CodeObjectRequired,class std::<class v8::internal::AssemblerBuffer,struct std::<class v8::internal::AssemblerBuffer>>)__ptr64 
??0TurboAssembler@internal@v8@@QEAA@PEAVIsolate@12@W4CodeObjectRequired@12@V?$unique_ptr@VAssemblerBuffer@internal@v8@@U?$default_delete@VAssemblerBuffer@internal@v8@@@std@@@std@@@Z
; public: __cdecl v8::internal::TurboAssemblerBase::TurboAssemblerBase(class v8::internal::Isolate *__ptr64,struct v8::internal::AssemblerOptions const &__ptr64 ,enum v8::internal::CodeObjectRequired,class std::<class v8::internal::AssemblerBuffer,struct std::<class v8::internal::AssemblerBuffer>>)__ptr64 
??0TurboAssemblerBase@internal@v8@@QEAA@PEAVIsolate@12@AEBUAssemblerOptions@12@W4CodeObjectRequired@12@V?$unique_ptr@VAssemblerBuffer@internal@v8@@U?$default_delete@VAssemblerBuffer@internal@v8@@@std@@@std@@@Z
; public: __cdecl v8::internal::TurboAssemblerBase::TurboAssemblerBase(class v8::internal::Isolate *__ptr64,enum v8::internal::CodeObjectRequired,class std::<class v8::internal::AssemblerBuffer,struct std::<class v8::internal::AssemblerBuffer>>)__ptr64 
??0TurboAssemblerBase@internal@v8@@QEAA@PEAVIsolate@12@W4CodeObjectRequired@12@V?$unique_ptr@VAssemblerBuffer@internal@v8@@U?$default_delete@VAssemblerBuffer@internal@v8@@@std@@@std@@@Z
; private: __cdecl v8::internal::compiler::Type::Type(unsigned int)__ptr64 
??0Type@compiler@internal@v8@@AEAA@I@Z
; private: __cdecl v8::internal::compiler::Type::Type(class v8::internal::compiler::TypeBase *__ptr64)__ptr64 
??0Type@compiler@internal@v8@@AEAA@PEAVTypeBase@123@@Z
; public: __cdecl v8::internal::compiler::Type::Type(void)__ptr64 
??0Type@compiler@internal@v8@@QEAA@XZ
; public: __cdecl v8::internal::compiler::TypeCache::TypeCache(void)__ptr64 
??0TypeCache@compiler@internal@v8@@QEAA@XZ
; public: __cdecl v8::internal::compiler::TypeNarrowingReducer::TypeNarrowingReducer(class v8::internal::compiler::AdvancedReducer::Editor *__ptr64,class v8::internal::compiler::JSGraph *__ptr64,class v8::internal::compiler::JSHeapBroker *__ptr64)__ptr64 
??0TypeNarrowingReducer@compiler@internal@v8@@QEAA@PEAVEditor@AdvancedReducer@123@PEAVJSGraph@123@PEAVJSHeapBroker@123@@Z
; private: __cdecl v8::debug::TypeProfile::TypeProfile(class std::<class v8::internal::TypeProfile>)__ptr64 
??0TypeProfile@debug@v8@@AEAA@V?$shared_ptr@VTypeProfile@internal@v8@@@std@@@Z
; public: __cdecl v8::debug::TypeProfile::TypeProfile(,class v8::debug::TypeProfile *__ptr64 const)__ptr64 
??0TypeProfile@debug@v8@@QEAA@$$QEAV012@@Z
; public: __cdecl v8::internal::compiler::TypedOptimization::TypedOptimization(class v8::internal::compiler::AdvancedReducer::Editor *__ptr64,class v8::internal::compiler::CompilationDependencies *__ptr64,class v8::internal::compiler::JSGraph *__ptr64,class v8::internal::compiler::JSHeapBroker *__ptr64)__ptr64 
??0TypedOptimization@compiler@internal@v8@@QEAA@PEAVEditor@AdvancedReducer@123@PEAVCompilationDependencies@123@PEAVJSGraph@123@PEAVJSHeapBroker@123@@Z
; public: __cdecl v8::internal::TypedSlotSet::TypedSlotSet(unsigned __int64)__ptr64 
??0TypedSlotSet@internal@v8@@QEAA@_K@Z
; public: __cdecl v8::internal::TypedSlots::TypedSlots(class v8::internal::TypedSlots const &__ptr64 )__ptr64 
??0TypedSlots@internal@v8@@QEAA@AEBV012@@Z
; public: __cdecl v8::internal::TypedSlots::TypedSlots(void)__ptr64 
??0TypedSlots@internal@v8@@QEAA@XZ
; public: __cdecl v8::internal::compiler::Typer::Typer(class v8::internal::compiler::JSHeapBroker *__ptr64,class v8::base::<enum v8::internal::compiler::Typer::Flag,int>,class v8::internal::compiler::Graph *__ptr64,class v8::internal::TickCounter *__ptr64)__ptr64 
??0Typer@compiler@internal@v8@@QEAA@PEAVJSHeapBroker@123@V?$Flags@W4Flag@Typer@compiler@internal@v8@@H@base@3@PEAVGraph@123@PEAVTickCounter@23@@Z
; public: __cdecl v8::internal::UnicodeRangeSplitter::UnicodeRangeSplitter(class v8::internal::<class v8::internal::CharacterRange> *__ptr64)__ptr64 
??0UnicodeRangeSplitter@internal@v8@@QEAA@PEAV?$ZoneList@VCharacterRange@internal@v8@@@12@@Z
; public: __cdecl v8::Unlocker::Unlocker(class v8::Isolate *__ptr64)__ptr64 
??0Unlocker@v8@@QEAA@PEAVIsolate@1@@Z
; public: __cdecl v8::internal::UnoptimizedCompilationInfo::UnoptimizedCompilationInfo(,class v8::internal::UnoptimizedCompilationInfo *__ptr64 const)__ptr64 
??0UnoptimizedCompilationInfo@internal@v8@@QEAA@$$QEAV012@@Z
; public: __cdecl v8::internal::UnoptimizedCompilationInfo::UnoptimizedCompilationInfo(class v8::internal::UnoptimizedCompilationInfo const &__ptr64 )__ptr64 
??0UnoptimizedCompilationInfo@internal@v8@@QEAA@AEBV012@@Z
; public: __cdecl v8::internal::UnoptimizedCompilationInfo::UnoptimizedCompilationInfo(class v8::internal::Zone *__ptr64,class v8::internal::ParseInfo *__ptr64,class v8::internal::FunctionLiteral *__ptr64)__ptr64 
??0UnoptimizedCompilationInfo@internal@v8@@QEAA@PEAVZone@12@PEAVParseInfo@12@PEAVFunctionLiteral@12@@Z
; public: __cdecl v8::internal::compiler::UsePosition::UsePosition(class v8::internal::compiler::LifetimePosition,class v8::internal::compiler::InstructionOperand *__ptr64,void *__ptr64,enum v8::internal::compiler::UsePositionHintType)__ptr64 
??0UsePosition@compiler@internal@v8@@QEAA@VLifetimePosition@123@PEAVInstructionOperand@123@PEAXW4UsePositionHintType@123@@Z
; public: __cdecl v8::internal::compiler::Node::Uses::Uses(class v8::internal::compiler::Node *__ptr64)__ptr64 
??0Uses@Node@compiler@internal@v8@@QEAA@PEAV1234@@Z
; public: __cdecl v8::internal::Utf8Decoder::Utf8Decoder(class v8::internal::<unsigned char const> const &__ptr64 )__ptr64 
??0Utf8Decoder@internal@v8@@QEAA@AEBV?$Vector@$$CBE@12@@Z
; public: __cdecl v8::String::Utf8Value::Utf8Value(class v8::Isolate *__ptr64,class v8::<class v8::Value>)__ptr64 
??0Utf8Value@String@v8@@QEAA@PEAVIsolate@2@V?$Local@VValue@v8@@@2@@Z
; public: __cdecl v8_inspector::V8ContextInfo::V8ContextInfo(class v8::<class v8::Context>,int,class v8_inspector::StringView const &__ptr64 )__ptr64 
??0V8ContextInfo@v8_inspector@@QEAA@V?$Local@VContext@v8@@@v8@@HAEBVStringView@1@@Z
; public: __cdecl v8::internal::V8HeapExplorer::V8HeapExplorer(class v8::internal::HeapSnapshot *__ptr64,class v8::internal::SnapshottingProgressReportingInterface *__ptr64,class v8::HeapProfiler::ObjectNameResolver *__ptr64)__ptr64 
??0V8HeapExplorer@internal@v8@@QEAA@PEAVHeapSnapshot@12@PEAVSnapshottingProgressReportingInterface@12@PEAVObjectNameResolver@HeapProfiler@2@@Z
; public: __cdecl v8_inspector::V8Inspector::V8Inspector(class v8_inspector::V8Inspector const &__ptr64 )__ptr64 
??0V8Inspector@v8_inspector@@QEAA@AEBV01@@Z
; public: __cdecl v8_inspector::V8Inspector::V8Inspector(void)__ptr64 
??0V8Inspector@v8_inspector@@QEAA@XZ
; public: __cdecl v8_inspector::V8InspectorClient::V8InspectorClient(class v8_inspector::V8InspectorClient const &__ptr64 )__ptr64 
??0V8InspectorClient@v8_inspector@@QEAA@AEBV01@@Z
; public: __cdecl v8_inspector::V8InspectorClient::V8InspectorClient(void)__ptr64 
??0V8InspectorClient@v8_inspector@@QEAA@XZ
; public: __cdecl v8_inspector::V8InspectorSession::V8InspectorSession(class v8_inspector::V8InspectorSession const &__ptr64 )__ptr64 
??0V8InspectorSession@v8_inspector@@QEAA@AEBV01@@Z
; public: __cdecl v8_inspector::V8InspectorSession::V8InspectorSession(void)__ptr64 
??0V8InspectorSession@v8_inspector@@QEAA@XZ
; public: __cdecl v8_inspector::V8StackTrace::V8StackTrace(class v8_inspector::V8StackTrace const &__ptr64 )__ptr64 
??0V8StackTrace@v8_inspector@@QEAA@AEBV01@@Z
; public: __cdecl v8_inspector::V8StackTrace::V8StackTrace(void)__ptr64 
??0V8StackTrace@v8_inspector@@QEAA@XZ
; public: __cdecl v8_inspector::V8StackTraceId::V8StackTraceId(void)__ptr64 
??0V8StackTraceId@v8_inspector@@QEAA@XZ
; public: __cdecl v8_inspector::V8StackTraceId::V8StackTraceId(unsigned __int64,struct std::<__int64,__int64>)__ptr64 
??0V8StackTraceId@v8_inspector@@QEAA@_KU?$pair@_J_J@std@@@Z
; public: __cdecl v8::String::Value::Value(class v8::Isolate *__ptr64,class v8::<class v8::Value>)__ptr64 
??0Value@String@v8@@QEAA@PEAVIsolate@2@V?$Local@VValue@v8@@@2@@Z
; public: __cdecl v8::ValueDeserializer::ValueDeserializer(class v8::Isolate *__ptr64,unsigned char const *__ptr64,unsigned __int64)__ptr64 
??0ValueDeserializer@v8@@QEAA@PEAVIsolate@1@PEBE_K@Z
; public: __cdecl v8::ValueDeserializer::ValueDeserializer(class v8::Isolate *__ptr64,unsigned char const *__ptr64,unsigned __int64,class v8::ValueDeserializer::Delegate *__ptr64)__ptr64 
??0ValueDeserializer@v8@@QEAA@PEAVIsolate@1@PEBE_KPEAVDelegate@01@@Z
; public: __cdecl v8::internal::compiler::ValueNumberingReducer::ValueNumberingReducer(class v8::internal::compiler::ValueNumberingReducer const &__ptr64 )__ptr64 
??0ValueNumberingReducer@compiler@internal@v8@@QEAA@AEBV0123@@Z
; public: __cdecl v8::internal::compiler::ValueNumberingReducer::ValueNumberingReducer(class v8::internal::Zone *__ptr64,class v8::internal::Zone *__ptr64)__ptr64 
??0ValueNumberingReducer@compiler@internal@v8@@QEAA@PEAVZone@23@0@Z
; public: __cdecl v8::ValueSerializer::ValueSerializer(class v8::Isolate *__ptr64)__ptr64 
??0ValueSerializer@v8@@QEAA@PEAVIsolate@1@@Z
; public: __cdecl v8::ValueSerializer::ValueSerializer(class v8::Isolate *__ptr64,class v8::ValueSerializer::Delegate *__ptr64)__ptr64 
??0ValueSerializer@v8@@QEAA@PEAVIsolate@1@PEAVDelegate@01@@Z
; public: __cdecl v8::internal::VirtualMemory::VirtualMemory(,class v8::internal::VirtualMemory *__ptr64 const)__ptr64 
??0VirtualMemory@internal@v8@@QEAA@$$QEAV012@@Z
; public: __cdecl v8::internal::VirtualMemory::VirtualMemory(class v8::PageAllocator *__ptr64,unsigned __int64,unsigned __int64)__ptr64 
??0VirtualMemory@internal@v8@@QEAA@PEAVPageAllocator@2@_K1@Z
; public: __cdecl v8::internal::VirtualMemory::VirtualMemory(class v8::PageAllocator *__ptr64,unsigned __int64,void *__ptr64,unsigned __int64)__ptr64 
??0VirtualMemory@internal@v8@@QEAA@PEAVPageAllocator@2@_KPEAX1@Z
; public: __cdecl v8::internal::VirtualMemory::VirtualMemory(void)__ptr64 
??0VirtualMemory@internal@v8@@QEAA@XZ
; protected: __cdecl v8::internal::VoidDescriptor::VoidDescriptor(enum v8::internal::CallDescriptors::Key)__ptr64 
??0VoidDescriptor@internal@v8@@IEAA@W4Key@CallDescriptors@12@@Z
; public: __cdecl v8::internal::VoidDescriptor::VoidDescriptor(,class v8::internal::VoidDescriptor *__ptr64 const)__ptr64 
??0VoidDescriptor@internal@v8@@QEAA@$$QEAV012@@Z
; public: __cdecl v8::internal::VoidDescriptor::VoidDescriptor(class v8::internal::VoidDescriptor const &__ptr64 )__ptr64 
??0VoidDescriptor@internal@v8@@QEAA@AEBV012@@Z
; public: __cdecl v8::internal::VoidDescriptor::VoidDescriptor(void)__ptr64 
??0VoidDescriptor@internal@v8@@QEAA@XZ
; private: __cdecl v8::internal::wasm::WasmCode::WasmCode(class v8::internal::wasm::NativeModule *__ptr64,unsigned int,class v8::internal::<unsigned char>,unsigned int,unsigned int,unsigned __int64,unsigned __int64,unsigned __int64,unsigned __int64,unsigned __int64,class v8::internal::<struct v8::internal::trap_handler::ProtectedInstructionData>,class v8::internal::<unsigned char const>,class v8::internal::<unsigned char const>,enum v8::internal::wasm::WasmCode::Kind,enum v8::internal::wasm::ExecutionTier)__ptr64 
??0WasmCode@wasm@internal@v8@@AEAA@PEAVNativeModule@123@IV?$Vector@E@23@II_K2222V?$OwnedVector@UProtectedInstructionData@trap_handler@internal@v8@@@23@V?$OwnedVector@$$CBE@23@4W4Kind@0123@W4ExecutionTier@123@@Z
; public: __cdecl v8::internal::wasm::WasmCodeManager::WasmCodeManager(class v8::internal::wasm::WasmMemoryTracker *__ptr64,unsigned __int64)__ptr64 
??0WasmCodeManager@wasm@internal@v8@@QEAA@PEAVWasmMemoryTracker@123@_K@Z
; public: __cdecl v8::internal::wasm::WasmCodeRefScope::WasmCodeRefScope(void)__ptr64 
??0WasmCodeRefScope@wasm@internal@v8@@QEAA@XZ
; public: __cdecl v8::internal::wasm::WasmCompilationUnit::WasmCompilationUnit(int,enum v8::internal::wasm::ExecutionTier)__ptr64 
??0WasmCompilationUnit@wasm@internal@v8@@QEAA@HW4ExecutionTier@123@@Z
; public: __cdecl v8::internal::wasm::WasmEngine::WasmEngine(void)__ptr64 
??0WasmEngine@wasm@internal@v8@@QEAA@XZ
; public: __cdecl v8::internal::wasm::WasmError::WasmError(,class v8::internal::wasm::WasmError *__ptr64 const)__ptr64 
??0WasmError@wasm@internal@v8@@QEAA@$$QEAV0123@@Z
; public: __cdecl v8::internal::wasm::WasmError::WasmError(class v8::internal::wasm::WasmError const &__ptr64 )__ptr64 
??0WasmError@wasm@internal@v8@@QEAA@AEBV0123@@Z
; public: __cdecl v8::internal::wasm::WasmError::WasmError(unsigned int,char const *__ptr64,...)__ptr64 
??0WasmError@wasm@internal@v8@@QEAA@IPEBDZZ
; public: __cdecl v8::internal::wasm::WasmError::WasmError(unsigned int,class std::<char,struct std::<char>,class std::<char>>)__ptr64 
??0WasmError@wasm@internal@v8@@QEAA@IV?$basic_string@DU?$char_traits@D@std@@V?$allocator@D@2@@std@@@Z
; public: __cdecl v8::internal::wasm::WasmError::WasmError(void)__ptr64 
??0WasmError@wasm@internal@v8@@QEAA@XZ
; private: __cdecl v8::internal::wasm::WasmFunctionBuilder::WasmFunctionBuilder(class v8::internal::wasm::WasmModuleBuilder *__ptr64)__ptr64 
??0WasmFunctionBuilder@wasm@internal@v8@@AEAA@PEAVWasmModuleBuilder@123@@Z
; public: __cdecl v8::internal::wasm::WasmFunctionBuilder::WasmFunctionBuilder(,class v8::internal::wasm::WasmFunctionBuilder *__ptr64 const)__ptr64 
??0WasmFunctionBuilder@wasm@internal@v8@@QEAA@$$QEAV0123@@Z
; public: __cdecl v8::internal::wasm::WasmFunctionBuilder::WasmFunctionBuilder(class v8::internal::wasm::WasmFunctionBuilder const &__ptr64 )__ptr64 
??0WasmFunctionBuilder@wasm@internal@v8@@QEAA@AEBV0123@@Z
; public: __cdecl v8::internal::compiler::WasmGraphBuilder::WasmGraphBuilder(struct v8::internal::wasm::CompilationEnv *__ptr64,class v8::internal::Zone *__ptr64,class v8::internal::compiler::MachineGraph *__ptr64,class v8::internal::<enum v8::internal::wasm::ValueType> *__ptr64,class v8::internal::compiler::SourcePositionTable *__ptr64)__ptr64 
??0WasmGraphBuilder@compiler@internal@v8@@QEAA@PEAUCompilationEnv@wasm@23@PEAVZone@23@PEAVMachineGraph@123@PEAV?$Signature@W4ValueType@wasm@internal@v8@@@23@PEAVSourcePositionTable@123@@Z
; public: __cdecl v8::internal::wasm::WasmInterpreter::WasmInterpreter(class v8::internal::Isolate *__ptr64,struct v8::internal::wasm::WasmModule const *__ptr64,struct v8::internal::wasm::ModuleWireBytes const &__ptr64 ,class v8::internal::<class v8::internal::WasmInstanceObject>)__ptr64 
??0WasmInterpreter@wasm@internal@v8@@QEAA@PEAVIsolate@23@PEBUWasmModule@123@AEBUModuleWireBytes@123@V?$Handle@VWasmInstanceObject@internal@v8@@@23@@Z
; public: __cdecl v8::internal::wasm::WasmModule::WasmModule(,struct v8::internal::wasm::WasmModule *__ptr64 const)__ptr64 
??0WasmModule@wasm@internal@v8@@QEAA@$$QEAU0123@@Z
; public: __cdecl v8::internal::wasm::WasmModule::WasmModule(class std::<class v8::internal::Zone,struct std::<class v8::internal::Zone>>)__ptr64 
??0WasmModule@wasm@internal@v8@@QEAA@V?$unique_ptr@VZone@internal@v8@@U?$default_delete@VZone@internal@v8@@@std@@@std@@@Z
; public: __cdecl v8::internal::wasm::WasmModuleBuilder::WasmModuleBuilder(,class v8::internal::wasm::WasmModuleBuilder *__ptr64 const)__ptr64 
??0WasmModuleBuilder@wasm@internal@v8@@QEAA@$$QEAV0123@@Z
; public: __cdecl v8::internal::wasm::WasmModuleBuilder::WasmModuleBuilder(class v8::internal::wasm::WasmModuleBuilder const &__ptr64 )__ptr64 
??0WasmModuleBuilder@wasm@internal@v8@@QEAA@AEBV0123@@Z
; public: __cdecl v8::internal::wasm::WasmModuleBuilder::WasmModuleBuilder(class v8::internal::Zone *__ptr64)__ptr64 
??0WasmModuleBuilder@wasm@internal@v8@@QEAA@PEAVZone@23@@Z
; private: __cdecl v8::WasmModuleObjectBuilderStreaming::WasmModuleObjectBuilderStreaming(,class v8::WasmModuleObjectBuilderStreaming *__ptr64 const)__ptr64 
??0WasmModuleObjectBuilderStreaming@v8@@AEAA@$$QEAV01@@Z
; public: __cdecl v8::WasmModuleObjectBuilderStreaming::WasmModuleObjectBuilderStreaming(class v8::Isolate *__ptr64)__ptr64 
??0WasmModuleObjectBuilderStreaming@v8@@QEAA@PEAVIsolate@1@@Z
; public: __cdecl v8::internal::wasm::WasmModuleSourceMap::WasmModuleSourceMap(,class v8::internal::wasm::WasmModuleSourceMap *__ptr64 const)__ptr64 
??0WasmModuleSourceMap@wasm@internal@v8@@QEAA@$$QEAV0123@@Z
; public: __cdecl v8::internal::wasm::WasmModuleSourceMap::WasmModuleSourceMap(class v8::internal::wasm::WasmModuleSourceMap const &__ptr64 )__ptr64 
??0WasmModuleSourceMap@wasm@internal@v8@@QEAA@AEBV0123@@Z
; public: __cdecl v8::internal::wasm::WasmModuleSourceMap::WasmModuleSourceMap(class v8::Isolate *__ptr64,class v8::<class v8::String>)__ptr64 
??0WasmModuleSourceMap@wasm@internal@v8@@QEAA@PEAVIsolate@3@V?$Local@VString@v8@@@3@@Z
; public: __cdecl v8::internal::wasm::WasmSerializer::WasmSerializer(,class v8::internal::wasm::WasmSerializer *__ptr64 const)__ptr64 
??0WasmSerializer@wasm@internal@v8@@QEAA@$$QEAV0123@@Z
; public: __cdecl v8::internal::wasm::WasmSerializer::WasmSerializer(class v8::internal::wasm::WasmSerializer const &__ptr64 )__ptr64 
??0WasmSerializer@wasm@internal@v8@@QEAA@AEBV0123@@Z
; public: __cdecl v8::internal::wasm::WasmSerializer::WasmSerializer(class v8::internal::wasm::NativeModule *__ptr64)__ptr64 
??0WasmSerializer@wasm@internal@v8@@QEAA@PEAVNativeModule@123@@Z
; public: __cdecl v8::WasmStreaming::WasmStreaming(class std::<class v8::WasmStreaming::WasmStreamingImpl,struct std::<class v8::WasmStreaming::WasmStreamingImpl>>)__ptr64 
??0WasmStreaming@v8@@QEAA@V?$unique_ptr@VWasmStreamingImpl@WasmStreaming@v8@@U?$default_delete@VWasmStreamingImpl@WasmStreaming@v8@@@std@@@std@@@Z
; protected: __cdecl v8::internal::WasmTableObject::WasmTableObject(unsigned __int64)__ptr64 
??0WasmTableObject@internal@v8@@IEAA@_K@Z
; public: __cdecl v8::internal::WasmTableObject::WasmTableObject(void)__ptr64 
??0WasmTableObject@internal@v8@@QEAA@XZ
; public: __cdecl v8::internal::Zone::Zone(class v8::internal::AccountingAllocator *__ptr64,char const *__ptr64)__ptr64 
??0Zone@internal@v8@@QEAA@PEAVAccountingAllocator@12@PEBD@Z
; public: __cdecl v8::internal::ZonePreparseData::ZonePreparseData(class v8::internal::Zone *__ptr64,class v8::internal::<unsigned char> *__ptr64,int)__ptr64 
??0ZonePreparseData@internal@v8@@QEAA@PEAVZone@12@PEAV?$Vector@E@12@H@Z
; public: __cdecl v8::internal::compiler::ZoneStats::ZoneStats(class v8::internal::AccountingAllocator *__ptr64)__ptr64 
??0ZoneStats@compiler@internal@v8@@QEAA@PEAVAccountingAllocator@23@@Z
; public: __cdecl v8::internal::interpreter::JumpTableTargetOffsets::iterator::iterator(int,int,int,class v8::internal::interpreter::BytecodeArrayAccessor const *__ptr64)__ptr64 
??0iterator@JumpTableTargetOffsets@interpreter@internal@v8@@QEAA@HHHPEBVBytecodeArrayAccessor@234@@Z
; private: __cdecl v8::internal::compiler::StateValuesAccess::iterator::iterator(class v8::internal::compiler::Node *__ptr64)__ptr64 
??0iterator@StateValuesAccess@compiler@internal@v8@@AEAA@PEAVNode@234@@Z
; private: __cdecl v8::internal::compiler::StateValuesAccess::iterator::iterator(void)__ptr64 
??0iterator@StateValuesAccess@compiler@internal@v8@@AEAA@XZ
; public: __cdecl v8::internal::compiler::<int,struct v8::base::<int>,struct std::<int>>::~<int,struct v8::base::<int>,struct std::<int>>(void)__ptr64 
??1?$NodeCache@HU?$hash@H@base@v8@@U?$equal_to@H@std@@@compiler@internal@v8@@QEAA@XZ
; public: __cdecl v8::internal::compiler::<struct std::<int,char>,struct v8::base::<struct std::<int,char>>,struct std::<struct std::<int,char>>>::~<struct std::<int,char>,struct v8::base::<struct std::<int,char>>,struct std::<struct std::<int,char>>>(void)__ptr64 
??1?$NodeCache@U?$pair@HD@std@@U?$hash@U?$pair@HD@std@@@base@v8@@U?$equal_to@U?$pair@HD@std@@@2@@compiler@internal@v8@@QEAA@XZ
; public: __cdecl v8::internal::compiler::<struct std::<__int64,char>,struct v8::base::<struct std::<__int64,char>>,struct std::<struct std::<__int64,char>>>::~<struct std::<__int64,char>,struct v8::base::<struct std::<__int64,char>>,struct std::<struct std::<__int64,char>>>(void)__ptr64 
??1?$NodeCache@U?$pair@_JD@std@@U?$hash@U?$pair@_JD@std@@@base@v8@@U?$equal_to@U?$pair@_JD@std@@@2@@compiler@internal@v8@@QEAA@XZ
; public: __cdecl v8::internal::compiler::<__int64,struct v8::base::<__int64>,struct std::<__int64>>::~<__int64,struct v8::base::<__int64>,struct std::<__int64>>(void)__ptr64 
??1?$NodeCache@_JU?$hash@_J@base@v8@@U?$equal_to@_J@std@@@compiler@internal@v8@@QEAA@XZ
; public: __cdecl v8::internal::<class v8::internal::Parser>::~<class v8::internal::Parser>(void)__ptr64 
??1?$ParserBase@VParser@internal@v8@@@internal@v8@@QEAA@XZ
; public: __cdecl v8::internal::<0x1ULL,0x1ULL>::~<0x1ULL,0x1ULL>(void)__ptr64 
??1?$PerIsolateAssertScope@$00$00@internal@v8@@QEAA@XZ
; public: __cdecl v8::internal::<0x1ULL,0x0ULL>::~<0x1ULL,0x0ULL>(void)__ptr64 
??1?$PerIsolateAssertScope@$00$0A@@internal@v8@@QEAA@XZ
; public: __cdecl v8::internal::<0x2ULL,0x1ULL>::~<0x2ULL,0x1ULL>(void)__ptr64 
??1?$PerIsolateAssertScope@$01$00@internal@v8@@QEAA@XZ
; public: __cdecl v8::internal::<0x2ULL,0x0ULL>::~<0x2ULL,0x0ULL>(void)__ptr64 
??1?$PerIsolateAssertScope@$01$0A@@internal@v8@@QEAA@XZ
; public: __cdecl v8::internal::<0x3ULL,0x1ULL>::~<0x3ULL,0x1ULL>(void)__ptr64 
??1?$PerIsolateAssertScope@$02$00@internal@v8@@QEAA@XZ
; public: __cdecl v8::internal::<0x3ULL,0x0ULL>::~<0x3ULL,0x0ULL>(void)__ptr64 
??1?$PerIsolateAssertScope@$02$0A@@internal@v8@@QEAA@XZ
; public: __cdecl v8::internal::<0x4ULL,0x1ULL>::~<0x4ULL,0x1ULL>(void)__ptr64 
??1?$PerIsolateAssertScope@$03$00@internal@v8@@QEAA@XZ
; public: __cdecl v8::internal::<0x4ULL,0x0ULL>::~<0x4ULL,0x0ULL>(void)__ptr64 
??1?$PerIsolateAssertScope@$03$0A@@internal@v8@@QEAA@XZ
; public: __cdecl v8::internal::<0x5ULL,0x1ULL>::~<0x5ULL,0x1ULL>(void)__ptr64 
??1?$PerIsolateAssertScope@$04$00@internal@v8@@QEAA@XZ
; public: __cdecl v8::internal::<0x5ULL,0x0ULL>::~<0x5ULL,0x0ULL>(void)__ptr64 
??1?$PerIsolateAssertScope@$04$0A@@internal@v8@@QEAA@XZ
; public: __cdecl v8::internal::<0x0ULL,0x1ULL>::~<0x0ULL,0x1ULL>(void)__ptr64 
??1?$PerIsolateAssertScope@$0A@$00@internal@v8@@QEAA@XZ
; public: __cdecl v8::internal::<0x0ULL,0x0ULL>::~<0x0ULL,0x0ULL>(void)__ptr64 
??1?$PerIsolateAssertScope@$0A@$0A@@internal@v8@@QEAA@XZ
; public: __cdecl v8::internal::<0x1ULL,0x1ULL>::~<0x1ULL,0x1ULL>(void)__ptr64 
??1?$PerThreadAssertScope@$00$00@internal@v8@@QEAA@XZ
; public: __cdecl v8::internal::<0x1ULL,0x0ULL>::~<0x1ULL,0x0ULL>(void)__ptr64 
??1?$PerThreadAssertScope@$00$0A@@internal@v8@@QEAA@XZ
; public: __cdecl v8::internal::<0x2ULL,0x1ULL>::~<0x2ULL,0x1ULL>(void)__ptr64 
??1?$PerThreadAssertScope@$01$00@internal@v8@@QEAA@XZ
; public: __cdecl v8::internal::<0x2ULL,0x0ULL>::~<0x2ULL,0x0ULL>(void)__ptr64 
??1?$PerThreadAssertScope@$01$0A@@internal@v8@@QEAA@XZ
; public: __cdecl v8::internal::<0x3ULL,0x1ULL>::~<0x3ULL,0x1ULL>(void)__ptr64 
??1?$PerThreadAssertScope@$02$00@internal@v8@@QEAA@XZ
; public: __cdecl v8::internal::<0x3ULL,0x0ULL>::~<0x3ULL,0x0ULL>(void)__ptr64 
??1?$PerThreadAssertScope@$02$0A@@internal@v8@@QEAA@XZ
; public: __cdecl v8::internal::<0x4ULL,0x1ULL>::~<0x4ULL,0x1ULL>(void)__ptr64 
??1?$PerThreadAssertScope@$03$00@internal@v8@@QEAA@XZ
; public: __cdecl v8::internal::<0x4ULL,0x0ULL>::~<0x4ULL,0x0ULL>(void)__ptr64 
??1?$PerThreadAssertScope@$03$0A@@internal@v8@@QEAA@XZ
; public: __cdecl v8::internal::<0x0ULL,0x1ULL>::~<0x0ULL,0x1ULL>(void)__ptr64 
??1?$PerThreadAssertScope@$0A@$00@internal@v8@@QEAA@XZ
; public: __cdecl v8::internal::<0x0ULL,0x0ULL>::~<0x0ULL,0x0ULL>(void)__ptr64 
??1?$PerThreadAssertScope@$0A@$0A@@internal@v8@@QEAA@XZ
; public: __cdecl v8::internal::<class v8::internal::compiler::MoveOperands *__ptr64>::~<class v8::internal::compiler::MoveOperands *__ptr64>(void)__ptr64 
??1?$ZoneVector@PEAVMoveOperands@compiler@internal@v8@@@internal@v8@@QEAA@XZ
; public: virtual __cdecl std::<char,struct std::<char>>::~<char,struct std::<char>>(void)__ptr64 
??1?$basic_ios@DU?$char_traits@D@std@@@std@@UEAA@XZ
; public: virtual __cdecl std::<char,struct std::<char>>::~<char,struct std::<char>>(void)__ptr64 
??1?$basic_ostream@DU?$char_traits@D@std@@@std@@UEAA@XZ
; public: virtual __cdecl std::<char,struct std::<char>>::~<char,struct std::<char>>(void)__ptr64 
??1?$basic_streambuf@DU?$char_traits@D@std@@@std@@UEAA@XZ
; public: __cdecl std::<class v8::internal::compiler::MoveOperands *__ptr64,class v8::internal::<class v8::internal::compiler::MoveOperands *__ptr64>>::~<class v8::internal::compiler::MoveOperands *__ptr64,class v8::internal::<class v8::internal::compiler::MoveOperands *__ptr64>>(void)__ptr64 
??1?$vector@PEAVMoveOperands@compiler@internal@v8@@V?$ZoneAllocator@PEAVMoveOperands@compiler@internal@v8@@@34@@std@@QEAA@XZ
; public: __cdecl std::<struct v8::CpuProfileDeoptFrame,class std::<struct v8::CpuProfileDeoptFrame>>::~<struct v8::CpuProfileDeoptFrame,class std::<struct v8::CpuProfileDeoptFrame>>(void)__ptr64 
??1?$vector@UCpuProfileDeoptFrame@v8@@V?$allocator@UCpuProfileDeoptFrame@v8@@@std@@@std@@QEAA@XZ
; public: __cdecl std::<struct v8::CpuProfileDeoptInfo,class std::<struct v8::CpuProfileDeoptInfo>>::~<struct v8::CpuProfileDeoptInfo,class std::<struct v8::CpuProfileDeoptInfo>>(void)__ptr64 
??1?$vector@UCpuProfileDeoptInfo@v8@@V?$allocator@UCpuProfileDeoptInfo@v8@@@std@@@std@@QEAA@XZ
; public: virtual __cdecl v8::internal::interpreter::AbstractBytecodeArray::~AbstractBytecodeArray(void)__ptr64 
??1AbstractBytecodeArray@interpreter@internal@v8@@UEAA@XZ
; public: virtual __cdecl v8::internal::AccountingAllocator::~AccountingAllocator(void)__ptr64 
??1AccountingAllocator@internal@v8@@UEAA@XZ
; public: virtual __cdecl v8::ActivityControl::~ActivityControl(void)__ptr64 
??1ActivityControl@v8@@UEAA@XZ
; public: virtual __cdecl v8::internal::compiler::AddTypeAssertionsReducer::~AddTypeAssertionsReducer(void)__ptr64 
??1AddTypeAssertionsReducer@compiler@internal@v8@@UEAA@XZ
; public: __cdecl v8::internal::AddressToTraceMap::~AddressToTraceMap(void)__ptr64 
??1AddressToTraceMap@internal@v8@@QEAA@XZ
; public: virtual __cdecl v8::AllocationProfile::~AllocationProfile(void)__ptr64 
??1AllocationProfile@v8@@UEAA@XZ
; public: virtual __cdecl v8::ArrayBuffer::Allocator::~Allocator(void)__ptr64 
??1Allocator@ArrayBuffer@v8@@UEAA@XZ
; public: __cdecl v8::Isolate::AllowJavascriptExecutionScope::~AllowJavascriptExecutionScope(void)__ptr64 
??1AllowJavascriptExecutionScope@Isolate@v8@@QEAA@XZ
; public: virtual __cdecl node::ArrayBufferAllocator::~ArrayBufferAllocator(void)__ptr64 
??1ArrayBufferAllocator@node@@UEAA@XZ
; protected: virtual __cdecl v8::internal::wasm::AsmCallableType::~AsmCallableType(void)__ptr64 
??1AsmCallableType@wasm@internal@v8@@MEAA@XZ
; public: virtual __cdecl v8::internal::wasm::AsmFunctionType::~AsmFunctionType(void)__ptr64 
??1AsmFunctionType@wasm@internal@v8@@UEAA@XZ
; public: __cdecl v8::internal::AsmJsScanner::~AsmJsScanner(void)__ptr64 
??1AsmJsScanner@internal@v8@@QEAA@XZ
; public: virtual __cdecl v8::internal::wasm::AsmOverloadedFunctionType::~AsmOverloadedFunctionType(void)__ptr64 
??1AsmOverloadedFunctionType@wasm@internal@v8@@UEAA@XZ
; public: virtual __cdecl v8::internal::Assembler::~Assembler(void)__ptr64 
??1Assembler@internal@v8@@UEAA@XZ
; public: virtual __cdecl v8::internal::AssemblerBase::~AssemblerBase(void)__ptr64 
??1AssemblerBase@internal@v8@@UEAA@XZ
; public: virtual __cdecl node::AsyncResource::~AsyncResource(void)__ptr64 
??1AsyncResource@node@@UEAA@XZ
; public: __cdecl v8::internal::BackgroundCompileTask::~BackgroundCompileTask(void)__ptr64 
??1BackgroundCompileTask@internal@v8@@QEAA@XZ
; public: __cdecl v8::internal::GCTracer::BackgroundScope::~BackgroundScope(void)__ptr64 
??1BackgroundScope@GCTracer@internal@v8@@QEAA@XZ
; public: __cdecl v8::Context::BackupIncumbentScope::~BackupIncumbentScope(void)__ptr64 
??1BackupIncumbentScope@Context@v8@@QEAA@XZ
; public: __cdecl v8::internal::compiler::BasicBlock::~BasicBlock(void)__ptr64 
??1BasicBlock@compiler@internal@v8@@QEAA@XZ
; public: virtual __cdecl v8::internal::BigIntToI32PairDescriptor::~BigIntToI32PairDescriptor(void)__ptr64 
??1BigIntToI32PairDescriptor@internal@v8@@UEAA@XZ
; public: virtual __cdecl v8::internal::BigIntToI64Descriptor::~BigIntToI64Descriptor(void)__ptr64 
??1BigIntToI64Descriptor@internal@v8@@UEAA@XZ
; public: virtual __cdecl v8::internal::interpreter::BlockBuilder::~BlockBuilder(void)__ptr64 
??1BlockBuilder@interpreter@internal@v8@@UEAA@XZ
; public: __cdecl v8::debug::Coverage::BlockData::~BlockData(void)__ptr64 
??1BlockData@Coverage@debug@v8@@QEAA@XZ
; public: virtual __cdecl v8::base::BoundedPageAllocator::~BoundedPageAllocator(void)__ptr64 
??1BoundedPageAllocator@base@v8@@UEAA@XZ
; public: virtual __cdecl v8::internal::compiler::BranchElimination::~BranchElimination(void)__ptr64 
??1BranchElimination@compiler@internal@v8@@UEAA@XZ
; public: virtual __cdecl v8::internal::interpreter::BreakableControlFlowBuilder::~BreakableControlFlowBuilder(void)__ptr64 
??1BreakableControlFlowBuilder@interpreter@internal@v8@@UEAA@XZ
; public: __cdecl v8::internal::PreparseDataBuilder::ByteData::~ByteData(void)__ptr64 
??1ByteData@PreparseDataBuilder@internal@v8@@QEAA@XZ
; public: __cdecl v8::internal::compiler::BytecodeAnalysis::~BytecodeAnalysis(void)__ptr64 
??1BytecodeAnalysis@compiler@internal@v8@@QEAA@XZ
; public: __cdecl v8::internal::interpreter::BytecodeArrayAccessor::~BytecodeArrayAccessor(void)__ptr64 
??1BytecodeArrayAccessor@interpreter@internal@v8@@QEAA@XZ
; public: __cdecl v8::internal::interpreter::BytecodeArrayBuilder::~BytecodeArrayBuilder(void)__ptr64 
??1BytecodeArrayBuilder@interpreter@internal@v8@@QEAA@XZ
; public: __cdecl v8::internal::interpreter::BytecodeArrayIterator::~BytecodeArrayIterator(void)__ptr64 
??1BytecodeArrayIterator@interpreter@internal@v8@@QEAA@XZ
; public: __cdecl v8::internal::interpreter::BytecodeArrayRandomIterator::~BytecodeArrayRandomIterator(void)__ptr64 
??1BytecodeArrayRandomIterator@interpreter@internal@v8@@QEAA@XZ
; public: __cdecl v8::internal::interpreter::BytecodeArrayWriter::~BytecodeArrayWriter(void)__ptr64 
??1BytecodeArrayWriter@interpreter@internal@v8@@QEAA@XZ
; public: virtual __cdecl v8::internal::wasm::BytecodeIterator::~BytecodeIterator(void)__ptr64 
??1BytecodeIterator@wasm@internal@v8@@UEAA@XZ
; public: __cdecl v8::internal::interpreter::BytecodeLabels::~BytecodeLabels(void)__ptr64 
??1BytecodeLabels@interpreter@internal@v8@@QEAA@XZ
; public: __cdecl v8::internal::compiler::BytecodeLivenessMap::~BytecodeLivenessMap(void)__ptr64 
??1BytecodeLivenessMap@compiler@internal@v8@@QEAA@XZ
; public: virtual __cdecl v8::internal::interpreter::BytecodeRegisterOptimizer::~BytecodeRegisterOptimizer(void)__ptr64 
??1BytecodeRegisterOptimizer@interpreter@internal@v8@@UEAA@XZ
; public: __cdecl v8::ScriptCompiler::CachedData::~CachedData(void)__ptr64 
??1CachedData@ScriptCompiler@v8@@QEAA@XZ
; public: virtual __cdecl v8::internal::CallInterfaceDescriptor::~CallInterfaceDescriptor(void)__ptr64 
??1CallInterfaceDescriptor@internal@v8@@UEAA@XZ
; public: __cdecl node::AsyncResource::CallbackScope::~CallbackScope(void)__ptr64 
??1CallbackScope@AsyncResource@node@@QEAA@XZ
; public: __cdecl node::CallbackScope::~CallbackScope(void)__ptr64 
??1CallbackScope@node@@QEAA@XZ
; public: virtual __cdecl v8::internal::Cancelable::~Cancelable(void)__ptr64 
??1Cancelable@internal@v8@@UEAA@XZ
; public: virtual __cdecl v8::internal::CancelableTask::~CancelableTask(void)__ptr64 
??1CancelableTask@internal@v8@@UEAA@XZ
; public: __cdecl v8::internal::CancelableTaskManager::~CancelableTaskManager(void)__ptr64 
??1CancelableTaskManager@internal@v8@@QEAA@XZ
; public: __cdecl v8::internal::CanonicalHandleScope::~CanonicalHandleScope(void)__ptr64 
??1CanonicalHandleScope@internal@v8@@QEAA@XZ
; public: virtual __cdecl v8_inspector::V8Inspector::Channel::~Channel(void)__ptr64 
??1Channel@V8Inspector@v8_inspector@@UEAA@XZ
; public: virtual __cdecl v8::internal::compiler::CheckpointElimination::~CheckpointElimination(void)__ptr64 
??1CheckpointElimination@compiler@internal@v8@@UEAA@XZ
; public: __cdecl v8::internal::ClassScope::~ClassScope(void)__ptr64 
??1ClassScope@internal@v8@@QEAA@XZ
; public: __cdecl v8::internal::compiler::CodeAssembler::~CodeAssembler(void)__ptr64 
??1CodeAssembler@compiler@internal@v8@@QEAA@XZ
; public: __cdecl v8::internal::compiler::CodeAssemblerLabel::~CodeAssemblerLabel(void)__ptr64 
??1CodeAssemblerLabel@compiler@internal@v8@@QEAA@XZ
; public: __cdecl v8::internal::compiler::CodeAssemblerScopedExceptionHandler::~CodeAssemblerScopedExceptionHandler(void)__ptr64 
??1CodeAssemblerScopedExceptionHandler@compiler@internal@v8@@QEAA@XZ
; public: __cdecl v8::internal::compiler::CodeAssemblerState::~CodeAssemblerState(void)__ptr64 
??1CodeAssemblerState@compiler@internal@v8@@QEAA@XZ
; public: __cdecl v8::internal::compiler::CodeAssemblerVariable::~CodeAssemblerVariable(void)__ptr64 
??1CodeAssemblerVariable@compiler@internal@v8@@QEAA@XZ
; public: virtual __cdecl v8::CodeEventHandler::~CodeEventHandler(void)__ptr64 
??1CodeEventHandler@v8@@UEAA@XZ
; public: virtual __cdecl v8::internal::CodeEventLogger::~CodeEventLogger(void)__ptr64 
??1CodeEventLogger@internal@v8@@UEAA@XZ
; public: virtual __cdecl v8::internal::compiler::CodeGenerator::~CodeGenerator(void)__ptr64 
??1CodeGenerator@compiler@internal@v8@@UEAA@XZ
; public: __cdecl v8::internal::CodeMap::~CodeMap(void)__ptr64 
??1CodeMap@internal@v8@@QEAA@XZ
; public: __cdecl v8::internal::CodeObjectRegistry::~CodeObjectRegistry(void)__ptr64 
??1CodeObjectRegistry@internal@v8@@QEAA@XZ
; public: __cdecl v8::internal::CombinedHeapObjectIterator::~CombinedHeapObjectIterator(void)__ptr64 
??1CombinedHeapObjectIterator@internal@v8@@QEAA@XZ
; public: virtual __cdecl v8::internal::compiler::CommonOperatorReducer::~CommonOperatorReducer(void)__ptr64 
??1CommonOperatorReducer@compiler@internal@v8@@UEAA@XZ
; public: virtual __cdecl v8::internal::CompactionSpace::~CompactionSpace(void)__ptr64 
??1CompactionSpace@internal@v8@@UEAA@XZ
; private: __cdecl v8::internal::CompilationCache::~CompilationCache(void)__ptr64 
??1CompilationCache@internal@v8@@AEAA@XZ
; public: __cdecl v8::internal::compiler::CompilationDependencies::~CompilationDependencies(void)__ptr64 
??1CompilationDependencies@compiler@internal@v8@@QEAA@XZ
; public: virtual __cdecl v8::internal::CompilationJob::~CompilationJob(void)__ptr64 
??1CompilationJob@internal@v8@@UEAA@XZ
; public: virtual __cdecl v8::internal::wasm::CompilationResultResolver::~CompilationResultResolver(void)__ptr64 
??1CompilationResultResolver@wasm@internal@v8@@UEAA@XZ
; public: __cdecl v8::CompiledWasmModule::~CompiledWasmModule(void)__ptr64 
??1CompiledWasmModule@v8@@QEAA@XZ
; public: __cdecl v8::internal::CompilerDispatcher::~CompilerDispatcher(void)__ptr64 
??1CompilerDispatcher@internal@v8@@QEAA@XZ
; public: __cdecl v8::internal::ConcurrentMarking::~ConcurrentMarking(void)__ptr64 
??1ConcurrentMarking@internal@v8@@QEAA@XZ
; public: __cdecl v8::base::ConditionVariable::~ConditionVariable(void)__ptr64 
??1ConditionVariable@base@v8@@QEAA@XZ
; public: virtual __cdecl v8::internal::interpreter::ConditionalControlFlowBuilder::~ConditionalControlFlowBuilder(void)__ptr64 
??1ConditionalControlFlowBuilder@interpreter@internal@v8@@UEAA@XZ
; public: __cdecl v8::internal::interpreter::ConstantArrayBuilder::~ConstantArrayBuilder(void)__ptr64 
??1ConstantArrayBuilder@interpreter@internal@v8@@QEAA@XZ
; public: virtual __cdecl v8::internal::compiler::ConstantFoldingReducer::~ConstantFoldingReducer(void)__ptr64 
??1ConstantFoldingReducer@compiler@internal@v8@@UEAA@XZ
; public: __cdecl v8::internal::compiler::ControlEquivalence::~ControlEquivalence(void)__ptr64 
??1ControlEquivalence@compiler@internal@v8@@QEAA@XZ
; public: virtual __cdecl v8::internal::interpreter::ControlFlowBuilder::~ControlFlowBuilder(void)__ptr64 
??1ControlFlowBuilder@interpreter@internal@v8@@UEAA@XZ
; public: __cdecl v8::internal::compiler::ControlFlowOptimizer::~ControlFlowOptimizer(void)__ptr64 
??1ControlFlowOptimizer@compiler@internal@v8@@QEAA@XZ
; public: __cdecl v8::debug::Coverage::~Coverage(void)__ptr64 
??1Coverage@debug@v8@@QEAA@XZ
; public: __cdecl v8::internal::CpuFeatureScope::~CpuFeatureScope(void)__ptr64 
??1CpuFeatureScope@internal@v8@@QEAA@XZ
; public: __cdecl v8::CpuProfileDeoptInfo::~CpuProfileDeoptInfo(void)__ptr64 
??1CpuProfileDeoptInfo@v8@@QEAA@XZ
; public: __cdecl v8::internal::CpuProfiler::~CpuProfiler(void)__ptr64 
??1CpuProfiler@internal@v8@@QEAA@XZ
; public: __cdecl v8::internal::CpuProfilesCollection::~CpuProfilesCollection(void)__ptr64 
??1CpuProfilesCollection@internal@v8@@QEAA@XZ
; public: virtual __cdecl v8::internal::compiler::CsaLoadElimination::~CsaLoadElimination(void)__ptr64 
??1CsaLoadElimination@compiler@internal@v8@@UEAA@XZ
; public: virtual __cdecl v8::internal::DateCache::~DateCache(void)__ptr64 
??1DateCache@internal@v8@@UEAA@XZ
; public: virtual __cdecl v8::internal::DbgStreamBuf::~DbgStreamBuf(void)__ptr64 
??1DbgStreamBuf@internal@v8@@UEAA@XZ
; public: virtual __cdecl v8::internal::compiler::DeadCodeElimination::~DeadCodeElimination(void)__ptr64 
??1DeadCodeElimination@compiler@internal@v8@@UEAA@XZ
; private: __cdecl v8::internal::Debug::~Debug(void)__ptr64 
??1Debug@internal@v8@@AEAA@XZ
; public: __cdecl v8::internal::DeclarationScope::~DeclarationScope(void)__ptr64 
??1DeclarationScope@internal@v8@@QEAA@XZ
; public: virtual __cdecl v8::internal::compiler::DecompressionElimination::~DecompressionElimination(void)__ptr64 
??1DecompressionElimination@compiler@internal@v8@@UEAA@XZ
; public: __cdecl v8::internal::DeferredHandleScope::~DeferredHandleScope(void)__ptr64 
??1DeferredHandleScope@internal@v8@@QEAA@XZ
; public: __cdecl v8::internal::DeferredHandles::~DeferredHandles(void)__ptr64 
??1DeferredHandles@internal@v8@@QEAA@XZ
; public: virtual __cdecl v8::ValueDeserializer::Delegate::~Delegate(void)__ptr64 
??1Delegate@ValueDeserializer@v8@@UEAA@XZ
; public: virtual __cdecl v8::ValueSerializer::Delegate::~Delegate(void)__ptr64 
??1Delegate@ValueSerializer@v8@@UEAA@XZ
; public: virtual __cdecl v8::internal::Deserializer::~Deserializer(void)__ptr64 
??1Deserializer@internal@v8@@UEAA@XZ
; public: __cdecl v8::Isolate::DisallowJavascriptExecutionScope::~DisallowJavascriptExecutionScope(void)__ptr64 
??1DisallowJavascriptExecutionScope@Isolate@v8@@QEAA@XZ
; public: __cdecl v8::internal::wasm::DisjointAllocationPool::~DisjointAllocationPool(void)__ptr64 
??1DisjointAllocationPool@wasm@internal@v8@@QEAA@XZ
; public: virtual __cdecl v8_inspector::protocol::Schema::API::Domain::~Domain(void)__ptr64 
??1Domain@API@Schema@protocol@v8_inspector@@UEAA@XZ
; public: __cdecl v8::internal::EhFrameWriter::~EhFrameWriter(void)__ptr64 
??1EhFrameWriter@internal@v8@@QEAA@XZ
; public: virtual __cdecl v8::EmbedderGraph::~EmbedderGraph(void)__ptr64 
??1EmbedderGraph@v8@@UEAA@XZ
; public: virtual __cdecl v8::EmbedderHeapTracer::~EmbedderHeapTracer(void)__ptr64 
??1EmbedderHeapTracer@v8@@UEAA@XZ
; public: __cdecl v8::internal::EmbedderStackStateScope::~EmbedderStackStateScope(void)__ptr64 
??1EmbedderStackStateScope@internal@v8@@QEAA@XZ
; public: __cdecl v8::debug::TypeProfile::Entry::~Entry(void)__ptr64 
??1Entry@TypeProfile@debug@v8@@QEAA@XZ
; public: __cdecl v8::internal::wasm::ErrorThrower::~ErrorThrower(void)__ptr64 
??1ErrorThrower@wasm@internal@v8@@QEAA@XZ
; public: __cdecl v8::EscapableHandleScope::~EscapableHandleScope(void)__ptr64 
??1EscapableHandleScope@v8@@QEAA@XZ
; public: __cdecl v8::internal::compiler::EscapeAnalysis::~EscapeAnalysis(void)__ptr64 
??1EscapeAnalysis@compiler@internal@v8@@QEAA@XZ
; public: virtual __cdecl v8::internal::compiler::EscapeAnalysisReducer::~EscapeAnalysisReducer(void)__ptr64 
??1EscapeAnalysisReducer@compiler@internal@v8@@UEAA@XZ
; public: virtual __cdecl v8_inspector::protocol::Exported::~Exported(void)__ptr64 
??1Exported@protocol@v8_inspector@@UEAA@XZ
; public: virtual __cdecl v8::Extension::~Extension(void)__ptr64 
??1Extension@v8@@UEAA@XZ
; public: virtual __cdecl v8::String::ExternalOneByteStringResource::~ExternalOneByteStringResource(void)__ptr64 
??1ExternalOneByteStringResource@String@v8@@UEAA@XZ
; public: virtual __cdecl v8::ExternalResourceVisitor::~ExternalResourceVisitor(void)__ptr64 
??1ExternalResourceVisitor@v8@@UEAA@XZ
; public: virtual __cdecl v8::ScriptCompiler::ExternalSourceStream::~ExternalSourceStream(void)__ptr64 
??1ExternalSourceStream@ScriptCompiler@v8@@UEAA@XZ
; public: virtual __cdecl v8::String::ExternalStringResource::~ExternalStringResource(void)__ptr64 
??1ExternalStringResource@String@v8@@UEAA@XZ
; public: virtual __cdecl v8::String::ExternalStringResourceBase::~ExternalStringResourceBase(void)__ptr64 
??1ExternalStringResourceBase@String@v8@@UEAA@XZ
; public: __cdecl v8::internal::FeedbackVectorSpec::~FeedbackVectorSpec(void)__ptr64 
??1FeedbackVectorSpec@internal@v8@@QEAA@XZ
; public: virtual __cdecl v8::internal::FlatStringReader::~FlatStringReader(void)__ptr64 
??1FlatStringReader@internal@v8@@UEAA@XZ
; public: __cdecl v8::internal::FrameSummary::~FrameSummary(void)__ptr64 
??1FrameSummary@internal@v8@@QEAA@XZ
; public: virtual __cdecl v8::internal::FreeListFastAlloc::~FreeListFastAlloc(void)__ptr64 
??1FreeListFastAlloc@internal@v8@@UEAA@XZ
; public: virtual __cdecl v8::internal::FreeListLegacy::~FreeListLegacy(void)__ptr64 
??1FreeListLegacy@internal@v8@@UEAA@XZ
; public: virtual __cdecl v8::internal::FreeListMany::~FreeListMany(void)__ptr64 
??1FreeListMany@internal@v8@@UEAA@XZ
; public: virtual __cdecl v8::internal::FreeListManyCached::~FreeListManyCached(void)__ptr64 
??1FreeListManyCached@internal@v8@@UEAA@XZ
; public: virtual __cdecl v8::internal::FreeListManyCachedFastPath::~FreeListManyCachedFastPath(void)__ptr64 
??1FreeListManyCachedFastPath@internal@v8@@UEAA@XZ
; public: virtual __cdecl v8::internal::FreeListManyCachedOrigin::~FreeListManyCachedOrigin(void)__ptr64 
??1FreeListManyCachedOrigin@internal@v8@@UEAA@XZ
; public: virtual __cdecl v8::internal::FreeListMap::~FreeListMap(void)__ptr64 
??1FreeListMap@internal@v8@@UEAA@XZ
; public: __cdecl v8::debug::Coverage::FunctionData::~FunctionData(void)__ptr64 
??1FunctionData@Coverage@debug@v8@@QEAA@XZ
; public: __cdecl v8::internal::GCTracer::~GCTracer(void)__ptr64 
??1GCTracer@internal@v8@@QEAA@XZ
; public: __cdecl v8::internal::GlobalHandles::~GlobalHandles(void)__ptr64 
??1GlobalHandles@internal@v8@@QEAA@XZ
; public: __cdecl v8::internal::compiler::Graph::~Graph(void)__ptr64 
??1Graph@compiler@internal@v8@@QEAA@XZ
; public: virtual __cdecl v8::internal::compiler::GraphReducer::~GraphReducer(void)__ptr64 
??1GraphReducer@compiler@internal@v8@@UEAA@XZ
; public: __cdecl v8::internal::compiler::GraphTrimmer::~GraphTrimmer(void)__ptr64 
??1GraphTrimmer@compiler@internal@v8@@QEAA@XZ
; public: __cdecl v8::HandleScope::~HandleScope(void)__ptr64 
??1HandleScope@v8@@QEAA@XZ
; public: __cdecl v8::internal::interpreter::HandlerTableBuilder::~HandlerTableBuilder(void)__ptr64 
??1HandlerTableBuilder@interpreter@internal@v8@@QEAA@XZ
; public: __cdecl v8::internal::HeapObjectIterator::~HeapObjectIterator(void)__ptr64 
??1HeapObjectIterator@internal@v8@@QEAA@XZ
; public: virtual __cdecl v8::internal::I32PairToBigIntDescriptor::~I32PairToBigIntDescriptor(void)__ptr64 
??1I32PairToBigIntDescriptor@internal@v8@@UEAA@XZ
; public: virtual __cdecl v8::internal::I64ToBigIntDescriptor::~I64ToBigIntDescriptor(void)__ptr64 
??1I64ToBigIntDescriptor@internal@v8@@UEAA@XZ
; protected: virtual __cdecl v8::internal::IdentityMapBase::~IdentityMapBase(void)__ptr64 
??1IdentityMapBase@internal@v8@@MEAA@XZ
; public: __cdecl v8::internal::IncrementalMarking::~IncrementalMarking(void)__ptr64 
??1IncrementalMarking@internal@v8@@QEAA@XZ
; public: virtual __cdecl v8_inspector::V8InspectorSession::Inspectable::~Inspectable(void)__ptr64 
??1Inspectable@V8InspectorSession@v8_inspector@@UEAA@XZ
; public: virtual __cdecl v8::internal::wasm::InstantiationResultResolver::~InstantiationResultResolver(void)__ptr64 
??1InstantiationResultResolver@wasm@internal@v8@@UEAA@XZ
; public: __cdecl v8::internal::compiler::InstructionBlock::~InstructionBlock(void)__ptr64 
??1InstructionBlock@compiler@internal@v8@@QEAA@XZ
; public: __cdecl v8::internal::compiler::InstructionSelector::~InstructionSelector(void)__ptr64 
??1InstructionSelector@compiler@internal@v8@@QEAA@XZ
; public: __cdecl v8::internal::compiler::InstructionSequence::~InstructionSequence(void)__ptr64 
??1InstructionSequence@compiler@internal@v8@@QEAA@XZ
; public: __cdecl v8::internal::compiler::Int64Lowering::~Int64Lowering(void)__ptr64 
??1Int64Lowering@compiler@internal@v8@@QEAA@XZ
; public: virtual __cdecl v8::internal::InterpreterDispatchDescriptor::~InterpreterDispatchDescriptor(void)__ptr64 
??1InterpreterDispatchDescriptor@internal@v8@@UEAA@XZ
; public: __cdecl v8::internal::InvalidatedSlotsCleanup::~InvalidatedSlotsCleanup(void)__ptr64 
??1InvalidatedSlotsCleanup@internal@v8@@QEAA@XZ
; public: __cdecl v8::internal::InvalidatedSlotsFilter::~InvalidatedSlotsFilter(void)__ptr64 
??1InvalidatedSlotsFilter@internal@v8@@QEAA@XZ
; public: __cdecl v8::internal::IsolateAllocator::~IsolateAllocator(void)__ptr64 
??1IsolateAllocator@internal@v8@@QEAA@XZ
; public: virtual __cdecl v8::internal::ItemParallelJob::Item::~Item(void)__ptr64 
??1Item@ItemParallelJob@internal@v8@@UEAA@XZ
; public: __cdecl v8::internal::ItemParallelJob::~ItemParallelJob(void)__ptr64 
??1ItemParallelJob@internal@v8@@QEAA@XZ
; public: virtual __cdecl v8::internal::compiler::JSCallReducer::~JSCallReducer(void)__ptr64 
??1JSCallReducer@compiler@internal@v8@@UEAA@XZ
; public: virtual __cdecl v8::internal::compiler::JSContextSpecialization::~JSContextSpecialization(void)__ptr64 
??1JSContextSpecialization@compiler@internal@v8@@UEAA@XZ
; public: virtual __cdecl v8::internal::compiler::JSCreateLowering::~JSCreateLowering(void)__ptr64 
??1JSCreateLowering@compiler@internal@v8@@UEAA@XZ
; public: __cdecl v8::internal::compiler::JSHeapBroker::~JSHeapBroker(void)__ptr64 
??1JSHeapBroker@compiler@internal@v8@@QEAA@XZ
; public: virtual __cdecl v8::internal::compiler::JSHeapCopyReducer::~JSHeapCopyReducer(void)__ptr64 
??1JSHeapCopyReducer@compiler@internal@v8@@UEAA@XZ
; public: virtual __cdecl v8::internal::compiler::JSIntrinsicLowering::~JSIntrinsicLowering(void)__ptr64 
??1JSIntrinsicLowering@compiler@internal@v8@@UEAA@XZ
; public: virtual __cdecl v8::internal::compiler::JSNativeContextSpecialization::~JSNativeContextSpecialization(void)__ptr64 
??1JSNativeContextSpecialization@compiler@internal@v8@@UEAA@XZ
; public: __cdecl v8::internal::wasm::JSToWasmWrapperCompilationUnit::~JSToWasmWrapperCompilationUnit(void)__ptr64 
??1JSToWasmWrapperCompilationUnit@wasm@internal@v8@@QEAA@XZ
; public: virtual __cdecl v8::internal::compiler::JSTypedLowering::~JSTypedLowering(void)__ptr64 
??1JSTypedLowering@compiler@internal@v8@@UEAA@XZ
; public: virtual __cdecl v8::internal::wasm::JumpTableAssembler::~JumpTableAssembler(void)__ptr64 
??1JumpTableAssembler@wasm@internal@v8@@UEAA@XZ
; public: virtual __cdecl v8::internal::compiler::LoadElimination::~LoadElimination(void)__ptr64 
??1LoadElimination@compiler@internal@v8@@UEAA@XZ
; public: __cdecl v8::internal::wasm::LocalDeclEncoder::~LocalDeclEncoder(void)__ptr64 
??1LocalDeclEncoder@wasm@internal@v8@@QEAA@XZ
; public: __cdecl v8::internal::LocalEmbedderHeapTracer::~LocalEmbedderHeapTracer(void)__ptr64 
??1LocalEmbedderHeapTracer@internal@v8@@QEAA@XZ
; public: __cdecl v8::Locker::~Locker(void)__ptr64 
??1Locker@v8@@QEAA@XZ
; public: virtual __cdecl v8::internal::interpreter::LoopBuilder::~LoopBuilder(void)__ptr64 
??1LoopBuilder@interpreter@internal@v8@@UEAA@XZ
; public: __cdecl v8::internal::compiler::LoopInfo::~LoopInfo(void)__ptr64 
??1LoopInfo@compiler@internal@v8@@QEAA@XZ
; public: virtual __cdecl v8::internal::compiler::MachineOperatorReducer::~MachineOperatorReducer(void)__ptr64 
??1MachineOperatorReducer@compiler@internal@v8@@UEAA@XZ
; public: virtual __cdecl v8::internal::MacroAssembler::~MacroAssembler(void)__ptr64 
??1MacroAssembler@internal@v8@@UEAA@XZ
; public: virtual __cdecl v8::base::OS::MemoryMappedFile::~MemoryMappedFile(void)__ptr64 
??1MemoryMappedFile@OS@base@v8@@UEAA@XZ
; public: __cdecl v8::internal::MemoryReducer::~MemoryReducer(void)__ptr64 
??1MemoryReducer@internal@v8@@QEAA@XZ
; public: virtual __cdecl v8::internal::MicrotaskQueue::~MicrotaskQueue(void)__ptr64 
??1MicrotaskQueue@internal@v8@@UEAA@XZ
; public: virtual __cdecl v8::MicrotaskQueue::~MicrotaskQueue(void)__ptr64 
??1MicrotaskQueue@v8@@UEAA@XZ
; public: __cdecl v8::MicrotasksScope::~MicrotasksScope(void)__ptr64 
??1MicrotasksScope@v8@@QEAA@XZ
; public: __cdecl v8::internal::compiler::MoveOptimizer::~MoveOptimizer(void)__ptr64 
??1MoveOptimizer@compiler@internal@v8@@QEAA@XZ
; public: virtual __cdecl node::MultiIsolatePlatform::~MultiIsolatePlatform(void)__ptr64 
??1MultiIsolatePlatform@node@@UEAA@XZ
; public: __cdecl v8::base::Mutex::~Mutex(void)__ptr64 
??1Mutex@base@v8@@QEAA@XZ
; public: virtual __cdecl disasm::NameConverter::~NameConverter(void)__ptr64 
??1NameConverter@disasm@@UEAA@XZ
; public: __cdecl v8::internal::wasm::NativeModule::~NativeModule(void)__ptr64 
??1NativeModule@wasm@internal@v8@@QEAA@XZ
; public: __cdecl v8::internal::wasm::NativeModuleSerializer::~NativeModuleSerializer(void)__ptr64 
??1NativeModuleSerializer@wasm@internal@v8@@QEAA@XZ
; public: virtual __cdecl v8::internal::NewSpace::~NewSpace(void)__ptr64 
??1NewSpace@internal@v8@@UEAA@XZ
; public: __cdecl v8::internal::compiler::NodeOriginTable::~NodeOriginTable(void)__ptr64 
??1NodeOriginTable@compiler@internal@v8@@QEAA@XZ
; public: virtual __cdecl v8::internal::OFStream::~OFStream(void)__ptr64 
??1OFStream@internal@v8@@UEAA@XZ
; public: virtual __cdecl v8::internal::OFStreamBase::~OFStreamBase(void)__ptr64 
??1OFStreamBase@internal@v8@@UEAA@XZ
; public: virtual __cdecl v8::internal::ObjectIterator::~ObjectIterator(void)__ptr64 
??1ObjectIterator@internal@v8@@UEAA@XZ
; public: virtual __cdecl v8::internal::compiler::Operator::~Operator(void)__ptr64 
??1Operator@compiler@internal@v8@@UEAA@XZ
; public: __cdecl v8::internal::OptimizedCompilationInfo::~OptimizedCompilationInfo(void)__ptr64 
??1OptimizedCompilationInfo@internal@v8@@QEAA@XZ
; public: __cdecl v8::internal::OptimizingCompileDispatcher::~OptimizingCompileDispatcher(void)__ptr64 
??1OptimizingCompileDispatcher@internal@v8@@QEAA@XZ
; public: virtual __cdecl v8::OutputStream::~OutputStream(void)__ptr64 
??1OutputStream@v8@@UEAA@XZ
; public: virtual __cdecl v8::base::PageAllocator::~PageAllocator(void)__ptr64 
??1PageAllocator@base@v8@@UEAA@XZ
; public: virtual __cdecl v8::internal::PagedSpace::~PagedSpace(void)__ptr64 
??1PagedSpace@internal@v8@@UEAA@XZ
; public: virtual __cdecl v8::internal::PagedSpaceObjectIterator::~PagedSpaceObjectIterator(void)__ptr64 
??1PagedSpaceObjectIterator@internal@v8@@UEAA@XZ
; public: __cdecl v8::internal::compiler::ParallelMove::~ParallelMove(void)__ptr64 
??1ParallelMove@compiler@internal@v8@@QEAA@XZ
; public: __cdecl v8::internal::ParseInfo::~ParseInfo(void)__ptr64 
??1ParseInfo@internal@v8@@QEAA@XZ
; public: __cdecl v8::internal::Parser::~Parser(void)__ptr64 
??1Parser@internal@v8@@QEAA@XZ
; public: virtual __cdecl v8::internal::PartialDeserializer::~PartialDeserializer(void)__ptr64 
??1PartialDeserializer@internal@v8@@UEAA@XZ
; public: virtual __cdecl v8::internal::PartialSerializer::~PartialSerializer(void)__ptr64 
??1PartialSerializer@internal@v8@@UEAA@XZ
; public: __cdecl v8::internal::PauseAllocationObserversScope::~PauseAllocationObserversScope(void)__ptr64 
??1PauseAllocationObserversScope@internal@v8@@QEAA@XZ
; public: virtual __cdecl v8::PersistentHandleVisitor::~PersistentHandleVisitor(void)__ptr64 
??1PersistentHandleVisitor@v8@@UEAA@XZ
; public: __cdecl v8::internal::compiler::PhiInstruction::~PhiInstruction(void)__ptr64 
??1PhiInstruction@compiler@internal@v8@@QEAA@XZ
; public: __cdecl v8::internal::PreparseDataBuilder::~PreparseDataBuilder(void)__ptr64 
??1PreparseDataBuilder@internal@v8@@QEAA@XZ
; public: __cdecl v8::internal::LocalEmbedderHeapTracer::ProcessingScope::~ProcessingScope(void)__ptr64 
??1ProcessingScope@LocalEmbedderHeapTracer@internal@v8@@QEAA@XZ
; public: __cdecl v8::internal::ProfileNode::~ProfileNode(void)__ptr64 
??1ProfileNode@internal@v8@@QEAA@XZ
; public: __cdecl v8::internal::ProfileTree::~ProfileTree(void)__ptr64 
??1ProfileTree@internal@v8@@QEAA@XZ
; public: virtual __cdecl v8::internal::ProfilerCodeObserver::~ProfilerCodeObserver(void)__ptr64 
??1ProfilerCodeObserver@internal@v8@@UEAA@XZ
; public: virtual __cdecl v8::internal::ProfilerEventsProcessor::~ProfilerEventsProcessor(void)__ptr64 
??1ProfilerEventsProcessor@internal@v8@@UEAA@XZ
; public: virtual __cdecl v8::internal::ProfilerListener::~ProfilerListener(void)__ptr64 
??1ProfilerListener@internal@v8@@UEAA@XZ
; public: __cdecl v8::PropertyDescriptor::~PropertyDescriptor(void)__ptr64 
??1PropertyDescriptor@v8@@QEAA@XZ
; public: __cdecl v8::internal::compiler::RawMachineAssembler::~RawMachineAssembler(void)__ptr64 
??1RawMachineAssembler@compiler@internal@v8@@QEAA@XZ
; public: __cdecl v8::internal::compiler::RawMachineLabel::~RawMachineLabel(void)__ptr64 
??1RawMachineLabel@compiler@internal@v8@@QEAA@XZ
; public: virtual __cdecl v8::internal::ReadOnlySerializer::~ReadOnlySerializer(void)__ptr64 
??1ReadOnlySerializer@internal@v8@@UEAA@XZ
; public: __cdecl v8::base::RecursiveMutex::~RecursiveMutex(void)__ptr64 
??1RecursiveMutex@base@v8@@QEAA@XZ
; public: virtual __cdecl v8::internal::compiler::Reducer::~Reducer(void)__ptr64 
??1Reducer@compiler@internal@v8@@UEAA@XZ
; public: virtual __cdecl v8::internal::compiler::RedundancyElimination::~RedundancyElimination(void)__ptr64 
??1RedundancyElimination@compiler@internal@v8@@UEAA@XZ
; public: virtual __cdecl v8::internal::RegExpBytecodeGenerator::~RegExpBytecodeGenerator(void)__ptr64 
??1RegExpBytecodeGenerator@internal@v8@@UEAA@XZ
; public: virtual __cdecl v8::internal::RegExpMacroAssemblerX64::~RegExpMacroAssemblerX64(void)__ptr64 
??1RegExpMacroAssemblerX64@internal@v8@@UEAA@XZ
; public: __cdecl v8::base::RegionAllocator::~RegionAllocator(void)__ptr64 
??1RegionAllocator@base@v8@@QEAA@XZ
; public: virtual __cdecl v8::internal::RegisterConfiguration::~RegisterConfiguration(void)__ptr64 
??1RegisterConfiguration@internal@v8@@UEAA@XZ
; public: virtual __cdecl v8_inspector::protocol::Runtime::API::RemoteObject::~RemoteObject(void)__ptr64 
??1RemoteObject@API@Runtime@protocol@v8_inspector@@UEAA@XZ
; public: __cdecl v8::Isolate::SafeForTerminationScope::~SafeForTerminationScope(void)__ptr64 
??1SafeForTerminationScope@Isolate@v8@@QEAA@XZ
; public: virtual __cdecl v8::sampler::Sampler::~Sampler(void)__ptr64 
??1Sampler@sampler@v8@@UEAA@XZ
; public: virtual __cdecl v8::internal::SamplingEventsProcessor::~SamplingEventsProcessor(void)__ptr64 
??1SamplingEventsProcessor@internal@v8@@UEAA@XZ
; public: __cdecl v8::internal::SaveAndSwitchContext::~SaveAndSwitchContext(void)__ptr64 
??1SaveAndSwitchContext@internal@v8@@QEAA@XZ
; public: __cdecl v8::internal::SaveContext::~SaveContext(void)__ptr64 
??1SaveContext@internal@v8@@QEAA@XZ
; public: __cdecl v8::internal::Scanner::~Scanner(void)__ptr64 
??1Scanner@internal@v8@@QEAA@XZ
; public: __cdecl v8::internal::compiler::Schedule::~Schedule(void)__ptr64 
??1Schedule@compiler@internal@v8@@QEAA@XZ
; public: __cdecl v8::internal::compiler::Scheduler::~Scheduler(void)__ptr64 
??1Scheduler@compiler@internal@v8@@QEAA@XZ
; public: __cdecl v8::Isolate::Scope::~Scope(void)__ptr64 
??1Scope@Isolate@v8@@QEAA@XZ
; public: __cdecl v8::internal::Scope::~Scope(void)__ptr64 
??1Scope@internal@v8@@QEAA@XZ
; public: virtual __cdecl v8::debug::ScopeIterator::~ScopeIterator(void)__ptr64 
??1ScopeIterator@debug@v8@@UEAA@XZ
; public: __cdecl v8::debug::Coverage::ScriptData::~ScriptData(void)__ptr64 
??1ScriptData@Coverage@debug@v8@@QEAA@XZ
; public: __cdecl v8::debug::TypeProfile::ScriptData::~ScriptData(void)__ptr64 
??1ScriptData@TypeProfile@debug@v8@@QEAA@XZ
; public: __cdecl v8::internal::ScriptData::~ScriptData(void)__ptr64 
??1ScriptData@internal@v8@@QEAA@XZ
; public: __cdecl v8::SealHandleScope::~SealHandleScope(void)__ptr64 
??1SealHandleScope@v8@@QEAA@XZ
; public: virtual __cdecl v8_inspector::protocol::Debugger::API::SearchMatch::~SearchMatch(void)__ptr64 
??1SearchMatch@API@Debugger@protocol@v8_inspector@@UEAA@XZ
; public: __cdecl v8::base::Semaphore::~Semaphore(void)__ptr64 
??1Semaphore@base@v8@@QEAA@XZ
; public: virtual __cdecl v8::internal::SetupIsolateDelegate::~SetupIsolateDelegate(void)__ptr64 
??1SetupIsolateDelegate@internal@v8@@UEAA@XZ
; public: __cdecl v8::base::SharedMutex::~SharedMutex(void)__ptr64 
??1SharedMutex@base@v8@@QEAA@XZ
; public: __cdecl v8::internal::wasm::SignatureMap::~SignatureMap(void)__ptr64 
??1SignatureMap@wasm@internal@v8@@QEAA@XZ
; public: virtual __cdecl v8::internal::compiler::SimplifiedOperatorReducer::~SimplifiedOperatorReducer(void)__ptr64 
??1SimplifiedOperatorReducer@compiler@internal@v8@@UEAA@XZ
; public: __cdecl v8::SnapshotCreator::~SnapshotCreator(void)__ptr64 
??1SnapshotCreator@v8@@QEAA@XZ
; public: virtual __cdecl v8::internal::SnapshotData::~SnapshotData(void)__ptr64 
??1SnapshotData@internal@v8@@UEAA@XZ
; public: __cdecl v8::internal::compiler::SourceIdAssigner::~SourceIdAssigner(void)__ptr64 
??1SourceIdAssigner@compiler@internal@v8@@QEAA@XZ
; public: __cdecl v8::internal::compiler::SourcePositionTable::~SourcePositionTable(void)__ptr64 
??1SourcePositionTable@compiler@internal@v8@@QEAA@XZ
; public: __cdecl v8::internal::SourcePositionTable::~SourcePositionTable(void)__ptr64 
??1SourcePositionTable@internal@v8@@QEAA@XZ
; public: __cdecl v8::internal::SourcePositionTableBuilder::~SourcePositionTableBuilder(void)__ptr64 
??1SourcePositionTableBuilder@internal@v8@@QEAA@XZ
; public: virtual __cdecl v8::internal::Space::~Space(void)__ptr64 
??1Space@internal@v8@@UEAA@XZ
; public: virtual __cdecl v8::internal::SpaceIterator::~SpaceIterator(void)__ptr64 
??1SpaceIterator@internal@v8@@UEAA@XZ
; public: virtual __cdecl v8_inspector::protocol::Runtime::API::StackTrace::~StackTrace(void)__ptr64 
??1StackTrace@API@Runtime@protocol@v8_inspector@@UEAA@XZ
; public: __cdecl v8::internal::StackTraceFrameIterator::~StackTraceFrameIterator(void)__ptr64 
??1StackTraceFrameIterator@internal@v8@@QEAA@XZ
; public: virtual __cdecl v8_inspector::protocol::Runtime::API::StackTraceId::~StackTraceId(void)__ptr64 
??1StackTraceId@API@Runtime@protocol@v8_inspector@@UEAA@XZ
; public: virtual __cdecl v8::debug::StackTraceIterator::~StackTraceIterator(void)__ptr64 
??1StackTraceIterator@debug@v8@@UEAA@XZ
; public: virtual __cdecl v8::internal::StartupSerializer::~StartupSerializer(void)__ptr64 
??1StartupSerializer@internal@v8@@UEAA@XZ
; public: __cdecl v8::internal::compiler::StateValuesCache::~StateValuesCache(void)__ptr64 
??1StateValuesCache@compiler@internal@v8@@QEAA@XZ
; public: __cdecl v8::internal::StatsCounterThreadSafe::~StatsCounterThreadSafe(void)__ptr64 
??1StatsCounterThreadSafe@internal@v8@@QEAA@XZ
; public: __cdecl v8::internal::compiler::ZoneStats::StatsScope::~StatsScope(void)__ptr64 
??1StatsScope@ZoneStats@compiler@internal@v8@@QEAA@XZ
; public: __cdecl v8::ScriptCompiler::StreamedSource::~StreamedSource(void)__ptr64 
??1StreamedSource@ScriptCompiler@v8@@QEAA@XZ
; public: __cdecl v8::internal::wasm::StreamingDecoder::~StreamingDecoder(void)__ptr64 
??1StreamingDecoder@wasm@internal@v8@@QEAA@XZ
; public: virtual __cdecl v8::internal::wasm::StreamingProcessor::~StreamingProcessor(void)__ptr64 
??1StreamingProcessor@wasm@internal@v8@@UEAA@XZ
; public: virtual __cdecl v8_inspector::StringBuffer::~StringBuffer(void)__ptr64 
??1StringBuffer@v8_inspector@@UEAA@XZ
; public: __cdecl v8::internal::StringsStorage::~StringsStorage(void)__ptr64 
??1StringsStorage@internal@v8@@QEAA@XZ
; public: __cdecl v8::Isolate::SuppressMicrotaskExecutionScope::~SuppressMicrotaskExecutionScope(void)__ptr64 
??1SuppressMicrotaskExecutionScope@Isolate@v8@@QEAA@XZ
; public: virtual __cdecl v8::internal::interpreter::SwitchBuilder::~SwitchBuilder(void)__ptr64 
??1SwitchBuilder@interpreter@internal@v8@@UEAA@XZ
; public: virtual __cdecl v8::internal::ItemParallelJob::Task::~Task(void)__ptr64 
??1Task@ItemParallelJob@internal@v8@@UEAA@XZ
; public: virtual __cdecl v8::base::Thread::~Thread(void)__ptr64 
??1Thread@base@v8@@UEAA@XZ
; public: virtual __cdecl v8::EmbedderHeapTracer::TracedGlobalHandleVisitor::~TracedGlobalHandleVisitor(void)__ptr64 
??1TracedGlobalHandleVisitor@EmbedderHeapTracer@v8@@UEAA@XZ
; public: virtual __cdecl v8::tracing::TracedValue::~TracedValue(void)__ptr64 
??1TracedValue@tracing@v8@@UEAA@XZ
; public: __cdecl v8::TryCatch::~TryCatch(void)__ptr64 
??1TryCatch@v8@@QEAA@XZ
; public: virtual __cdecl v8::internal::interpreter::TryCatchBuilder::~TryCatchBuilder(void)__ptr64 
??1TryCatchBuilder@interpreter@internal@v8@@UEAA@XZ
; public: virtual __cdecl v8::internal::interpreter::TryFinallyBuilder::~TryFinallyBuilder(void)__ptr64 
??1TryFinallyBuilder@interpreter@internal@v8@@UEAA@XZ
; public: virtual __cdecl v8::internal::TurboAssembler::~TurboAssembler(void)__ptr64 
??1TurboAssembler@internal@v8@@UEAA@XZ
; public: virtual __cdecl v8::internal::TurboAssemblerBase::~TurboAssemblerBase(void)__ptr64 
??1TurboAssemblerBase@internal@v8@@UEAA@XZ
; public: __cdecl v8::internal::compiler::TypeCache::~TypeCache(void)__ptr64 
??1TypeCache@compiler@internal@v8@@QEAA@XZ
; public: virtual __cdecl v8::internal::compiler::TypeNarrowingReducer::~TypeNarrowingReducer(void)__ptr64 
??1TypeNarrowingReducer@compiler@internal@v8@@UEAA@XZ
; public: __cdecl v8::debug::TypeProfile::~TypeProfile(void)__ptr64 
??1TypeProfile@debug@v8@@QEAA@XZ
; public: virtual __cdecl v8::internal::compiler::TypedOptimization::~TypedOptimization(void)__ptr64 
??1TypedOptimization@compiler@internal@v8@@UEAA@XZ
; public: virtual __cdecl v8::internal::TypedSlotSet::~TypedSlotSet(void)__ptr64 
??1TypedSlotSet@internal@v8@@UEAA@XZ
; public: virtual __cdecl v8::internal::TypedSlots::~TypedSlots(void)__ptr64 
??1TypedSlots@internal@v8@@UEAA@XZ
; public: __cdecl v8::internal::compiler::Typer::~Typer(void)__ptr64 
??1Typer@compiler@internal@v8@@QEAA@XZ
; public: __cdecl v8::Unlocker::~Unlocker(void)__ptr64 
??1Unlocker@v8@@QEAA@XZ
; public: __cdecl v8::internal::UnoptimizedCompilationInfo::~UnoptimizedCompilationInfo(void)__ptr64 
??1UnoptimizedCompilationInfo@internal@v8@@QEAA@XZ
; public: __cdecl v8::String::Utf8Value::~Utf8Value(void)__ptr64 
??1Utf8Value@String@v8@@QEAA@XZ
; public: virtual __cdecl v8::internal::V8HeapExplorer::~V8HeapExplorer(void)__ptr64 
??1V8HeapExplorer@internal@v8@@UEAA@XZ
; public: virtual __cdecl v8_inspector::V8Inspector::~V8Inspector(void)__ptr64 
??1V8Inspector@v8_inspector@@UEAA@XZ
; public: virtual __cdecl v8_inspector::V8InspectorClient::~V8InspectorClient(void)__ptr64 
??1V8InspectorClient@v8_inspector@@UEAA@XZ
; public: virtual __cdecl v8_inspector::V8InspectorSession::~V8InspectorSession(void)__ptr64 
??1V8InspectorSession@v8_inspector@@UEAA@XZ
; public: virtual __cdecl v8_inspector::V8StackTrace::~V8StackTrace(void)__ptr64 
??1V8StackTrace@v8_inspector@@UEAA@XZ
; public: __cdecl v8::String::Value::~Value(void)__ptr64 
??1Value@String@v8@@QEAA@XZ
; public: __cdecl v8::ValueDeserializer::~ValueDeserializer(void)__ptr64 
??1ValueDeserializer@v8@@QEAA@XZ
; public: virtual __cdecl v8::internal::compiler::ValueNumberingReducer::~ValueNumberingReducer(void)__ptr64 
??1ValueNumberingReducer@compiler@internal@v8@@UEAA@XZ
; public: __cdecl v8::ValueSerializer::~ValueSerializer(void)__ptr64 
??1ValueSerializer@v8@@QEAA@XZ
; public: __cdecl v8::internal::VirtualMemory::~VirtualMemory(void)__ptr64 
??1VirtualMemory@internal@v8@@QEAA@XZ
; public: virtual __cdecl v8::internal::VoidDescriptor::~VoidDescriptor(void)__ptr64 
??1VoidDescriptor@internal@v8@@UEAA@XZ
; public: __cdecl v8::internal::wasm::WasmCode::~WasmCode(void)__ptr64 
??1WasmCode@wasm@internal@v8@@QEAA@XZ
; public: __cdecl v8::internal::wasm::WasmCodeManager::~WasmCodeManager(void)__ptr64 
??1WasmCodeManager@wasm@internal@v8@@QEAA@XZ
; public: __cdecl v8::internal::wasm::WasmCodeRefScope::~WasmCodeRefScope(void)__ptr64 
??1WasmCodeRefScope@wasm@internal@v8@@QEAA@XZ
; public: __cdecl v8::internal::wasm::WasmEngine::~WasmEngine(void)__ptr64 
??1WasmEngine@wasm@internal@v8@@QEAA@XZ
; public: __cdecl v8::internal::wasm::WasmError::~WasmError(void)__ptr64 
??1WasmError@wasm@internal@v8@@QEAA@XZ
; public: __cdecl v8::internal::wasm::WasmFunctionBuilder::~WasmFunctionBuilder(void)__ptr64 
??1WasmFunctionBuilder@wasm@internal@v8@@QEAA@XZ
; public: __cdecl v8::internal::wasm::WasmInterpreter::~WasmInterpreter(void)__ptr64 
??1WasmInterpreter@wasm@internal@v8@@QEAA@XZ
; public: __cdecl v8::internal::wasm::WasmMemoryTracker::~WasmMemoryTracker(void)__ptr64 
??1WasmMemoryTracker@wasm@internal@v8@@QEAA@XZ
; public: __cdecl v8::internal::wasm::WasmModule::~WasmModule(void)__ptr64 
??1WasmModule@wasm@internal@v8@@QEAA@XZ
; public: __cdecl v8::internal::wasm::WasmModuleBuilder::~WasmModuleBuilder(void)__ptr64 
??1WasmModuleBuilder@wasm@internal@v8@@QEAA@XZ
; public: __cdecl v8::WasmModuleObjectBuilderStreaming::~WasmModuleObjectBuilderStreaming(void)__ptr64 
??1WasmModuleObjectBuilderStreaming@v8@@QEAA@XZ
; public: __cdecl v8::internal::wasm::WasmModuleSourceMap::~WasmModuleSourceMap(void)__ptr64 
??1WasmModuleSourceMap@wasm@internal@v8@@QEAA@XZ
; public: __cdecl v8::internal::wasm::WasmSerializer::~WasmSerializer(void)__ptr64 
??1WasmSerializer@wasm@internal@v8@@QEAA@XZ
; public: __cdecl v8::WasmStreaming::~WasmStreaming(void)__ptr64 
??1WasmStreaming@v8@@QEAA@XZ
; public: __cdecl v8::internal::Zone::~Zone(void)__ptr64 
??1Zone@internal@v8@@QEAA@XZ
; public: __cdecl v8::internal::compiler::ZoneStats::~ZoneStats(void)__ptr64 
??1ZoneStats@compiler@internal@v8@@QEAA@XZ
; private: static void *__ptr64 __cdecl v8::internal::wasm::ErrorThrower::operator new(unsigned __int64)
??2ErrorThrower@wasm@internal@v8@@CAPEAX_K@Z
; private: static void *__ptr64 __cdecl v8::EscapableHandleScope::operator new(unsigned __int64)
??2EscapableHandleScope@v8@@CAPEAX_K@Z
; private: static void *__ptr64 __cdecl v8::HandleScope::operator new(unsigned __int64)
??2HandleScope@v8@@CAPEAX_K@Z
; public: static void *__ptr64 __cdecl v8::internal::Malloced::operator new(unsigned __int64)
??2Malloced@internal@v8@@SAPEAX_K@Z
; private: static void *__ptr64 __cdecl v8::internal::compiler::Node::operator new(unsigned __int64,void *__ptr64)
??2Node@compiler@internal@v8@@CAPEAX_KPEAX@Z
; private: static void *__ptr64 __cdecl v8::internal::interpreter::Register::operator new(unsigned __int64)
??2Register@interpreter@internal@v8@@CAPEAX_K@Z
; public: static void *__ptr64 __cdecl v8::internal::SamplingEventsProcessor::operator new(unsigned __int64)
??2SamplingEventsProcessor@internal@v8@@SAPEAX_K@Z
; private: static void *__ptr64 __cdecl v8::SealHandleScope::operator new(unsigned __int64)
??2SealHandleScope@v8@@CAPEAX_K@Z
; private: static void *__ptr64 __cdecl v8::TryCatch::operator new(unsigned __int64)
??2TryCatch@v8@@CAPEAX_K@Z
; private: static void __cdecl v8::internal::wasm::ErrorThrower::operator delete(void *__ptr64,unsigned __int64)
??3ErrorThrower@wasm@internal@v8@@CAXPEAX_K@Z
; private: static void __cdecl v8::EscapableHandleScope::operator delete(void *__ptr64,unsigned __int64)
??3EscapableHandleScope@v8@@CAXPEAX_K@Z
; private: static void __cdecl v8::HandleScope::operator delete(void *__ptr64,unsigned __int64)
??3HandleScope@v8@@CAXPEAX_K@Z
; public: static void __cdecl v8::internal::Malloced::operator delete(void *__ptr64)
??3Malloced@internal@v8@@SAXPEAX@Z
; private: static void __cdecl v8::internal::interpreter::Register::operator delete(void *__ptr64,unsigned __int64)
??3Register@interpreter@internal@v8@@CAXPEAX_K@Z
; public: static void __cdecl v8::internal::SamplingEventsProcessor::operator delete(void *__ptr64)
??3SamplingEventsProcessor@internal@v8@@SAXPEAX@Z
; private: static void __cdecl v8::SealHandleScope::operator delete(void *__ptr64,unsigned __int64)
??3SealHandleScope@v8@@CAXPEAX_K@Z
; private: static void __cdecl v8::TryCatch::operator delete(void *__ptr64,unsigned __int64)
??3TryCatch@v8@@CAXPEAX_K@Z
; public: class v8::internal::<class v8::internal::GlobalDictionary,class v8::internal::GlobalDictionaryShape> &__ptr64 __cdecl v8::internal::<class v8::internal::GlobalDictionary,class v8::internal::GlobalDictionaryShape>::operator =(,class v8::internal::<class v8::internal::GlobalDictionary,class v8::internal::GlobalDictionaryShape> *__ptr64 const)__ptr64 
??4?$BaseNameDictionary@VGlobalDictionary@internal@v8@@VGlobalDictionaryShape@23@@internal@v8@@QEAAAEAV012@$$QEAV012@@Z
; public: class v8::internal::<class v8::internal::GlobalDictionary,class v8::internal::GlobalDictionaryShape> &__ptr64 __cdecl v8::internal::<class v8::internal::GlobalDictionary,class v8::internal::GlobalDictionaryShape>::operator =(class v8::internal::<class v8::internal::GlobalDictionary,class v8::internal::GlobalDictionaryShape> const &__ptr64 )__ptr64 
??4?$BaseNameDictionary@VGlobalDictionary@internal@v8@@VGlobalDictionaryShape@23@@internal@v8@@QEAAAEAV012@AEBV012@@Z
; public: class v8::internal::<class v8::internal::NameDictionary,class v8::internal::NameDictionaryShape> &__ptr64 __cdecl v8::internal::<class v8::internal::NameDictionary,class v8::internal::NameDictionaryShape>::operator =(,class v8::internal::<class v8::internal::NameDictionary,class v8::internal::NameDictionaryShape> *__ptr64 const)__ptr64 
??4?$BaseNameDictionary@VNameDictionary@internal@v8@@VNameDictionaryShape@23@@internal@v8@@QEAAAEAV012@$$QEAV012@@Z
; public: class v8::internal::<class v8::internal::NameDictionary,class v8::internal::NameDictionaryShape> &__ptr64 __cdecl v8::internal::<class v8::internal::NameDictionary,class v8::internal::NameDictionaryShape>::operator =(class v8::internal::<class v8::internal::NameDictionary,class v8::internal::NameDictionaryShape> const &__ptr64 )__ptr64 
??4?$BaseNameDictionary@VNameDictionary@internal@v8@@VNameDictionaryShape@23@@internal@v8@@QEAAAEAV012@AEBV012@@Z
; public: class v8::internal::<class v8::internal::GlobalDictionary,class v8::internal::GlobalDictionaryShape> &__ptr64 __cdecl v8::internal::<class v8::internal::GlobalDictionary,class v8::internal::GlobalDictionaryShape>::operator =(,class v8::internal::<class v8::internal::GlobalDictionary,class v8::internal::GlobalDictionaryShape> *__ptr64 const)__ptr64 
??4?$Dictionary@VGlobalDictionary@internal@v8@@VGlobalDictionaryShape@23@@internal@v8@@QEAAAEAV012@$$QEAV012@@Z
; public: class v8::internal::<class v8::internal::GlobalDictionary,class v8::internal::GlobalDictionaryShape> &__ptr64 __cdecl v8::internal::<class v8::internal::GlobalDictionary,class v8::internal::GlobalDictionaryShape>::operator =(class v8::internal::<class v8::internal::GlobalDictionary,class v8::internal::GlobalDictionaryShape> const &__ptr64 )__ptr64 
??4?$Dictionary@VGlobalDictionary@internal@v8@@VGlobalDictionaryShape@23@@internal@v8@@QEAAAEAV012@AEBV012@@Z
; public: class v8::internal::<class v8::internal::NameDictionary,class v8::internal::NameDictionaryShape> &__ptr64 __cdecl v8::internal::<class v8::internal::NameDictionary,class v8::internal::NameDictionaryShape>::operator =(,class v8::internal::<class v8::internal::NameDictionary,class v8::internal::NameDictionaryShape> *__ptr64 const)__ptr64 
??4?$Dictionary@VNameDictionary@internal@v8@@VNameDictionaryShape@23@@internal@v8@@QEAAAEAV012@$$QEAV012@@Z
; public: class v8::internal::<class v8::internal::NameDictionary,class v8::internal::NameDictionaryShape> &__ptr64 __cdecl v8::internal::<class v8::internal::NameDictionary,class v8::internal::NameDictionaryShape>::operator =(class v8::internal::<class v8::internal::NameDictionary,class v8::internal::NameDictionaryShape> const &__ptr64 )__ptr64 
??4?$Dictionary@VNameDictionary@internal@v8@@VNameDictionaryShape@23@@internal@v8@@QEAAAEAV012@AEBV012@@Z
; public: class v8::internal::<class v8::internal::NumberDictionary,class v8::internal::NumberDictionaryShape> &__ptr64 __cdecl v8::internal::<class v8::internal::NumberDictionary,class v8::internal::NumberDictionaryShape>::operator =(,class v8::internal::<class v8::internal::NumberDictionary,class v8::internal::NumberDictionaryShape> *__ptr64 const)__ptr64 
??4?$Dictionary@VNumberDictionary@internal@v8@@VNumberDictionaryShape@23@@internal@v8@@QEAAAEAV012@$$QEAV012@@Z
; public: class v8::internal::<class v8::internal::NumberDictionary,class v8::internal::NumberDictionaryShape> &__ptr64 __cdecl v8::internal::<class v8::internal::NumberDictionary,class v8::internal::NumberDictionaryShape>::operator =(class v8::internal::<class v8::internal::NumberDictionary,class v8::internal::NumberDictionaryShape> const &__ptr64 )__ptr64 
??4?$Dictionary@VNumberDictionary@internal@v8@@VNumberDictionaryShape@23@@internal@v8@@QEAAAEAV012@AEBV012@@Z
; public: class v8::internal::<class v8::internal::SimpleNumberDictionary,class v8::internal::SimpleNumberDictionaryShape> &__ptr64 __cdecl v8::internal::<class v8::internal::SimpleNumberDictionary,class v8::internal::SimpleNumberDictionaryShape>::operator =(,class v8::internal::<class v8::internal::SimpleNumberDictionary,class v8::internal::SimpleNumberDictionaryShape> *__ptr64 const)__ptr64 
??4?$Dictionary@VSimpleNumberDictionary@internal@v8@@VSimpleNumberDictionaryShape@23@@internal@v8@@QEAAAEAV012@$$QEAV012@@Z
; public: class v8::internal::<class v8::internal::SimpleNumberDictionary,class v8::internal::SimpleNumberDictionaryShape> &__ptr64 __cdecl v8::internal::<class v8::internal::SimpleNumberDictionary,class v8::internal::SimpleNumberDictionaryShape>::operator =(class v8::internal::<class v8::internal::SimpleNumberDictionary,class v8::internal::SimpleNumberDictionaryShape> const &__ptr64 )__ptr64 
??4?$Dictionary@VSimpleNumberDictionary@internal@v8@@VSimpleNumberDictionaryShape@23@@internal@v8@@QEAAAEAV012@AEBV012@@Z
; public: class v8::internal::<class v8::internal::CompilationCacheTable,class v8::internal::CompilationCacheShape> &__ptr64 __cdecl v8::internal::<class v8::internal::CompilationCacheTable,class v8::internal::CompilationCacheShape>::operator =(,class v8::internal::<class v8::internal::CompilationCacheTable,class v8::internal::CompilationCacheShape> *__ptr64 const)__ptr64 
??4?$HashTable@VCompilationCacheTable@internal@v8@@VCompilationCacheShape@23@@internal@v8@@QEAAAEAV012@$$QEAV012@@Z
; public: class v8::internal::<class v8::internal::CompilationCacheTable,class v8::internal::CompilationCacheShape> &__ptr64 __cdecl v8::internal::<class v8::internal::CompilationCacheTable,class v8::internal::CompilationCacheShape>::operator =(class v8::internal::<class v8::internal::CompilationCacheTable,class v8::internal::CompilationCacheShape> const &__ptr64 )__ptr64 
??4?$HashTable@VCompilationCacheTable@internal@v8@@VCompilationCacheShape@23@@internal@v8@@QEAAAEAV012@AEBV012@@Z
; public: class v8::internal::<class v8::internal::EphemeronHashTable,class v8::internal::EphemeronHashTableShape> &__ptr64 __cdecl v8::internal::<class v8::internal::EphemeronHashTable,class v8::internal::EphemeronHashTableShape>::operator =(,class v8::internal::<class v8::internal::EphemeronHashTable,class v8::internal::EphemeronHashTableShape> *__ptr64 const)__ptr64 
??4?$HashTable@VEphemeronHashTable@internal@v8@@VEphemeronHashTableShape@23@@internal@v8@@QEAAAEAV012@$$QEAV012@@Z
; public: class v8::internal::<class v8::internal::EphemeronHashTable,class v8::internal::EphemeronHashTableShape> &__ptr64 __cdecl v8::internal::<class v8::internal::EphemeronHashTable,class v8::internal::EphemeronHashTableShape>::operator =(class v8::internal::<class v8::internal::EphemeronHashTable,class v8::internal::EphemeronHashTableShape> const &__ptr64 )__ptr64 
??4?$HashTable@VEphemeronHashTable@internal@v8@@VEphemeronHashTableShape@23@@internal@v8@@QEAAAEAV012@AEBV012@@Z
; public: class v8::internal::<class v8::internal::GlobalDictionary,class v8::internal::GlobalDictionaryShape> &__ptr64 __cdecl v8::internal::<class v8::internal::GlobalDictionary,class v8::internal::GlobalDictionaryShape>::operator =(,class v8::internal::<class v8::internal::GlobalDictionary,class v8::internal::GlobalDictionaryShape> *__ptr64 const)__ptr64 
??4?$HashTable@VGlobalDictionary@internal@v8@@VGlobalDictionaryShape@23@@internal@v8@@QEAAAEAV012@$$QEAV012@@Z
; public: class v8::internal::<class v8::internal::GlobalDictionary,class v8::internal::GlobalDictionaryShape> &__ptr64 __cdecl v8::internal::<class v8::internal::GlobalDictionary,class v8::internal::GlobalDictionaryShape>::operator =(class v8::internal::<class v8::internal::GlobalDictionary,class v8::internal::GlobalDictionaryShape> const &__ptr64 )__ptr64 
??4?$HashTable@VGlobalDictionary@internal@v8@@VGlobalDictionaryShape@23@@internal@v8@@QEAAAEAV012@AEBV012@@Z
; public: class v8::internal::<class v8::internal::NameDictionary,class v8::internal::NameDictionaryShape> &__ptr64 __cdecl v8::internal::<class v8::internal::NameDictionary,class v8::internal::NameDictionaryShape>::operator =(,class v8::internal::<class v8::internal::NameDictionary,class v8::internal::NameDictionaryShape> *__ptr64 const)__ptr64 
??4?$HashTable@VNameDictionary@internal@v8@@VNameDictionaryShape@23@@internal@v8@@QEAAAEAV012@$$QEAV012@@Z
; public: class v8::internal::<class v8::internal::NameDictionary,class v8::internal::NameDictionaryShape> &__ptr64 __cdecl v8::internal::<class v8::internal::NameDictionary,class v8::internal::NameDictionaryShape>::operator =(class v8::internal::<class v8::internal::NameDictionary,class v8::internal::NameDictionaryShape> const &__ptr64 )__ptr64 
??4?$HashTable@VNameDictionary@internal@v8@@VNameDictionaryShape@23@@internal@v8@@QEAAAEAV012@AEBV012@@Z
; public: class v8::internal::<class v8::internal::NumberDictionary,class v8::internal::NumberDictionaryShape> &__ptr64 __cdecl v8::internal::<class v8::internal::NumberDictionary,class v8::internal::NumberDictionaryShape>::operator =(,class v8::internal::<class v8::internal::NumberDictionary,class v8::internal::NumberDictionaryShape> *__ptr64 const)__ptr64 
??4?$HashTable@VNumberDictionary@internal@v8@@VNumberDictionaryShape@23@@internal@v8@@QEAAAEAV012@$$QEAV012@@Z
; public: class v8::internal::<class v8::internal::NumberDictionary,class v8::internal::NumberDictionaryShape> &__ptr64 __cdecl v8::internal::<class v8::internal::NumberDictionary,class v8::internal::NumberDictionaryShape>::operator =(class v8::internal::<class v8::internal::NumberDictionary,class v8::internal::NumberDictionaryShape> const &__ptr64 )__ptr64 
??4?$HashTable@VNumberDictionary@internal@v8@@VNumberDictionaryShape@23@@internal@v8@@QEAAAEAV012@AEBV012@@Z
; public: class v8::internal::<class v8::internal::ObjectHashSet,class v8::internal::ObjectHashSetShape> &__ptr64 __cdecl v8::internal::<class v8::internal::ObjectHashSet,class v8::internal::ObjectHashSetShape>::operator =(,class v8::internal::<class v8::internal::ObjectHashSet,class v8::internal::ObjectHashSetShape> *__ptr64 const)__ptr64 
??4?$HashTable@VObjectHashSet@internal@v8@@VObjectHashSetShape@23@@internal@v8@@QEAAAEAV012@$$QEAV012@@Z
; public: class v8::internal::<class v8::internal::ObjectHashSet,class v8::internal::ObjectHashSetShape> &__ptr64 __cdecl v8::internal::<class v8::internal::ObjectHashSet,class v8::internal::ObjectHashSetShape>::operator =(class v8::internal::<class v8::internal::ObjectHashSet,class v8::internal::ObjectHashSetShape> const &__ptr64 )__ptr64 
??4?$HashTable@VObjectHashSet@internal@v8@@VObjectHashSetShape@23@@internal@v8@@QEAAAEAV012@AEBV012@@Z
; public: class v8::internal::<class v8::internal::ObjectHashTable,class v8::internal::ObjectHashTableShape> &__ptr64 __cdecl v8::internal::<class v8::internal::ObjectHashTable,class v8::internal::ObjectHashTableShape>::operator =(,class v8::internal::<class v8::internal::ObjectHashTable,class v8::internal::ObjectHashTableShape> *__ptr64 const)__ptr64 
??4?$HashTable@VObjectHashTable@internal@v8@@VObjectHashTableShape@23@@internal@v8@@QEAAAEAV012@$$QEAV012@@Z
; public: class v8::internal::<class v8::internal::ObjectHashTable,class v8::internal::ObjectHashTableShape> &__ptr64 __cdecl v8::internal::<class v8::internal::ObjectHashTable,class v8::internal::ObjectHashTableShape>::operator =(class v8::internal::<class v8::internal::ObjectHashTable,class v8::internal::ObjectHashTableShape> const &__ptr64 )__ptr64 
??4?$HashTable@VObjectHashTable@internal@v8@@VObjectHashTableShape@23@@internal@v8@@QEAAAEAV012@AEBV012@@Z
; public: class v8::internal::<class v8::internal::SimpleNumberDictionary,class v8::internal::SimpleNumberDictionaryShape> &__ptr64 __cdecl v8::internal::<class v8::internal::SimpleNumberDictionary,class v8::internal::SimpleNumberDictionaryShape>::operator =(,class v8::internal::<class v8::internal::SimpleNumberDictionary,class v8::internal::SimpleNumberDictionaryShape> *__ptr64 const)__ptr64 
??4?$HashTable@VSimpleNumberDictionary@internal@v8@@VSimpleNumberDictionaryShape@23@@internal@v8@@QEAAAEAV012@$$QEAV012@@Z
; public: class v8::internal::<class v8::internal::SimpleNumberDictionary,class v8::internal::SimpleNumberDictionaryShape> &__ptr64 __cdecl v8::internal::<class v8::internal::SimpleNumberDictionary,class v8::internal::SimpleNumberDictionaryShape>::operator =(class v8::internal::<class v8::internal::SimpleNumberDictionary,class v8::internal::SimpleNumberDictionaryShape> const &__ptr64 )__ptr64 
??4?$HashTable@VSimpleNumberDictionary@internal@v8@@VSimpleNumberDictionaryShape@23@@internal@v8@@QEAAAEAV012@AEBV012@@Z
; public: struct v8::base::<unsigned int> &__ptr64 __cdecl v8::base::<unsigned int>::operator =(,struct v8::base::<unsigned int> *__ptr64 const)__ptr64 
??4?$MagicNumbersForDivision@I@base@v8@@QEAAAEAU012@$$QEAU012@@Z
; public: struct v8::base::<unsigned int> &__ptr64 __cdecl v8::base::<unsigned int>::operator =(struct v8::base::<unsigned int> const &__ptr64 )__ptr64 
??4?$MagicNumbersForDivision@I@base@v8@@QEAAAEAU012@AEBU012@@Z
; public: struct v8::base::<unsigned __int64> &__ptr64 __cdecl v8::base::<unsigned __int64>::operator =(,struct v8::base::<unsigned __int64> *__ptr64 const)__ptr64 
??4?$MagicNumbersForDivision@_K@base@v8@@QEAAAEAU012@$$QEAU012@@Z
; public: struct v8::base::<unsigned __int64> &__ptr64 __cdecl v8::base::<unsigned __int64>::operator =(struct v8::base::<unsigned __int64> const &__ptr64 )__ptr64 
??4?$MagicNumbersForDivision@_K@base@v8@@QEAAAEAU012@AEBU012@@Z
; public: class v8::internal::<struct v8::internal::GlobalMemoryTrait> &__ptr64 __cdecl v8::internal::<struct v8::internal::GlobalMemoryTrait>::operator =(,class v8::internal::<struct v8::internal::GlobalMemoryTrait> *__ptr64 const)__ptr64 
??4?$MemoryController@UGlobalMemoryTrait@internal@v8@@@internal@v8@@QEAAAEAV012@$$QEAV012@@Z
; public: class v8::internal::<struct v8::internal::GlobalMemoryTrait> &__ptr64 __cdecl v8::internal::<struct v8::internal::GlobalMemoryTrait>::operator =(class v8::internal::<struct v8::internal::GlobalMemoryTrait> const &__ptr64 )__ptr64 
??4?$MemoryController@UGlobalMemoryTrait@internal@v8@@@internal@v8@@QEAAAEAV012@AEBV012@@Z
; public: class v8::internal::<struct v8::internal::V8HeapTrait> &__ptr64 __cdecl v8::internal::<struct v8::internal::V8HeapTrait>::operator =(,class v8::internal::<struct v8::internal::V8HeapTrait> *__ptr64 const)__ptr64 
??4?$MemoryController@UV8HeapTrait@internal@v8@@@internal@v8@@QEAAAEAV012@$$QEAV012@@Z
; public: class v8::internal::<struct v8::internal::V8HeapTrait> &__ptr64 __cdecl v8::internal::<struct v8::internal::V8HeapTrait>::operator =(class v8::internal::<struct v8::internal::V8HeapTrait> const &__ptr64 )__ptr64 
??4?$MemoryController@UV8HeapTrait@internal@v8@@@internal@v8@@QEAAAEAV012@AEBV012@@Z
; public: class v8::<unsigned char const> &__ptr64 __cdecl v8::<unsigned char const>::operator =(,class v8::<unsigned char const> *__ptr64 const)__ptr64 
??4?$MemorySpan@$$CBE@v8@@QEAAAEAV01@$$QEAV01@@Z
; public: class v8::<unsigned char const> &__ptr64 __cdecl v8::<unsigned char const>::operator =(class v8::<unsigned char const> const &__ptr64 )__ptr64 
??4?$MemorySpan@$$CBE@v8@@QEAAAEAV01@AEBV01@@Z
; public: class v8::internal::<0x0ULL> &__ptr64 __cdecl v8::internal::<0x0ULL>::operator =(,class v8::internal::<0x0ULL> *__ptr64 const)__ptr64 
??4?$NativesCollection@$0A@@internal@v8@@QEAAAEAV012@$$QEAV012@@Z
; public: class v8::internal::<0x0ULL> &__ptr64 __cdecl v8::internal::<0x0ULL>::operator =(class v8::internal::<0x0ULL> const &__ptr64 )__ptr64 
??4?$NativesCollection@$0A@@internal@v8@@QEAAAEAV012@AEBV012@@Z
; public: class v8::internal::<class v8::internal::EphemeronHashTable,class v8::internal::EphemeronHashTableShape> &__ptr64 __cdecl v8::internal::<class v8::internal::EphemeronHashTable,class v8::internal::EphemeronHashTableShape>::operator =(,class v8::internal::<class v8::internal::EphemeronHashTable,class v8::internal::EphemeronHashTableShape> *__ptr64 const)__ptr64 
??4?$ObjectHashTableBase@VEphemeronHashTable@internal@v8@@VEphemeronHashTableShape@23@@internal@v8@@QEAAAEAV012@$$QEAV012@@Z
; public: class v8::internal::<class v8::internal::EphemeronHashTable,class v8::internal::EphemeronHashTableShape> &__ptr64 __cdecl v8::internal::<class v8::internal::EphemeronHashTable,class v8::internal::EphemeronHashTableShape>::operator =(class v8::internal::<class v8::internal::EphemeronHashTable,class v8::internal::EphemeronHashTableShape> const &__ptr64 )__ptr64 
??4?$ObjectHashTableBase@VEphemeronHashTable@internal@v8@@VEphemeronHashTableShape@23@@internal@v8@@QEAAAEAV012@AEBV012@@Z
; public: class v8::internal::<class v8::internal::ObjectHashTable,class v8::internal::ObjectHashTableShape> &__ptr64 __cdecl v8::internal::<class v8::internal::ObjectHashTable,class v8::internal::ObjectHashTableShape>::operator =(,class v8::internal::<class v8::internal::ObjectHashTable,class v8::internal::ObjectHashTableShape> *__ptr64 const)__ptr64 
??4?$ObjectHashTableBase@VObjectHashTable@internal@v8@@VObjectHashTableShape@23@@internal@v8@@QEAAAEAV012@$$QEAV012@@Z
; public: class v8::internal::<class v8::internal::ObjectHashTable,class v8::internal::ObjectHashTableShape> &__ptr64 __cdecl v8::internal::<class v8::internal::ObjectHashTable,class v8::internal::ObjectHashTableShape>::operator =(class v8::internal::<class v8::internal::ObjectHashTable,class v8::internal::ObjectHashTableShape> const &__ptr64 )__ptr64 
??4?$ObjectHashTableBase@VObjectHashTable@internal@v8@@VObjectHashTableShape@23@@internal@v8@@QEAAAEAV012@AEBV012@@Z
; public: class v8::internal::<class v8::internal::OrderedHashMap,0x2ULL> &__ptr64 __cdecl v8::internal::<class v8::internal::OrderedHashMap,0x2ULL>::operator =(,class v8::internal::<class v8::internal::OrderedHashMap,0x2ULL> *__ptr64 const)__ptr64 
??4?$OrderedHashTable@VOrderedHashMap@internal@v8@@$01@internal@v8@@QEAAAEAV012@$$QEAV012@@Z
; public: class v8::internal::<class v8::internal::OrderedHashMap,0x2ULL> &__ptr64 __cdecl v8::internal::<class v8::internal::OrderedHashMap,0x2ULL>::operator =(class v8::internal::<class v8::internal::OrderedHashMap,0x2ULL> const &__ptr64 )__ptr64 
??4?$OrderedHashTable@VOrderedHashMap@internal@v8@@$01@internal@v8@@QEAAAEAV012@AEBV012@@Z
; public: class v8::internal::<class v8::internal::OrderedHashSet,0x1ULL> &__ptr64 __cdecl v8::internal::<class v8::internal::OrderedHashSet,0x1ULL>::operator =(,class v8::internal::<class v8::internal::OrderedHashSet,0x1ULL> *__ptr64 const)__ptr64 
??4?$OrderedHashTable@VOrderedHashSet@internal@v8@@$00@internal@v8@@QEAAAEAV012@$$QEAV012@@Z
; public: class v8::internal::<class v8::internal::OrderedHashSet,0x1ULL> &__ptr64 __cdecl v8::internal::<class v8::internal::OrderedHashSet,0x1ULL>::operator =(class v8::internal::<class v8::internal::OrderedHashSet,0x1ULL> const &__ptr64 )__ptr64 
??4?$OrderedHashTable@VOrderedHashSet@internal@v8@@$00@internal@v8@@QEAAAEAV012@AEBV012@@Z
; public: class v8::internal::<class v8::internal::SmallOrderedHashMap,class v8::internal::OrderedHashMap> &__ptr64 __cdecl v8::internal::<class v8::internal::SmallOrderedHashMap,class v8::internal::OrderedHashMap>::operator =(,class v8::internal::<class v8::internal::SmallOrderedHashMap,class v8::internal::OrderedHashMap> *__ptr64 const)__ptr64 
??4?$OrderedHashTableHandler@VSmallOrderedHashMap@internal@v8@@VOrderedHashMap@23@@internal@v8@@QEAAAEAV012@$$QEAV012@@Z
; public: class v8::internal::<class v8::internal::SmallOrderedHashMap,class v8::internal::OrderedHashMap> &__ptr64 __cdecl v8::internal::<class v8::internal::SmallOrderedHashMap,class v8::internal::OrderedHashMap>::operator =(class v8::internal::<class v8::internal::SmallOrderedHashMap,class v8::internal::OrderedHashMap> const &__ptr64 )__ptr64 
??4?$OrderedHashTableHandler@VSmallOrderedHashMap@internal@v8@@VOrderedHashMap@23@@internal@v8@@QEAAAEAV012@AEBV012@@Z
; public: class v8::internal::<class v8::internal::SmallOrderedHashSet,class v8::internal::OrderedHashSet> &__ptr64 __cdecl v8::internal::<class v8::internal::SmallOrderedHashSet,class v8::internal::OrderedHashSet>::operator =(,class v8::internal::<class v8::internal::SmallOrderedHashSet,class v8::internal::OrderedHashSet> *__ptr64 const)__ptr64 
??4?$OrderedHashTableHandler@VSmallOrderedHashSet@internal@v8@@VOrderedHashSet@23@@internal@v8@@QEAAAEAV012@$$QEAV012@@Z
; public: class v8::internal::<class v8::internal::SmallOrderedHashSet,class v8::internal::OrderedHashSet> &__ptr64 __cdecl v8::internal::<class v8::internal::SmallOrderedHashSet,class v8::internal::OrderedHashSet>::operator =(class v8::internal::<class v8::internal::SmallOrderedHashSet,class v8::internal::OrderedHashSet> const &__ptr64 )__ptr64 
??4?$OrderedHashTableHandler@VSmallOrderedHashSet@internal@v8@@VOrderedHashSet@23@@internal@v8@@QEAAAEAV012@AEBV012@@Z
; public: class v8::internal::<class v8::internal::SmallOrderedNameDictionary,class v8::internal::OrderedNameDictionary> &__ptr64 __cdecl v8::internal::<class v8::internal::SmallOrderedNameDictionary,class v8::internal::OrderedNameDictionary>::operator =(,class v8::internal::<class v8::internal::SmallOrderedNameDictionary,class v8::internal::OrderedNameDictionary> *__ptr64 const)__ptr64 
??4?$OrderedHashTableHandler@VSmallOrderedNameDictionary@internal@v8@@VOrderedNameDictionary@23@@internal@v8@@QEAAAEAV012@$$QEAV012@@Z
; public: class v8::internal::<class v8::internal::SmallOrderedNameDictionary,class v8::internal::OrderedNameDictionary> &__ptr64 __cdecl v8::internal::<class v8::internal::SmallOrderedNameDictionary,class v8::internal::OrderedNameDictionary>::operator =(class v8::internal::<class v8::internal::SmallOrderedNameDictionary,class v8::internal::OrderedNameDictionary> const &__ptr64 )__ptr64 
??4?$OrderedHashTableHandler@VSmallOrderedNameDictionary@internal@v8@@VOrderedNameDictionary@23@@internal@v8@@QEAAAEAV012@AEBV012@@Z
; public: class v8::base::time_internal::<class v8::base::ThreadTicks> &__ptr64 __cdecl v8::base::time_internal::<class v8::base::ThreadTicks>::operator =(,class v8::base::time_internal::<class v8::base::ThreadTicks> *__ptr64 const)__ptr64 
??4?$TimeBase@VThreadTicks@base@v8@@@time_internal@base@v8@@QEAAAEAV0123@$$QEAV0123@@Z
; public: class v8::base::time_internal::<class v8::base::ThreadTicks> &__ptr64 __cdecl v8::base::time_internal::<class v8::base::ThreadTicks>::operator =(class v8::base::time_internal::<class v8::base::ThreadTicks> const &__ptr64 )__ptr64 
??4?$TimeBase@VThreadTicks@base@v8@@@time_internal@base@v8@@QEAAAEAV0123@AEBV0123@@Z
; public: class v8::base::ThreadTicks &__ptr64 __cdecl v8::base::time_internal::<class v8::base::ThreadTicks>::operator =(class v8::base::ThreadTicks)__ptr64 
??4?$TimeBase@VThreadTicks@base@v8@@@time_internal@base@v8@@QEAAAEAVThreadTicks@23@V423@@Z
; public: class v8::base::time_internal::<class v8::base::Time> &__ptr64 __cdecl v8::base::time_internal::<class v8::base::Time>::operator =(,class v8::base::time_internal::<class v8::base::Time> *__ptr64 const)__ptr64 
??4?$TimeBase@VTime@base@v8@@@time_internal@base@v8@@QEAAAEAV0123@$$QEAV0123@@Z
; public: class v8::base::time_internal::<class v8::base::Time> &__ptr64 __cdecl v8::base::time_internal::<class v8::base::Time>::operator =(class v8::base::time_internal::<class v8::base::Time> const &__ptr64 )__ptr64 
??4?$TimeBase@VTime@base@v8@@@time_internal@base@v8@@QEAAAEAV0123@AEBV0123@@Z
; public: class v8::base::Time &__ptr64 __cdecl v8::base::time_internal::<class v8::base::Time>::operator =(class v8::base::Time)__ptr64 
??4?$TimeBase@VTime@base@v8@@@time_internal@base@v8@@QEAAAEAVTime@23@V423@@Z
; public: class v8::base::time_internal::<class v8::base::TimeTicks> &__ptr64 __cdecl v8::base::time_internal::<class v8::base::TimeTicks>::operator =(,class v8::base::time_internal::<class v8::base::TimeTicks> *__ptr64 const)__ptr64 
??4?$TimeBase@VTimeTicks@base@v8@@@time_internal@base@v8@@QEAAAEAV0123@$$QEAV0123@@Z
; public: class v8::base::time_internal::<class v8::base::TimeTicks> &__ptr64 __cdecl v8::base::time_internal::<class v8::base::TimeTicks>::operator =(class v8::base::time_internal::<class v8::base::TimeTicks> const &__ptr64 )__ptr64 
??4?$TimeBase@VTimeTicks@base@v8@@@time_internal@base@v8@@QEAAAEAV0123@AEBV0123@@Z
; public: class v8::base::TimeTicks &__ptr64 __cdecl v8::base::time_internal::<class v8::base::TimeTicks>::operator =(class v8::base::TimeTicks)__ptr64 
??4?$TimeBase@VTimeTicks@base@v8@@@time_internal@base@v8@@QEAAAEAVTimeTicks@23@V423@@Z
; public: class v8::internal::<class v8::internal::compiler::MoveOperands *__ptr64> &__ptr64 __cdecl v8::internal::<class v8::internal::compiler::MoveOperands *__ptr64>::operator =(,class v8::internal::<class v8::internal::compiler::MoveOperands *__ptr64> *__ptr64 const)__ptr64 
??4?$ZoneVector@PEAVMoveOperands@compiler@internal@v8@@@internal@v8@@QEAAAEAV012@$$QEAV012@@Z
; public: class v8::internal::<class v8::internal::compiler::MoveOperands *__ptr64> &__ptr64 __cdecl v8::internal::<class v8::internal::compiler::MoveOperands *__ptr64>::operator =(class v8::internal::<class v8::internal::compiler::MoveOperands *__ptr64> const &__ptr64 )__ptr64 
??4?$ZoneVector@PEAVMoveOperands@compiler@internal@v8@@@internal@v8@@QEAAAEAV012@AEBV012@@Z
; public: class std::<struct std::<class v8::internal::compiler::MoveOperands *__ptr64,class v8::internal::<class v8::internal::compiler::MoveOperands *__ptr64>>> &__ptr64 __cdecl std::<struct std::<class v8::internal::compiler::MoveOperands *__ptr64,class v8::internal::<class v8::internal::compiler::MoveOperands *__ptr64>>>::operator =(,class std::<struct std::<class v8::internal::compiler::MoveOperands *__ptr64,class v8::internal::<class v8::internal::compiler::MoveOperands *__ptr64>>> *__ptr64 const)__ptr64 
??4?$_Vector_alloc@U?$_Vec_base_types@PEAVMoveOperands@compiler@internal@v8@@V?$ZoneAllocator@PEAVMoveOperands@compiler@internal@v8@@@34@@std@@@std@@QEAAAEAV01@$$QEAV01@@Z
; public: class std::<struct std::<class v8::internal::compiler::MoveOperands *__ptr64,class v8::internal::<class v8::internal::compiler::MoveOperands *__ptr64>>> &__ptr64 __cdecl std::<struct std::<class v8::internal::compiler::MoveOperands *__ptr64,class v8::internal::<class v8::internal::compiler::MoveOperands *__ptr64>>>::operator =(class std::<struct std::<class v8::internal::compiler::MoveOperands *__ptr64,class v8::internal::<class v8::internal::compiler::MoveOperands *__ptr64>>> const &__ptr64 )__ptr64 
??4?$_Vector_alloc@U?$_Vec_base_types@PEAVMoveOperands@compiler@internal@v8@@V?$ZoneAllocator@PEAVMoveOperands@compiler@internal@v8@@@34@@std@@@std@@QEAAAEAV01@AEBV01@@Z
; public: class std::<struct std::<struct v8::CpuProfileDeoptFrame,class std::<struct v8::CpuProfileDeoptFrame>>> &__ptr64 __cdecl std::<struct std::<struct v8::CpuProfileDeoptFrame,class std::<struct v8::CpuProfileDeoptFrame>>>::operator =(,class std::<struct std::<struct v8::CpuProfileDeoptFrame,class std::<struct v8::CpuProfileDeoptFrame>>> *__ptr64 const)__ptr64 
??4?$_Vector_alloc@U?$_Vec_base_types@UCpuProfileDeoptFrame@v8@@V?$allocator@UCpuProfileDeoptFrame@v8@@@std@@@std@@@std@@QEAAAEAV01@$$QEAV01@@Z
; public: class std::<struct std::<struct v8::CpuProfileDeoptFrame,class std::<struct v8::CpuProfileDeoptFrame>>> &__ptr64 __cdecl std::<struct std::<struct v8::CpuProfileDeoptFrame,class std::<struct v8::CpuProfileDeoptFrame>>>::operator =(class std::<struct std::<struct v8::CpuProfileDeoptFrame,class std::<struct v8::CpuProfileDeoptFrame>>> const &__ptr64 )__ptr64 
??4?$_Vector_alloc@U?$_Vec_base_types@UCpuProfileDeoptFrame@v8@@V?$allocator@UCpuProfileDeoptFrame@v8@@@std@@@std@@@std@@QEAAAEAV01@AEBV01@@Z
; public: class std::<struct std::<struct v8::CpuProfileDeoptInfo,class std::<struct v8::CpuProfileDeoptInfo>>> &__ptr64 __cdecl std::<struct std::<struct v8::CpuProfileDeoptInfo,class std::<struct v8::CpuProfileDeoptInfo>>>::operator =(,class std::<struct std::<struct v8::CpuProfileDeoptInfo,class std::<struct v8::CpuProfileDeoptInfo>>> *__ptr64 const)__ptr64 
??4?$_Vector_alloc@U?$_Vec_base_types@UCpuProfileDeoptInfo@v8@@V?$allocator@UCpuProfileDeoptInfo@v8@@@std@@@std@@@std@@QEAAAEAV01@$$QEAV01@@Z
; public: class std::<struct std::<struct v8::CpuProfileDeoptInfo,class std::<struct v8::CpuProfileDeoptInfo>>> &__ptr64 __cdecl std::<struct std::<struct v8::CpuProfileDeoptInfo,class std::<struct v8::CpuProfileDeoptInfo>>>::operator =(class std::<struct std::<struct v8::CpuProfileDeoptInfo,class std::<struct v8::CpuProfileDeoptInfo>>> const &__ptr64 )__ptr64 
??4?$_Vector_alloc@U?$_Vec_base_types@UCpuProfileDeoptInfo@v8@@V?$allocator@UCpuProfileDeoptInfo@v8@@@std@@@std@@@std@@QEAAAEAV01@AEBV01@@Z
; protected: class std::<char,struct std::<char>> &__ptr64 __cdecl std::<char,struct std::<char>>::operator =(,class std::<char,struct std::<char>> *__ptr64 const)__ptr64 
??4?$basic_ostream@DU?$char_traits@D@std@@@std@@IEAAAEAV01@$$QEAV01@@Z
; protected: class std::<char,struct std::<char>> &__ptr64 __cdecl std::<char,struct std::<char>>::operator =(class std::<char,struct std::<char>> const &__ptr64 )__ptr64 
??4?$basic_streambuf@DU?$char_traits@D@std@@@std@@IEAAAEAV01@AEBV01@@Z
; public: class std::<class v8::internal::compiler::MoveOperands *__ptr64,class v8::internal::<class v8::internal::compiler::MoveOperands *__ptr64>> &__ptr64 __cdecl std::<class v8::internal::compiler::MoveOperands *__ptr64,class v8::internal::<class v8::internal::compiler::MoveOperands *__ptr64>>::operator =(,class std::<class v8::internal::compiler::MoveOperands *__ptr64,class v8::internal::<class v8::internal::compiler::MoveOperands *__ptr64>> *__ptr64 const)__ptr64 
??4?$vector@PEAVMoveOperands@compiler@internal@v8@@V?$ZoneAllocator@PEAVMoveOperands@compiler@internal@v8@@@34@@std@@QEAAAEAV01@$$QEAV01@@Z
; public: class std::<class v8::internal::compiler::MoveOperands *__ptr64,class v8::internal::<class v8::internal::compiler::MoveOperands *__ptr64>> &__ptr64 __cdecl std::<class v8::internal::compiler::MoveOperands *__ptr64,class v8::internal::<class v8::internal::compiler::MoveOperands *__ptr64>>::operator =(class std::<class v8::internal::compiler::MoveOperands *__ptr64,class v8::internal::<class v8::internal::compiler::MoveOperands *__ptr64>> const &__ptr64 )__ptr64 
??4?$vector@PEAVMoveOperands@compiler@internal@v8@@V?$ZoneAllocator@PEAVMoveOperands@compiler@internal@v8@@@34@@std@@QEAAAEAV01@AEBV01@@Z
; public: class std::<class v8::internal::compiler::MoveOperands *__ptr64,class v8::internal::<class v8::internal::compiler::MoveOperands *__ptr64>> &__ptr64 __cdecl std::<class v8::internal::compiler::MoveOperands *__ptr64,class v8::internal::<class v8::internal::compiler::MoveOperands *__ptr64>>::operator =(class std::<class v8::internal::compiler::MoveOperands *__ptr64>)__ptr64 
??4?$vector@PEAVMoveOperands@compiler@internal@v8@@V?$ZoneAllocator@PEAVMoveOperands@compiler@internal@v8@@@34@@std@@QEAAAEAV01@V?$initializer_list@PEAVMoveOperands@compiler@internal@v8@@@1@@Z
; public: class std::<struct v8::CpuProfileDeoptFrame,class std::<struct v8::CpuProfileDeoptFrame>> &__ptr64 __cdecl std::<struct v8::CpuProfileDeoptFrame,class std::<struct v8::CpuProfileDeoptFrame>>::operator =(,class std::<struct v8::CpuProfileDeoptFrame,class std::<struct v8::CpuProfileDeoptFrame>> *__ptr64 const)__ptr64 
??4?$vector@UCpuProfileDeoptFrame@v8@@V?$allocator@UCpuProfileDeoptFrame@v8@@@std@@@std@@QEAAAEAV01@$$QEAV01@@Z
; public: class std::<struct v8::CpuProfileDeoptFrame,class std::<struct v8::CpuProfileDeoptFrame>> &__ptr64 __cdecl std::<struct v8::CpuProfileDeoptFrame,class std::<struct v8::CpuProfileDeoptFrame>>::operator =(class std::<struct v8::CpuProfileDeoptFrame,class std::<struct v8::CpuProfileDeoptFrame>> const &__ptr64 )__ptr64 
??4?$vector@UCpuProfileDeoptFrame@v8@@V?$allocator@UCpuProfileDeoptFrame@v8@@@std@@@std@@QEAAAEAV01@AEBV01@@Z
; public: class std::<struct v8::CpuProfileDeoptFrame,class std::<struct v8::CpuProfileDeoptFrame>> &__ptr64 __cdecl std::<struct v8::CpuProfileDeoptFrame,class std::<struct v8::CpuProfileDeoptFrame>>::operator =(class std::<struct v8::CpuProfileDeoptFrame>)__ptr64 
??4?$vector@UCpuProfileDeoptFrame@v8@@V?$allocator@UCpuProfileDeoptFrame@v8@@@std@@@std@@QEAAAEAV01@V?$initializer_list@UCpuProfileDeoptFrame@v8@@@1@@Z
; public: class std::<struct v8::CpuProfileDeoptInfo,class std::<struct v8::CpuProfileDeoptInfo>> &__ptr64 __cdecl std::<struct v8::CpuProfileDeoptInfo,class std::<struct v8::CpuProfileDeoptInfo>>::operator =(,class std::<struct v8::CpuProfileDeoptInfo,class std::<struct v8::CpuProfileDeoptInfo>> *__ptr64 const)__ptr64 
??4?$vector@UCpuProfileDeoptInfo@v8@@V?$allocator@UCpuProfileDeoptInfo@v8@@@std@@@std@@QEAAAEAV01@$$QEAV01@@Z
; public: class std::<struct v8::CpuProfileDeoptInfo,class std::<struct v8::CpuProfileDeoptInfo>> &__ptr64 __cdecl std::<struct v8::CpuProfileDeoptInfo,class std::<struct v8::CpuProfileDeoptInfo>>::operator =(class std::<struct v8::CpuProfileDeoptInfo,class std::<struct v8::CpuProfileDeoptInfo>> const &__ptr64 )__ptr64 
??4?$vector@UCpuProfileDeoptInfo@v8@@V?$allocator@UCpuProfileDeoptInfo@v8@@@std@@@std@@QEAAAEAV01@AEBV01@@Z
; public: class std::<struct v8::CpuProfileDeoptInfo,class std::<struct v8::CpuProfileDeoptInfo>> &__ptr64 __cdecl std::<struct v8::CpuProfileDeoptInfo,class std::<struct v8::CpuProfileDeoptInfo>>::operator =(class std::<struct v8::CpuProfileDeoptInfo>)__ptr64 
??4?$vector@UCpuProfileDeoptInfo@v8@@V?$allocator@UCpuProfileDeoptInfo@v8@@@std@@@std@@QEAAAEAV01@V?$initializer_list@UCpuProfileDeoptInfo@v8@@@1@@Z
; public: class v8::internal::interpreter::AbstractBytecodeArray &__ptr64 __cdecl v8::internal::interpreter::AbstractBytecodeArray::operator =(class v8::internal::interpreter::AbstractBytecodeArray const &__ptr64 )__ptr64 
??4AbstractBytecodeArray@interpreter@internal@v8@@QEAAAEAV0123@AEBV0123@@Z
; public: class v8::AccessorSignature &__ptr64 __cdecl v8::AccessorSignature::operator =(,class v8::AccessorSignature *__ptr64 const)__ptr64 
??4AccessorSignature@v8@@QEAAAEAV01@$$QEAV01@@Z
; public: class v8::AccessorSignature &__ptr64 __cdecl v8::AccessorSignature::operator =(class v8::AccessorSignature const &__ptr64 )__ptr64 
??4AccessorSignature@v8@@QEAAAEAV01@AEBV01@@Z
; public: class v8::ActivityControl &__ptr64 __cdecl v8::ActivityControl::operator =(class v8::ActivityControl const &__ptr64 )__ptr64 
??4ActivityControl@v8@@QEAAAEAV01@AEBV01@@Z
; public: class v8::internal::AddressToTraceMap &__ptr64 __cdecl v8::internal::AddressToTraceMap::operator =(,class v8::internal::AddressToTraceMap *__ptr64 const)__ptr64 
??4AddressToTraceMap@internal@v8@@QEAAAEAV012@$$QEAV012@@Z
; public: class v8::internal::AddressToTraceMap &__ptr64 __cdecl v8::internal::AddressToTraceMap::operator =(class v8::internal::AddressToTraceMap const &__ptr64 )__ptr64 
??4AddressToTraceMap@internal@v8@@QEAAAEAV012@AEBV012@@Z
; public: class v8::AllocationProfile &__ptr64 __cdecl v8::AllocationProfile::operator =(class v8::AllocationProfile const &__ptr64 )__ptr64 
??4AllocationProfile@v8@@QEAAAEAV01@AEBV01@@Z
; public: class v8::ArrayBuffer::Allocator &__ptr64 __cdecl v8::ArrayBuffer::Allocator::operator =(class v8::ArrayBuffer::Allocator const &__ptr64 )__ptr64 
??4Allocator@ArrayBuffer@v8@@QEAAAEAV012@AEBV012@@Z
; public: class v8::Array &__ptr64 __cdecl v8::Array::operator =(,class v8::Array *__ptr64 const)__ptr64 
??4Array@v8@@QEAAAEAV01@$$QEAV01@@Z
; public: class v8::Array &__ptr64 __cdecl v8::Array::operator =(class v8::Array const &__ptr64 )__ptr64 
??4Array@v8@@QEAAAEAV01@AEBV01@@Z
; public: class v8::ArrayBuffer &__ptr64 __cdecl v8::ArrayBuffer::operator =(,class v8::ArrayBuffer *__ptr64 const)__ptr64 
??4ArrayBuffer@v8@@QEAAAEAV01@$$QEAV01@@Z
; public: class v8::ArrayBuffer &__ptr64 __cdecl v8::ArrayBuffer::operator =(class v8::ArrayBuffer const &__ptr64 )__ptr64 
??4ArrayBuffer@v8@@QEAAAEAV01@AEBV01@@Z
; public: class node::ArrayBufferAllocator &__ptr64 __cdecl node::ArrayBufferAllocator::operator =(,class node::ArrayBufferAllocator *__ptr64 const)__ptr64 
??4ArrayBufferAllocator@node@@QEAAAEAV01@$$QEAV01@@Z
; public: class node::ArrayBufferAllocator &__ptr64 __cdecl node::ArrayBufferAllocator::operator =(class node::ArrayBufferAllocator const &__ptr64 )__ptr64 
??4ArrayBufferAllocator@node@@QEAAAEAV01@AEBV01@@Z
; public: class v8::ArrayBufferView &__ptr64 __cdecl v8::ArrayBufferView::operator =(,class v8::ArrayBufferView *__ptr64 const)__ptr64 
??4ArrayBufferView@v8@@QEAAAEAV01@$$QEAV01@@Z
; public: class v8::ArrayBufferView &__ptr64 __cdecl v8::ArrayBufferView::operator =(class v8::ArrayBufferView const &__ptr64 )__ptr64 
??4ArrayBufferView@v8@@QEAAAEAV01@AEBV01@@Z
; public: class v8::internal::AsmJsScanner &__ptr64 __cdecl v8::internal::AsmJsScanner::operator =(,class v8::internal::AsmJsScanner *__ptr64 const)__ptr64 
??4AsmJsScanner@internal@v8@@QEAAAEAV012@$$QEAV012@@Z
; public: class v8::internal::AsmJsScanner &__ptr64 __cdecl v8::internal::AsmJsScanner::operator =(class v8::internal::AsmJsScanner const &__ptr64 )__ptr64 
??4AsmJsScanner@internal@v8@@QEAAAEAV012@AEBV012@@Z
; public: class v8::internal::wasm::AsmType &__ptr64 __cdecl v8::internal::wasm::AsmType::operator =(,class v8::internal::wasm::AsmType *__ptr64 const)__ptr64 
??4AsmType@wasm@internal@v8@@QEAAAEAV0123@$$QEAV0123@@Z
; public: class v8::internal::wasm::AsmType &__ptr64 __cdecl v8::internal::wasm::AsmType::operator =(class v8::internal::wasm::AsmType const &__ptr64 )__ptr64 
??4AsmType@wasm@internal@v8@@QEAAAEAV0123@AEBV0123@@Z
; public: struct v8::internal::AssemblerOptions &__ptr64 __cdecl v8::internal::AssemblerOptions::operator =(,struct v8::internal::AssemblerOptions *__ptr64 const)__ptr64 
??4AssemblerOptions@internal@v8@@QEAAAEAU012@$$QEAU012@@Z
; public: struct v8::internal::AssemblerOptions &__ptr64 __cdecl v8::internal::AssemblerOptions::operator =(struct v8::internal::AssemblerOptions const &__ptr64 )__ptr64 
??4AssemblerOptions@internal@v8@@QEAAAEAU012@AEBU012@@Z
; public: struct v8::internal::SourceTextModuleDescriptor::AstRawStringComparer &__ptr64 __cdecl v8::internal::SourceTextModuleDescriptor::AstRawStringComparer::operator =(,struct v8::internal::SourceTextModuleDescriptor::AstRawStringComparer *__ptr64 const)__ptr64 
??4AstRawStringComparer@SourceTextModuleDescriptor@internal@v8@@QEAAAEAU0123@$$QEAU0123@@Z
; public: struct v8::internal::SourceTextModuleDescriptor::AstRawStringComparer &__ptr64 __cdecl v8::internal::SourceTextModuleDescriptor::AstRawStringComparer::operator =(struct v8::internal::SourceTextModuleDescriptor::AstRawStringComparer const &__ptr64 )__ptr64 
??4AstRawStringComparer@SourceTextModuleDescriptor@internal@v8@@QEAAAEAU0123@AEBU0123@@Z
; public: class v8::Isolate::AtomicsWaitWakeHandle &__ptr64 __cdecl v8::Isolate::AtomicsWaitWakeHandle::operator =(,class v8::Isolate::AtomicsWaitWakeHandle *__ptr64 const)__ptr64 
??4AtomicsWaitWakeHandle@Isolate@v8@@QEAAAEAV012@$$QEAV012@@Z
; public: class v8::Isolate::AtomicsWaitWakeHandle &__ptr64 __cdecl v8::Isolate::AtomicsWaitWakeHandle::operator =(class v8::Isolate::AtomicsWaitWakeHandle const &__ptr64 )__ptr64 
??4AtomicsWaitWakeHandle@Isolate@v8@@QEAAAEAV012@AEBV012@@Z
; public: class v8::Context::BackupIncumbentScope &__ptr64 __cdecl v8::Context::BackupIncumbentScope::operator =(class v8::Context::BackupIncumbentScope const &__ptr64 )__ptr64 
??4BackupIncumbentScope@Context@v8@@QEAAAEAV012@AEBV012@@Z
; public: class v8::BigInt64Array &__ptr64 __cdecl v8::BigInt64Array::operator =(,class v8::BigInt64Array *__ptr64 const)__ptr64 
??4BigInt64Array@v8@@QEAAAEAV01@$$QEAV01@@Z
; public: class v8::BigInt64Array &__ptr64 __cdecl v8::BigInt64Array::operator =(class v8::BigInt64Array const &__ptr64 )__ptr64 
??4BigInt64Array@v8@@QEAAAEAV01@AEBV01@@Z
; public: class v8::BigInt &__ptr64 __cdecl v8::BigInt::operator =(,class v8::BigInt *__ptr64 const)__ptr64 
??4BigInt@v8@@QEAAAEAV01@$$QEAV01@@Z
; public: class v8::BigInt &__ptr64 __cdecl v8::BigInt::operator =(class v8::BigInt const &__ptr64 )__ptr64 
??4BigInt@v8@@QEAAAEAV01@AEBV01@@Z
; public: class v8::BigIntObject &__ptr64 __cdecl v8::BigIntObject::operator =(,class v8::BigIntObject *__ptr64 const)__ptr64 
??4BigIntObject@v8@@QEAAAEAV01@$$QEAV01@@Z
; public: class v8::BigIntObject &__ptr64 __cdecl v8::BigIntObject::operator =(class v8::BigIntObject const &__ptr64 )__ptr64 
??4BigIntObject@v8@@QEAAAEAV01@AEBV01@@Z
; public: class v8::internal::BigIntToI32PairDescriptor &__ptr64 __cdecl v8::internal::BigIntToI32PairDescriptor::operator =(,class v8::internal::BigIntToI32PairDescriptor *__ptr64 const)__ptr64 
??4BigIntToI32PairDescriptor@internal@v8@@QEAAAEAV012@$$QEAV012@@Z
; public: class v8::internal::BigIntToI32PairDescriptor &__ptr64 __cdecl v8::internal::BigIntToI32PairDescriptor::operator =(class v8::internal::BigIntToI32PairDescriptor const &__ptr64 )__ptr64 
??4BigIntToI32PairDescriptor@internal@v8@@QEAAAEAV012@AEBV012@@Z
; public: class v8::internal::BigIntToI64Descriptor &__ptr64 __cdecl v8::internal::BigIntToI64Descriptor::operator =(,class v8::internal::BigIntToI64Descriptor *__ptr64 const)__ptr64 
??4BigIntToI64Descriptor@internal@v8@@QEAAAEAV012@$$QEAV012@@Z
; public: class v8::internal::BigIntToI64Descriptor &__ptr64 __cdecl v8::internal::BigIntToI64Descriptor::operator =(class v8::internal::BigIntToI64Descriptor const &__ptr64 )__ptr64 
??4BigIntToI64Descriptor@internal@v8@@QEAAAEAV012@AEBV012@@Z
; public: class v8::BigUint64Array &__ptr64 __cdecl v8::BigUint64Array::operator =(,class v8::BigUint64Array *__ptr64 const)__ptr64 
??4BigUint64Array@v8@@QEAAAEAV01@$$QEAV01@@Z
; public: class v8::BigUint64Array &__ptr64 __cdecl v8::BigUint64Array::operator =(class v8::BigUint64Array const &__ptr64 )__ptr64 
??4BigUint64Array@v8@@QEAAAEAV01@AEBV01@@Z
; public: class v8::internal::Bitmap &__ptr64 __cdecl v8::internal::Bitmap::operator =(,class v8::internal::Bitmap *__ptr64 const)__ptr64 
??4Bitmap@internal@v8@@QEAAAEAV012@$$QEAV012@@Z
; public: class v8::internal::Bitmap &__ptr64 __cdecl v8::internal::Bitmap::operator =(class v8::internal::Bitmap const &__ptr64 )__ptr64 
??4Bitmap@internal@v8@@QEAAAEAV012@AEBV012@@Z
; public: class v8::internal::compiler::BitsetType &__ptr64 __cdecl v8::internal::compiler::BitsetType::operator =(,class v8::internal::compiler::BitsetType *__ptr64 const)__ptr64 
??4BitsetType@compiler@internal@v8@@QEAAAEAV0123@$$QEAV0123@@Z
; public: class v8::internal::compiler::BitsetType &__ptr64 __cdecl v8::internal::compiler::BitsetType::operator =(class v8::internal::compiler::BitsetType const &__ptr64 )__ptr64 
??4BitsetType@compiler@internal@v8@@QEAAAEAV0123@AEBV0123@@Z
; public: class v8::debug::Coverage::BlockData &__ptr64 __cdecl v8::debug::Coverage::BlockData::operator =(,class v8::debug::Coverage::BlockData *__ptr64 const)__ptr64 
??4BlockData@Coverage@debug@v8@@QEAAAEAV0123@$$QEAV0123@@Z
; public: class v8::Boolean &__ptr64 __cdecl v8::Boolean::operator =(,class v8::Boolean *__ptr64 const)__ptr64 
??4Boolean@v8@@QEAAAEAV01@$$QEAV01@@Z
; public: class v8::Boolean &__ptr64 __cdecl v8::Boolean::operator =(class v8::Boolean const &__ptr64 )__ptr64 
??4Boolean@v8@@QEAAAEAV01@AEBV01@@Z
; public: class v8::BooleanObject &__ptr64 __cdecl v8::BooleanObject::operator =(,class v8::BooleanObject *__ptr64 const)__ptr64 
??4BooleanObject@v8@@QEAAAEAV01@$$QEAV01@@Z
; public: class v8::BooleanObject &__ptr64 __cdecl v8::BooleanObject::operator =(class v8::BooleanObject const &__ptr64 )__ptr64 
??4BooleanObject@v8@@QEAAAEAV01@AEBV01@@Z
; public: struct v8::internal::compiler::BranchMatcher &__ptr64 __cdecl v8::internal::compiler::BranchMatcher::operator =(,struct v8::internal::compiler::BranchMatcher *__ptr64 const)__ptr64 
??4BranchMatcher@compiler@internal@v8@@QEAAAEAU0123@$$QEAU0123@@Z
; public: struct v8::internal::compiler::BranchMatcher &__ptr64 __cdecl v8::internal::compiler::BranchMatcher::operator =(struct v8::internal::compiler::BranchMatcher const &__ptr64 )__ptr64 
??4BranchMatcher@compiler@internal@v8@@QEAAAEAU0123@AEBU0123@@Z
; public: class v8::debug::BreakLocation &__ptr64 __cdecl v8::debug::BreakLocation::operator =(,class v8::debug::BreakLocation *__ptr64 const)__ptr64 
??4BreakLocation@debug@v8@@QEAAAEAV012@$$QEAV012@@Z
; public: class v8::debug::BreakLocation &__ptr64 __cdecl v8::debug::BreakLocation::operator =(class v8::debug::BreakLocation const &__ptr64 )__ptr64 
??4BreakLocation@debug@v8@@QEAAAEAV012@AEBV012@@Z
; public: class v8::internal::PreparseDataBuilder::ByteData &__ptr64 __cdecl v8::internal::PreparseDataBuilder::ByteData::operator =(class v8::internal::PreparseDataBuilder::ByteData const &__ptr64 )__ptr64 
??4ByteData@PreparseDataBuilder@internal@v8@@QEAAAEAV0123@AEBV0123@@Z
; public: class v8::internal::interpreter::BytecodeDecoder &__ptr64 __cdecl v8::internal::interpreter::BytecodeDecoder::operator =(,class v8::internal::interpreter::BytecodeDecoder *__ptr64 const)__ptr64 
??4BytecodeDecoder@interpreter@internal@v8@@QEAAAEAV0123@$$QEAV0123@@Z
; public: class v8::internal::interpreter::BytecodeDecoder &__ptr64 __cdecl v8::internal::interpreter::BytecodeDecoder::operator =(class v8::internal::interpreter::BytecodeDecoder const &__ptr64 )__ptr64 
??4BytecodeDecoder@interpreter@internal@v8@@QEAAAEAV0123@AEBV0123@@Z
; public: class v8::internal::wasm::BytecodeIterator &__ptr64 __cdecl v8::internal::wasm::BytecodeIterator::operator =(,class v8::internal::wasm::BytecodeIterator *__ptr64 const)__ptr64 
??4BytecodeIterator@wasm@internal@v8@@QEAAAEAV0123@$$QEAV0123@@Z
; public: class v8::internal::wasm::BytecodeIterator &__ptr64 __cdecl v8::internal::wasm::BytecodeIterator::operator =(class v8::internal::wasm::BytecodeIterator const &__ptr64 )__ptr64 
??4BytecodeIterator@wasm@internal@v8@@QEAAAEAV0123@AEBV0123@@Z
; public: class v8::internal::interpreter::BytecodeJumpTable &__ptr64 __cdecl v8::internal::interpreter::BytecodeJumpTable::operator =(,class v8::internal::interpreter::BytecodeJumpTable *__ptr64 const)__ptr64 
??4BytecodeJumpTable@interpreter@internal@v8@@QEAAAEAV0123@$$QEAV0123@@Z
; public: class v8::internal::interpreter::BytecodeJumpTable &__ptr64 __cdecl v8::internal::interpreter::BytecodeJumpTable::operator =(class v8::internal::interpreter::BytecodeJumpTable const &__ptr64 )__ptr64 
??4BytecodeJumpTable@interpreter@internal@v8@@QEAAAEAV0123@AEBV0123@@Z
; public: class v8::internal::interpreter::BytecodeLabel &__ptr64 __cdecl v8::internal::interpreter::BytecodeLabel::operator =(,class v8::internal::interpreter::BytecodeLabel *__ptr64 const)__ptr64 
??4BytecodeLabel@interpreter@internal@v8@@QEAAAEAV0123@$$QEAV0123@@Z
; public: class v8::internal::interpreter::BytecodeLabel &__ptr64 __cdecl v8::internal::interpreter::BytecodeLabel::operator =(class v8::internal::interpreter::BytecodeLabel const &__ptr64 )__ptr64 
??4BytecodeLabel@interpreter@internal@v8@@QEAAAEAV0123@AEBV0123@@Z
; public: class v8::internal::interpreter::BytecodeLoopHeader &__ptr64 __cdecl v8::internal::interpreter::BytecodeLoopHeader::operator =(,class v8::internal::interpreter::BytecodeLoopHeader *__ptr64 const)__ptr64 
??4BytecodeLoopHeader@interpreter@internal@v8@@QEAAAEAV0123@$$QEAV0123@@Z
; public: class v8::internal::interpreter::BytecodeLoopHeader &__ptr64 __cdecl v8::internal::interpreter::BytecodeLoopHeader::operator =(class v8::internal::interpreter::BytecodeLoopHeader const &__ptr64 )__ptr64 
??4BytecodeLoopHeader@interpreter@internal@v8@@QEAAAEAV0123@AEBV0123@@Z
; public: class v8::internal::interpreter::BytecodeNode &__ptr64 __cdecl v8::internal::interpreter::BytecodeNode::operator =(,class v8::internal::interpreter::BytecodeNode *__ptr64 const)__ptr64 
??4BytecodeNode@interpreter@internal@v8@@QEAAAEAV0123@$$QEAV0123@@Z
; public: class v8::internal::interpreter::BytecodeNode &__ptr64 __cdecl v8::internal::interpreter::BytecodeNode::operator =(class v8::internal::interpreter::BytecodeNode const &__ptr64 )__ptr64 
??4BytecodeNode@interpreter@internal@v8@@QEAAAEAV0123@AEBV0123@@Z
; public: class v8::internal::interpreter::Bytecodes &__ptr64 __cdecl v8::internal::interpreter::Bytecodes::operator =(,class v8::internal::interpreter::Bytecodes *__ptr64 const)__ptr64 
??4Bytecodes@interpreter@internal@v8@@QEAAAEAV0123@$$QEAV0123@@Z
; public: class v8::internal::interpreter::Bytecodes &__ptr64 __cdecl v8::internal::interpreter::Bytecodes::operator =(class v8::internal::interpreter::Bytecodes const &__ptr64 )__ptr64 
??4Bytecodes@interpreter@internal@v8@@QEAAAEAV0123@AEBV0123@@Z
; public: class v8::base::CPU &__ptr64 __cdecl v8::base::CPU::operator =(,class v8::base::CPU *__ptr64 const)__ptr64 
??4CPU@base@v8@@QEAAAEAV012@$$QEAV012@@Z
; public: class v8::base::CPU &__ptr64 __cdecl v8::base::CPU::operator =(class v8::base::CPU const &__ptr64 )__ptr64 
??4CPU@base@v8@@QEAAAEAV012@AEBV012@@Z
; public: class v8::internal::CallDescriptors &__ptr64 __cdecl v8::internal::CallDescriptors::operator =(,class v8::internal::CallDescriptors *__ptr64 const)__ptr64 
??4CallDescriptors@internal@v8@@QEAAAEAV012@$$QEAV012@@Z
; public: class v8::internal::CallDescriptors &__ptr64 __cdecl v8::internal::CallDescriptors::operator =(class v8::internal::CallDescriptors const &__ptr64 )__ptr64 
??4CallDescriptors@internal@v8@@QEAAAEAV012@AEBV012@@Z
; public: class v8::internal::CallInterfaceDescriptor &__ptr64 __cdecl v8::internal::CallInterfaceDescriptor::operator =(class v8::internal::CallInterfaceDescriptor const &__ptr64 )__ptr64 
??4CallInterfaceDescriptor@internal@v8@@QEAAAEAV012@AEBV012@@Z
; public: class v8::internal::CanonicalHandleScope &__ptr64 __cdecl v8::internal::CanonicalHandleScope::operator =(class v8::internal::CanonicalHandleScope const &__ptr64 )__ptr64 
??4CanonicalHandleScope@internal@v8@@QEAAAEAV012@AEBV012@@Z
; public: class v8_inspector::V8Inspector::Channel &__ptr64 __cdecl v8_inspector::V8Inspector::Channel::operator =(class v8_inspector::V8Inspector::Channel const &__ptr64 )__ptr64 
??4Channel@V8Inspector@v8_inspector@@QEAAAEAV012@AEBV012@@Z
; public: class v8::internal::CodeCommentsIterator &__ptr64 __cdecl v8::internal::CodeCommentsIterator::operator =(,class v8::internal::CodeCommentsIterator *__ptr64 const)__ptr64 
??4CodeCommentsIterator@internal@v8@@QEAAAEAV012@$$QEAV012@@Z
; public: class v8::internal::CodeCommentsIterator &__ptr64 __cdecl v8::internal::CodeCommentsIterator::operator =(class v8::internal::CodeCommentsIterator const &__ptr64 )__ptr64 
??4CodeCommentsIterator@internal@v8@@QEAAAEAV012@AEBV012@@Z
; public: class v8::CodeEvent &__ptr64 __cdecl v8::CodeEvent::operator =(,class v8::CodeEvent *__ptr64 const)__ptr64 
??4CodeEvent@v8@@QEAAAEAV01@$$QEAV01@@Z
; public: class v8::CodeEvent &__ptr64 __cdecl v8::CodeEvent::operator =(class v8::CodeEvent const &__ptr64 )__ptr64 
??4CodeEvent@v8@@QEAAAEAV01@AEBV01@@Z
; public: class v8::internal::CodeEventLogger &__ptr64 __cdecl v8::internal::CodeEventLogger::operator =(class v8::internal::CodeEventLogger const &__ptr64 )__ptr64 
??4CodeEventLogger@internal@v8@@QEAAAEAV012@AEBV012@@Z
; public: class v8::internal::CodeFactory &__ptr64 __cdecl v8::internal::CodeFactory::operator =(,class v8::internal::CodeFactory *__ptr64 const)__ptr64 
??4CodeFactory@internal@v8@@QEAAAEAV012@$$QEAV012@@Z
; public: class v8::internal::CodeFactory &__ptr64 __cdecl v8::internal::CodeFactory::operator =(class v8::internal::CodeFactory const &__ptr64 )__ptr64 
??4CodeFactory@internal@v8@@QEAAAEAV012@AEBV012@@Z
; public: class v8::internal::CodeObjectRegistry &__ptr64 __cdecl v8::internal::CodeObjectRegistry::operator =(,class v8::internal::CodeObjectRegistry *__ptr64 const)__ptr64 
??4CodeObjectRegistry@internal@v8@@QEAAAEAV012@$$QEAV012@@Z
; public: class v8::internal::CodeObjectRegistry &__ptr64 __cdecl v8::internal::CodeObjectRegistry::operator =(class v8::internal::CodeObjectRegistry const &__ptr64 )__ptr64 
??4CodeObjectRegistry@internal@v8@@QEAAAEAV012@AEBV012@@Z
; public: class v8::internal::CompilationJob &__ptr64 __cdecl v8::internal::CompilationJob::operator =(class v8::internal::CompilationJob const &__ptr64 )__ptr64 
??4CompilationJob@internal@v8@@QEAAAEAV012@AEBV012@@Z
; public: class v8::internal::wasm::CompilationResultResolver &__ptr64 __cdecl v8::internal::wasm::CompilationResultResolver::operator =(class v8::internal::wasm::CompilationResultResolver const &__ptr64 )__ptr64 
??4CompilationResultResolver@wasm@internal@v8@@QEAAAEAV0123@AEBV0123@@Z
; public: class v8::internal::Compiler &__ptr64 __cdecl v8::internal::Compiler::operator =(,class v8::internal::Compiler *__ptr64 const)__ptr64 
??4Compiler@internal@v8@@QEAAAEAV012@$$QEAV012@@Z
; public: class v8::internal::Compiler &__ptr64 __cdecl v8::internal::Compiler::operator =(class v8::internal::Compiler const &__ptr64 )__ptr64 
??4Compiler@internal@v8@@QEAAAEAV012@AEBV012@@Z
; public: class v8::internal::compiler::Constant &__ptr64 __cdecl v8::internal::compiler::Constant::operator =(,class v8::internal::compiler::Constant *__ptr64 const)__ptr64 
??4Constant@compiler@internal@v8@@QEAAAEAV0123@$$QEAV0123@@Z
; public: class v8::internal::compiler::Constant &__ptr64 __cdecl v8::internal::compiler::Constant::operator =(class v8::internal::compiler::Constant const &__ptr64 )__ptr64 
??4Constant@compiler@internal@v8@@QEAAAEAV0123@AEBV0123@@Z
; public: class v8::ArrayBuffer::Contents &__ptr64 __cdecl v8::ArrayBuffer::Contents::operator =(,class v8::ArrayBuffer::Contents *__ptr64 const)__ptr64 
??4Contents@ArrayBuffer@v8@@QEAAAEAV012@$$QEAV012@@Z
; public: class v8::ArrayBuffer::Contents &__ptr64 __cdecl v8::ArrayBuffer::Contents::operator =(class v8::ArrayBuffer::Contents const &__ptr64 )__ptr64 
??4Contents@ArrayBuffer@v8@@QEAAAEAV012@AEBV012@@Z
; public: class v8::SharedArrayBuffer::Contents &__ptr64 __cdecl v8::SharedArrayBuffer::Contents::operator =(,class v8::SharedArrayBuffer::Contents *__ptr64 const)__ptr64 
??4Contents@SharedArrayBuffer@v8@@QEAAAEAV012@$$QEAV012@@Z
; public: class v8::SharedArrayBuffer::Contents &__ptr64 __cdecl v8::SharedArrayBuffer::Contents::operator =(class v8::SharedArrayBuffer::Contents const &__ptr64 )__ptr64 
??4Contents@SharedArrayBuffer@v8@@QEAAAEAV012@AEBV012@@Z
; public: class v8::Context &__ptr64 __cdecl v8::Context::operator =(,class v8::Context *__ptr64 const)__ptr64 
??4Context@v8@@QEAAAEAV01@$$QEAV01@@Z
; public: class v8::Context &__ptr64 __cdecl v8::Context::operator =(class v8::Context const &__ptr64 )__ptr64 
??4Context@v8@@QEAAAEAV01@AEBV01@@Z
; public: class v8::debug::Coverage &__ptr64 __cdecl v8::debug::Coverage::operator =(,class v8::debug::Coverage *__ptr64 const)__ptr64 
??4Coverage@debug@v8@@QEAAAEAV012@$$QEAV012@@Z
; public: class v8::internal::CpuFeatureScope &__ptr64 __cdecl v8::internal::CpuFeatureScope::operator =(class v8::internal::CpuFeatureScope const &__ptr64 )__ptr64 
??4CpuFeatureScope@internal@v8@@QEAAAEAV012@AEBV012@@Z
; public: class v8::CpuProfile &__ptr64 __cdecl v8::CpuProfile::operator =(,class v8::CpuProfile *__ptr64 const)__ptr64 
??4CpuProfile@v8@@QEAAAEAV01@$$QEAV01@@Z
; public: class v8::CpuProfile &__ptr64 __cdecl v8::CpuProfile::operator =(class v8::CpuProfile const &__ptr64 )__ptr64 
??4CpuProfile@v8@@QEAAAEAV01@AEBV01@@Z
; public: struct v8::CpuProfileDeoptInfo &__ptr64 __cdecl v8::CpuProfileDeoptInfo::operator =(,struct v8::CpuProfileDeoptInfo *__ptr64 const)__ptr64 
??4CpuProfileDeoptInfo@v8@@QEAAAEAU01@$$QEAU01@@Z
; public: struct v8::CpuProfileDeoptInfo &__ptr64 __cdecl v8::CpuProfileDeoptInfo::operator =(struct v8::CpuProfileDeoptInfo const &__ptr64 )__ptr64 
??4CpuProfileDeoptInfo@v8@@QEAAAEAU01@AEBU01@@Z
; public: class v8::CpuProfileNode &__ptr64 __cdecl v8::CpuProfileNode::operator =(,class v8::CpuProfileNode *__ptr64 const)__ptr64 
??4CpuProfileNode@v8@@QEAAAEAV01@$$QEAV01@@Z
; public: class v8::CpuProfileNode &__ptr64 __cdecl v8::CpuProfileNode::operator =(class v8::CpuProfileNode const &__ptr64 )__ptr64 
??4CpuProfileNode@v8@@QEAAAEAV01@AEBV01@@Z
; public: class v8::CpuProfilingOptions &__ptr64 __cdecl v8::CpuProfilingOptions::operator =(,class v8::CpuProfilingOptions *__ptr64 const)__ptr64 
??4CpuProfilingOptions@v8@@QEAAAEAV01@$$QEAV01@@Z
; public: class v8::CpuProfilingOptions &__ptr64 __cdecl v8::CpuProfilingOptions::operator =(class v8::CpuProfilingOptions const &__ptr64 )__ptr64 
??4CpuProfilingOptions@v8@@QEAAAEAV01@AEBV01@@Z
; public: class v8::Data &__ptr64 __cdecl v8::Data::operator =(,class v8::Data *__ptr64 const)__ptr64 
??4Data@v8@@QEAAAEAV01@$$QEAV01@@Z
; public: class v8::Data &__ptr64 __cdecl v8::Data::operator =(class v8::Data const &__ptr64 )__ptr64 
??4Data@v8@@QEAAAEAV01@AEBV01@@Z
; public: class v8::DataView &__ptr64 __cdecl v8::DataView::operator =(,class v8::DataView *__ptr64 const)__ptr64 
??4DataView@v8@@QEAAAEAV01@$$QEAV01@@Z
; public: class v8::DataView &__ptr64 __cdecl v8::DataView::operator =(class v8::DataView const &__ptr64 )__ptr64 
??4DataView@v8@@QEAAAEAV01@AEBV01@@Z
; public: class v8::Date &__ptr64 __cdecl v8::Date::operator =(,class v8::Date *__ptr64 const)__ptr64 
??4Date@v8@@QEAAAEAV01@$$QEAV01@@Z
; public: class v8::Date &__ptr64 __cdecl v8::Date::operator =(class v8::Date const &__ptr64 )__ptr64 
??4Date@v8@@QEAAAEAV01@AEBV01@@Z
; public: class v8::internal::DateCache &__ptr64 __cdecl v8::internal::DateCache::operator =(class v8::internal::DateCache const &__ptr64 )__ptr64 
??4DateCache@internal@v8@@QEAAAEAV012@AEBV012@@Z
; public: class v8::internal::DbgStreamBuf &__ptr64 __cdecl v8::internal::DbgStreamBuf::operator =(class v8::internal::DbgStreamBuf const &__ptr64 )__ptr64 
??4DbgStreamBuf@internal@v8@@QEAAAEAV012@AEBV012@@Z
; public: class v8::internal::DeferredHandleScope &__ptr64 __cdecl v8::internal::DeferredHandleScope::operator =(class v8::internal::DeferredHandleScope const &__ptr64 )__ptr64 
??4DeferredHandleScope@internal@v8@@QEAAAEAV012@AEBV012@@Z
; public: class v8::internal::DeferredHandles &__ptr64 __cdecl v8::internal::DeferredHandles::operator =(class v8::internal::DeferredHandles const &__ptr64 )__ptr64 
??4DeferredHandles@internal@v8@@QEAAAEAV012@AEBV012@@Z
; public: class v8::ValueDeserializer::Delegate &__ptr64 __cdecl v8::ValueDeserializer::Delegate::operator =(class v8::ValueDeserializer::Delegate const &__ptr64 )__ptr64 
??4Delegate@ValueDeserializer@v8@@QEAAAEAV012@AEBV012@@Z
; public: class v8::ValueSerializer::Delegate &__ptr64 __cdecl v8::ValueSerializer::Delegate::operator =(class v8::ValueSerializer::Delegate const &__ptr64 )__ptr64 
??4Delegate@ValueSerializer@v8@@QEAAAEAV012@AEBV012@@Z
; public: class v8::internal::Descriptor &__ptr64 __cdecl v8::internal::Descriptor::operator =(,class v8::internal::Descriptor *__ptr64 const)__ptr64 
??4Descriptor@internal@v8@@QEAAAEAV012@$$QEAV012@@Z
; public: class v8::internal::Descriptor &__ptr64 __cdecl v8::internal::Descriptor::operator =(class v8::internal::Descriptor const &__ptr64 )__ptr64 
??4Descriptor@internal@v8@@QEAAAEAV012@AEBV012@@Z
; public: class v8::internal::DetachableVectorBase &__ptr64 __cdecl v8::internal::DetachableVectorBase::operator =(,class v8::internal::DetachableVectorBase *__ptr64 const)__ptr64 
??4DetachableVectorBase@internal@v8@@QEAAAEAV012@$$QEAV012@@Z
; public: class v8::internal::DetachableVectorBase &__ptr64 __cdecl v8::internal::DetachableVectorBase::operator =(class v8::internal::DetachableVectorBase const &__ptr64 )__ptr64 
??4DetachableVectorBase@internal@v8@@QEAAAEAV012@AEBV012@@Z
; public: struct v8::internal::compiler::DiamondMatcher &__ptr64 __cdecl v8::internal::compiler::DiamondMatcher::operator =(,struct v8::internal::compiler::DiamondMatcher *__ptr64 const)__ptr64 
??4DiamondMatcher@compiler@internal@v8@@QEAAAEAU0123@$$QEAU0123@@Z
; public: struct v8::internal::compiler::DiamondMatcher &__ptr64 __cdecl v8::internal::compiler::DiamondMatcher::operator =(struct v8::internal::compiler::DiamondMatcher const &__ptr64 )__ptr64 
??4DiamondMatcher@compiler@internal@v8@@QEAAAEAU0123@AEBU0123@@Z
; public: class v8::internal::wasm::DisjointAllocationPool &__ptr64 __cdecl v8::internal::wasm::DisjointAllocationPool::operator =(,class v8::internal::wasm::DisjointAllocationPool *__ptr64 const)__ptr64 
??4DisjointAllocationPool@wasm@internal@v8@@QEAAAEAV0123@$$QEAV0123@@Z
; public: class v8_inspector::protocol::Schema::API::Domain &__ptr64 __cdecl v8_inspector::protocol::Schema::API::Domain::operator =(,class v8_inspector::protocol::Schema::API::Domain *__ptr64 const)__ptr64 
??4Domain@API@Schema@protocol@v8_inspector@@QEAAAEAV01234@$$QEAV01234@@Z
; public: class v8_inspector::protocol::Schema::API::Domain &__ptr64 __cdecl v8_inspector::protocol::Schema::API::Domain::operator =(class v8_inspector::protocol::Schema::API::Domain const &__ptr64 )__ptr64 
??4Domain@API@Schema@protocol@v8_inspector@@QEAAAEAV01234@AEBV01234@@Z
; public: class v8::internal::EhFrameConstants &__ptr64 __cdecl v8::internal::EhFrameConstants::operator =(,class v8::internal::EhFrameConstants *__ptr64 const)__ptr64 
??4EhFrameConstants@internal@v8@@QEAAAEAV012@$$QEAV012@@Z
; public: class v8::internal::EhFrameConstants &__ptr64 __cdecl v8::internal::EhFrameConstants::operator =(class v8::internal::EhFrameConstants const &__ptr64 )__ptr64 
??4EhFrameConstants@internal@v8@@QEAAAEAV012@AEBV012@@Z
; public: class v8::internal::EhFrameIterator &__ptr64 __cdecl v8::internal::EhFrameIterator::operator =(,class v8::internal::EhFrameIterator *__ptr64 const)__ptr64 
??4EhFrameIterator@internal@v8@@QEAAAEAV012@$$QEAV012@@Z
; public: class v8::internal::EhFrameIterator &__ptr64 __cdecl v8::internal::EhFrameIterator::operator =(class v8::internal::EhFrameIterator const &__ptr64 )__ptr64 
??4EhFrameIterator@internal@v8@@QEAAAEAV012@AEBV012@@Z
; public: class v8::EmbedderGraph &__ptr64 __cdecl v8::EmbedderGraph::operator =(class v8::EmbedderGraph const &__ptr64 )__ptr64 
??4EmbedderGraph@v8@@QEAAAEAV01@AEBV01@@Z
; public: class v8::EmbedderHeapTracer &__ptr64 __cdecl v8::EmbedderHeapTracer::operator =(class v8::EmbedderHeapTracer const &__ptr64 )__ptr64 
??4EmbedderHeapTracer@v8@@QEAAAEAV01@AEBV01@@Z
; public: class v8::debug::TypeProfile::Entry &__ptr64 __cdecl v8::debug::TypeProfile::Entry::operator =(,class v8::debug::TypeProfile::Entry *__ptr64 const)__ptr64 
??4Entry@TypeProfile@debug@v8@@QEAAAEAV0123@$$QEAV0123@@Z
; public: class v8::internal::EphemeronHashTable &__ptr64 __cdecl v8::internal::EphemeronHashTable::operator =(,class v8::internal::EphemeronHashTable *__ptr64 const)__ptr64 
??4EphemeronHashTable@internal@v8@@QEAAAEAV012@$$QEAV012@@Z
; public: class v8::internal::EphemeronHashTable &__ptr64 __cdecl v8::internal::EphemeronHashTable::operator =(class v8::internal::EphemeronHashTable const &__ptr64 )__ptr64 
??4EphemeronHashTable@internal@v8@@QEAAAEAV012@AEBV012@@Z
; public: class v8::Exception &__ptr64 __cdecl v8::Exception::operator =(,class v8::Exception *__ptr64 const)__ptr64 
??4Exception@v8@@QEAAAEAV01@$$QEAV01@@Z
; public: class v8::Exception &__ptr64 __cdecl v8::Exception::operator =(class v8::Exception const &__ptr64 )__ptr64 
??4Exception@v8@@QEAAAEAV01@AEBV01@@Z
; public: class v8::internal::compiler::ExplicitOperand &__ptr64 __cdecl v8::internal::compiler::ExplicitOperand::operator =(,class v8::internal::compiler::ExplicitOperand *__ptr64 const)__ptr64 
??4ExplicitOperand@compiler@internal@v8@@QEAAAEAV0123@$$QEAV0123@@Z
; public: class v8::internal::compiler::ExplicitOperand &__ptr64 __cdecl v8::internal::compiler::ExplicitOperand::operator =(class v8::internal::compiler::ExplicitOperand const &__ptr64 )__ptr64 
??4ExplicitOperand@compiler@internal@v8@@QEAAAEAV0123@AEBV0123@@Z
; public: class v8_inspector::protocol::Exported &__ptr64 __cdecl v8_inspector::protocol::Exported::operator =(class v8_inspector::protocol::Exported const &__ptr64 )__ptr64 
??4Exported@protocol@v8_inspector@@QEAAAEAV012@AEBV012@@Z
; public: class v8::External &__ptr64 __cdecl v8::External::operator =(,class v8::External *__ptr64 const)__ptr64 
??4External@v8@@QEAAAEAV01@$$QEAV01@@Z
; public: class v8::External &__ptr64 __cdecl v8::External::operator =(class v8::External const &__ptr64 )__ptr64 
??4External@v8@@QEAAAEAV01@AEBV01@@Z
; public: class v8::ExternalResourceVisitor &__ptr64 __cdecl v8::ExternalResourceVisitor::operator =(class v8::ExternalResourceVisitor const &__ptr64 )__ptr64 
??4ExternalResourceVisitor@v8@@QEAAAEAV01@AEBV01@@Z
; public: class v8::ScriptCompiler::ExternalSourceStream &__ptr64 __cdecl v8::ScriptCompiler::ExternalSourceStream::operator =(class v8::ScriptCompiler::ExternalSourceStream const &__ptr64 )__ptr64 
??4ExternalSourceStream@ScriptCompiler@v8@@QEAAAEAV012@AEBV012@@Z
; public: class v8::internal::Factory &__ptr64 __cdecl v8::internal::Factory::operator =(,class v8::internal::Factory *__ptr64 const)__ptr64 
??4Factory@internal@v8@@QEAAAEAV012@$$QEAV012@@Z
; public: class v8::internal::Factory &__ptr64 __cdecl v8::internal::Factory::operator =(class v8::internal::Factory const &__ptr64 )__ptr64 
??4Factory@internal@v8@@QEAAAEAV012@AEBV012@@Z
; public: class v8::internal::FeedbackNexus &__ptr64 __cdecl v8::internal::FeedbackNexus::operator =(,class v8::internal::FeedbackNexus *__ptr64 const)__ptr64 
??4FeedbackNexus@internal@v8@@QEAAAEAV012@$$QEAV012@@Z
; public: class v8::internal::FeedbackNexus &__ptr64 __cdecl v8::internal::FeedbackNexus::operator =(class v8::internal::FeedbackNexus const &__ptr64 )__ptr64 
??4FeedbackNexus@internal@v8@@QEAAAEAV012@AEBV012@@Z
; public: class v8::internal::FeedbackVectorSpec &__ptr64 __cdecl v8::internal::FeedbackVectorSpec::operator =(,class v8::internal::FeedbackVectorSpec *__ptr64 const)__ptr64 
??4FeedbackVectorSpec@internal@v8@@QEAAAEAV012@$$QEAV012@@Z
; public: class v8::internal::FeedbackVectorSpec &__ptr64 __cdecl v8::internal::FeedbackVectorSpec::operator =(class v8::internal::FeedbackVectorSpec const &__ptr64 )__ptr64 
??4FeedbackVectorSpec@internal@v8@@QEAAAEAV012@AEBV012@@Z
; public: class v8::FinalizationGroup &__ptr64 __cdecl v8::FinalizationGroup::operator =(,class v8::FinalizationGroup *__ptr64 const)__ptr64 
??4FinalizationGroup@v8@@QEAAAEAV01@$$QEAV01@@Z
; public: class v8::FinalizationGroup &__ptr64 __cdecl v8::FinalizationGroup::operator =(class v8::FinalizationGroup const &__ptr64 )__ptr64 
??4FinalizationGroup@v8@@QEAAAEAV01@AEBV01@@Z
; public: class v8::internal::FlagList &__ptr64 __cdecl v8::internal::FlagList::operator =(,class v8::internal::FlagList *__ptr64 const)__ptr64 
??4FlagList@internal@v8@@QEAAAEAV012@$$QEAV012@@Z
; public: class v8::internal::FlagList &__ptr64 __cdecl v8::internal::FlagList::operator =(class v8::internal::FlagList const &__ptr64 )__ptr64 
??4FlagList@internal@v8@@QEAAAEAV012@AEBV012@@Z
; public: class v8::internal::FlatStringReader &__ptr64 __cdecl v8::internal::FlatStringReader::operator =(,class v8::internal::FlatStringReader *__ptr64 const)__ptr64 
??4FlatStringReader@internal@v8@@QEAAAEAV012@$$QEAV012@@Z
; public: class v8::internal::FlatStringReader &__ptr64 __cdecl v8::internal::FlatStringReader::operator =(class v8::internal::FlatStringReader const &__ptr64 )__ptr64 
??4FlatStringReader@internal@v8@@QEAAAEAV012@AEBV012@@Z
; public: class v8::Float32Array &__ptr64 __cdecl v8::Float32Array::operator =(,class v8::Float32Array *__ptr64 const)__ptr64 
??4Float32Array@v8@@QEAAAEAV01@$$QEAV01@@Z
; public: class v8::Float32Array &__ptr64 __cdecl v8::Float32Array::operator =(class v8::Float32Array const &__ptr64 )__ptr64 
??4Float32Array@v8@@QEAAAEAV01@AEBV01@@Z
; public: class v8::Float64Array &__ptr64 __cdecl v8::Float64Array::operator =(,class v8::Float64Array *__ptr64 const)__ptr64 
??4Float64Array@v8@@QEAAAEAV01@$$QEAV01@@Z
; public: class v8::Float64Array &__ptr64 __cdecl v8::Float64Array::operator =(class v8::Float64Array const &__ptr64 )__ptr64 
??4Float64Array@v8@@QEAAAEAV01@AEBV01@@Z
; public: class v8::Function &__ptr64 __cdecl v8::Function::operator =(,class v8::Function *__ptr64 const)__ptr64 
??4Function@v8@@QEAAAEAV01@$$QEAV01@@Z
; public: class v8::Function &__ptr64 __cdecl v8::Function::operator =(class v8::Function const &__ptr64 )__ptr64 
??4Function@v8@@QEAAAEAV01@AEBV01@@Z
; public: class v8::debug::Coverage::FunctionData &__ptr64 __cdecl v8::debug::Coverage::FunctionData::operator =(,class v8::debug::Coverage::FunctionData *__ptr64 const)__ptr64 
??4FunctionData@Coverage@debug@v8@@QEAAAEAV0123@$$QEAV0123@@Z
; public: class v8::FunctionTemplate &__ptr64 __cdecl v8::FunctionTemplate::operator =(,class v8::FunctionTemplate *__ptr64 const)__ptr64 
??4FunctionTemplate@v8@@QEAAAEAV01@$$QEAV01@@Z
; public: class v8::FunctionTemplate &__ptr64 __cdecl v8::FunctionTemplate::operator =(class v8::FunctionTemplate const &__ptr64 )__ptr64 
??4FunctionTemplate@v8@@QEAAAEAV01@AEBV01@@Z
; public: struct v8::internal::CodeEntry::GCEntryCreateTrait &__ptr64 __cdecl v8::internal::CodeEntry::GCEntryCreateTrait::operator =(,struct v8::internal::CodeEntry::GCEntryCreateTrait *__ptr64 const)__ptr64 
??4GCEntryCreateTrait@CodeEntry@internal@v8@@QEAAAEAU0123@$$QEAU0123@@Z
; public: struct v8::internal::CodeEntry::GCEntryCreateTrait &__ptr64 __cdecl v8::internal::CodeEntry::GCEntryCreateTrait::operator =(struct v8::internal::CodeEntry::GCEntryCreateTrait const &__ptr64 )__ptr64 
??4GCEntryCreateTrait@CodeEntry@internal@v8@@QEAAAEAU0123@AEBU0123@@Z
; public: class v8::internal::GlobalDictionary &__ptr64 __cdecl v8::internal::GlobalDictionary::operator =(,class v8::internal::GlobalDictionary *__ptr64 const)__ptr64 
??4GlobalDictionary@internal@v8@@QEAAAEAV012@$$QEAV012@@Z
; public: class v8::internal::GlobalDictionary &__ptr64 __cdecl v8::internal::GlobalDictionary::operator =(class v8::internal::GlobalDictionary const &__ptr64 )__ptr64 
??4GlobalDictionary@internal@v8@@QEAAAEAV012@AEBV012@@Z
; public: class v8::internal::HandlerTable &__ptr64 __cdecl v8::internal::HandlerTable::operator =(,class v8::internal::HandlerTable *__ptr64 const)__ptr64 
??4HandlerTable@internal@v8@@QEAAAEAV012@$$QEAV012@@Z
; public: class v8::internal::HandlerTable &__ptr64 __cdecl v8::internal::HandlerTable::operator =(class v8::internal::HandlerTable const &__ptr64 )__ptr64 
??4HandlerTable@internal@v8@@QEAAAEAV012@AEBV012@@Z
; public: class v8::internal::HashTableBase &__ptr64 __cdecl v8::internal::HashTableBase::operator =(,class v8::internal::HashTableBase *__ptr64 const)__ptr64 
??4HashTableBase@internal@v8@@QEAAAEAV012@$$QEAV012@@Z
; public: class v8::internal::HashTableBase &__ptr64 __cdecl v8::internal::HashTableBase::operator =(class v8::internal::HashTableBase const &__ptr64 )__ptr64 
??4HashTableBase@internal@v8@@QEAAAEAV012@AEBV012@@Z
; public: class v8::HeapCodeStatistics &__ptr64 __cdecl v8::HeapCodeStatistics::operator =(,class v8::HeapCodeStatistics *__ptr64 const)__ptr64 
??4HeapCodeStatistics@v8@@QEAAAEAV01@$$QEAV01@@Z
; public: class v8::HeapCodeStatistics &__ptr64 __cdecl v8::HeapCodeStatistics::operator =(class v8::HeapCodeStatistics const &__ptr64 )__ptr64 
??4HeapCodeStatistics@v8@@QEAAAEAV01@AEBV01@@Z
; public: class v8::internal::compiler::HeapConstantType &__ptr64 __cdecl v8::internal::compiler::HeapConstantType::operator =(,class v8::internal::compiler::HeapConstantType *__ptr64 const)__ptr64 
??4HeapConstantType@compiler@internal@v8@@QEAAAEAV0123@$$QEAV0123@@Z
; public: class v8::internal::compiler::HeapConstantType &__ptr64 __cdecl v8::internal::compiler::HeapConstantType::operator =(class v8::internal::compiler::HeapConstantType const &__ptr64 )__ptr64 
??4HeapConstantType@compiler@internal@v8@@QEAAAEAV0123@AEBV0123@@Z
; public: class v8::HeapGraphEdge &__ptr64 __cdecl v8::HeapGraphEdge::operator =(,class v8::HeapGraphEdge *__ptr64 const)__ptr64 
??4HeapGraphEdge@v8@@QEAAAEAV01@$$QEAV01@@Z
; public: class v8::HeapGraphEdge &__ptr64 __cdecl v8::HeapGraphEdge::operator =(class v8::HeapGraphEdge const &__ptr64 )__ptr64 
??4HeapGraphEdge@v8@@QEAAAEAV01@AEBV01@@Z
; public: class v8::HeapGraphNode &__ptr64 __cdecl v8::HeapGraphNode::operator =(,class v8::HeapGraphNode *__ptr64 const)__ptr64 
??4HeapGraphNode@v8@@QEAAAEAV01@$$QEAV01@@Z
; public: class v8::HeapGraphNode &__ptr64 __cdecl v8::HeapGraphNode::operator =(class v8::HeapGraphNode const &__ptr64 )__ptr64 
??4HeapGraphNode@v8@@QEAAAEAV01@AEBV01@@Z
; public: class v8::HeapObjectStatistics &__ptr64 __cdecl v8::HeapObjectStatistics::operator =(,class v8::HeapObjectStatistics *__ptr64 const)__ptr64 
??4HeapObjectStatistics@v8@@QEAAAEAV01@$$QEAV01@@Z
; public: class v8::HeapObjectStatistics &__ptr64 __cdecl v8::HeapObjectStatistics::operator =(class v8::HeapObjectStatistics const &__ptr64 )__ptr64 
??4HeapObjectStatistics@v8@@QEAAAEAV01@AEBV01@@Z
; public: class v8::HeapSnapshot &__ptr64 __cdecl v8::HeapSnapshot::operator =(,class v8::HeapSnapshot *__ptr64 const)__ptr64 
??4HeapSnapshot@v8@@QEAAAEAV01@$$QEAV01@@Z
; public: class v8::HeapSnapshot &__ptr64 __cdecl v8::HeapSnapshot::operator =(class v8::HeapSnapshot const &__ptr64 )__ptr64 
??4HeapSnapshot@v8@@QEAAAEAV01@AEBV01@@Z
; public: class v8::HeapSpaceStatistics &__ptr64 __cdecl v8::HeapSpaceStatistics::operator =(,class v8::HeapSpaceStatistics *__ptr64 const)__ptr64 
??4HeapSpaceStatistics@v8@@QEAAAEAV01@$$QEAV01@@Z
; public: class v8::HeapSpaceStatistics &__ptr64 __cdecl v8::HeapSpaceStatistics::operator =(class v8::HeapSpaceStatistics const &__ptr64 )__ptr64 
??4HeapSpaceStatistics@v8@@QEAAAEAV01@AEBV01@@Z
; public: class v8::HeapStatistics &__ptr64 __cdecl v8::HeapStatistics::operator =(,class v8::HeapStatistics *__ptr64 const)__ptr64 
??4HeapStatistics@v8@@QEAAAEAV01@$$QEAV01@@Z
; public: class v8::HeapStatistics &__ptr64 __cdecl v8::HeapStatistics::operator =(class v8::HeapStatistics const &__ptr64 )__ptr64 
??4HeapStatistics@v8@@QEAAAEAV01@AEBV01@@Z
; public: class v8::internal::HiddenFactory &__ptr64 __cdecl v8::internal::HiddenFactory::operator =(,class v8::internal::HiddenFactory *__ptr64 const)__ptr64 
??4HiddenFactory@internal@v8@@QEAAAEAV012@$$QEAV012@@Z
; public: class v8::internal::HiddenFactory &__ptr64 __cdecl v8::internal::HiddenFactory::operator =(class v8::internal::HiddenFactory const &__ptr64 )__ptr64 
??4HiddenFactory@internal@v8@@QEAAAEAV012@AEBV012@@Z
; public: class v8::internal::I32PairToBigIntDescriptor &__ptr64 __cdecl v8::internal::I32PairToBigIntDescriptor::operator =(,class v8::internal::I32PairToBigIntDescriptor *__ptr64 const)__ptr64 
??4I32PairToBigIntDescriptor@internal@v8@@QEAAAEAV012@$$QEAV012@@Z
; public: class v8::internal::I32PairToBigIntDescriptor &__ptr64 __cdecl v8::internal::I32PairToBigIntDescriptor::operator =(class v8::internal::I32PairToBigIntDescriptor const &__ptr64 )__ptr64 
??4I32PairToBigIntDescriptor@internal@v8@@QEAAAEAV012@AEBV012@@Z
; public: class v8::internal::I64ToBigIntDescriptor &__ptr64 __cdecl v8::internal::I64ToBigIntDescriptor::operator =(,class v8::internal::I64ToBigIntDescriptor *__ptr64 const)__ptr64 
??4I64ToBigIntDescriptor@internal@v8@@QEAAAEAV012@$$QEAV012@@Z
; public: class v8::internal::I64ToBigIntDescriptor &__ptr64 __cdecl v8::internal::I64ToBigIntDescriptor::operator =(class v8::internal::I64ToBigIntDescriptor const &__ptr64 )__ptr64 
??4I64ToBigIntDescriptor@internal@v8@@QEAAAEAV012@AEBV012@@Z
; public: struct v8::internal::CodeEntry::IdleEntryCreateTrait &__ptr64 __cdecl v8::internal::CodeEntry::IdleEntryCreateTrait::operator =(,struct v8::internal::CodeEntry::IdleEntryCreateTrait *__ptr64 const)__ptr64 
??4IdleEntryCreateTrait@CodeEntry@internal@v8@@QEAAAEAU0123@$$QEAU0123@@Z
; public: struct v8::internal::CodeEntry::IdleEntryCreateTrait &__ptr64 __cdecl v8::internal::CodeEntry::IdleEntryCreateTrait::operator =(struct v8::internal::CodeEntry::IdleEntryCreateTrait const &__ptr64 )__ptr64 
??4IdleEntryCreateTrait@CodeEntry@internal@v8@@QEAAAEAU0123@AEBU0123@@Z
; public: class v8::internal::compiler::Node::Inputs &__ptr64 __cdecl v8::internal::compiler::Node::Inputs::operator =(,class v8::internal::compiler::Node::Inputs *__ptr64 const)__ptr64 
??4Inputs@Node@compiler@internal@v8@@QEAAAEAV01234@$$QEAV01234@@Z
; public: class v8::internal::compiler::Node::Inputs &__ptr64 __cdecl v8::internal::compiler::Node::Inputs::operator =(class v8::internal::compiler::Node::Inputs const &__ptr64 )__ptr64 
??4Inputs@Node@compiler@internal@v8@@QEAAAEAV01234@AEBV01234@@Z
; public: class v8_inspector::V8InspectorSession::Inspectable &__ptr64 __cdecl v8_inspector::V8InspectorSession::Inspectable::operator =(class v8_inspector::V8InspectorSession::Inspectable const &__ptr64 )__ptr64 
??4Inspectable@V8InspectorSession@v8_inspector@@QEAAAEAV012@AEBV012@@Z
; public: class v8::internal::wasm::InstantiationResultResolver &__ptr64 __cdecl v8::internal::wasm::InstantiationResultResolver::operator =(class v8::internal::wasm::InstantiationResultResolver const &__ptr64 )__ptr64 
??4InstantiationResultResolver@wasm@internal@v8@@QEAAAEAV0123@AEBV0123@@Z
; public: class v8::internal::compiler::InstructionOperand &__ptr64 __cdecl v8::internal::compiler::InstructionOperand::operator =(,class v8::internal::compiler::InstructionOperand *__ptr64 const)__ptr64 
??4InstructionOperand@compiler@internal@v8@@QEAAAEAV0123@$$QEAV0123@@Z
; public: class v8::internal::compiler::InstructionOperand &__ptr64 __cdecl v8::internal::compiler::InstructionOperand::operator =(class v8::internal::compiler::InstructionOperand const &__ptr64 )__ptr64 
??4InstructionOperand@compiler@internal@v8@@QEAAAEAV0123@AEBV0123@@Z
; public: class v8::Int16Array &__ptr64 __cdecl v8::Int16Array::operator =(,class v8::Int16Array *__ptr64 const)__ptr64 
??4Int16Array@v8@@QEAAAEAV01@$$QEAV01@@Z
; public: class v8::Int16Array &__ptr64 __cdecl v8::Int16Array::operator =(class v8::Int16Array const &__ptr64 )__ptr64 
??4Int16Array@v8@@QEAAAEAV01@AEBV01@@Z
; public: class v8::Int32 &__ptr64 __cdecl v8::Int32::operator =(,class v8::Int32 *__ptr64 const)__ptr64 
??4Int32@v8@@QEAAAEAV01@$$QEAV01@@Z
; public: class v8::Int32 &__ptr64 __cdecl v8::Int32::operator =(class v8::Int32 const &__ptr64 )__ptr64 
??4Int32@v8@@QEAAAEAV01@AEBV01@@Z
; public: class v8::Int32Array &__ptr64 __cdecl v8::Int32Array::operator =(,class v8::Int32Array *__ptr64 const)__ptr64 
??4Int32Array@v8@@QEAAAEAV01@$$QEAV01@@Z
; public: class v8::Int32Array &__ptr64 __cdecl v8::Int32Array::operator =(class v8::Int32Array const &__ptr64 )__ptr64 
??4Int32Array@v8@@QEAAAEAV01@AEBV01@@Z
; public: struct v8::internal::compiler::Int64LoweringSpecialCase &__ptr64 __cdecl v8::internal::compiler::Int64LoweringSpecialCase::operator =(,struct v8::internal::compiler::Int64LoweringSpecialCase *__ptr64 const)__ptr64 
??4Int64LoweringSpecialCase@compiler@internal@v8@@QEAAAEAU0123@$$QEAU0123@@Z
; public: struct v8::internal::compiler::Int64LoweringSpecialCase &__ptr64 __cdecl v8::internal::compiler::Int64LoweringSpecialCase::operator =(struct v8::internal::compiler::Int64LoweringSpecialCase const &__ptr64 )__ptr64 
??4Int64LoweringSpecialCase@compiler@internal@v8@@QEAAAEAU0123@AEBU0123@@Z
; public: class v8::Int8Array &__ptr64 __cdecl v8::Int8Array::operator =(,class v8::Int8Array *__ptr64 const)__ptr64 
??4Int8Array@v8@@QEAAAEAV01@$$QEAV01@@Z
; public: class v8::Int8Array &__ptr64 __cdecl v8::Int8Array::operator =(class v8::Int8Array const &__ptr64 )__ptr64 
??4Int8Array@v8@@QEAAAEAV01@AEBV01@@Z
; public: class v8::Integer &__ptr64 __cdecl v8::Integer::operator =(,class v8::Integer *__ptr64 const)__ptr64 
??4Integer@v8@@QEAAAEAV01@$$QEAV01@@Z
; public: class v8::Integer &__ptr64 __cdecl v8::Integer::operator =(class v8::Integer const &__ptr64 )__ptr64 
??4Integer@v8@@QEAAAEAV01@AEBV01@@Z
; public: struct v8::internal::wasm::InterpretedFrameDeleter &__ptr64 __cdecl v8::internal::wasm::InterpretedFrameDeleter::operator =(,struct v8::internal::wasm::InterpretedFrameDeleter *__ptr64 const)__ptr64 
??4InterpretedFrameDeleter@wasm@internal@v8@@QEAAAEAU0123@$$QEAU0123@@Z
; public: struct v8::internal::wasm::InterpretedFrameDeleter &__ptr64 __cdecl v8::internal::wasm::InterpretedFrameDeleter::operator =(struct v8::internal::wasm::InterpretedFrameDeleter const &__ptr64 )__ptr64 
??4InterpretedFrameDeleter@wasm@internal@v8@@QEAAAEAU0123@AEBU0123@@Z
; public: class v8::internal::InterpreterDispatchDescriptor &__ptr64 __cdecl v8::internal::InterpreterDispatchDescriptor::operator =(,class v8::internal::InterpreterDispatchDescriptor *__ptr64 const)__ptr64 
??4InterpreterDispatchDescriptor@internal@v8@@QEAAAEAV012@$$QEAV012@@Z
; public: class v8::internal::InterpreterDispatchDescriptor &__ptr64 __cdecl v8::internal::InterpreterDispatchDescriptor::operator =(class v8::internal::InterpreterDispatchDescriptor const &__ptr64 )__ptr64 
??4InterpreterDispatchDescriptor@internal@v8@@QEAAAEAV012@AEBV012@@Z
; public: class v8::internal::InvalidatedSlotsCleanup &__ptr64 __cdecl v8::internal::InvalidatedSlotsCleanup::operator =(,class v8::internal::InvalidatedSlotsCleanup *__ptr64 const)__ptr64 
??4InvalidatedSlotsCleanup@internal@v8@@QEAAAEAV012@$$QEAV012@@Z
; public: class v8::internal::InvalidatedSlotsCleanup &__ptr64 __cdecl v8::internal::InvalidatedSlotsCleanup::operator =(class v8::internal::InvalidatedSlotsCleanup const &__ptr64 )__ptr64 
??4InvalidatedSlotsCleanup@internal@v8@@QEAAAEAV012@AEBV012@@Z
; public: class v8::internal::InvalidatedSlotsFilter &__ptr64 __cdecl v8::internal::InvalidatedSlotsFilter::operator =(,class v8::internal::InvalidatedSlotsFilter *__ptr64 const)__ptr64 
??4InvalidatedSlotsFilter@internal@v8@@QEAAAEAV012@$$QEAV012@@Z
; public: class v8::internal::InvalidatedSlotsFilter &__ptr64 __cdecl v8::internal::InvalidatedSlotsFilter::operator =(class v8::internal::InvalidatedSlotsFilter const &__ptr64 )__ptr64 
??4InvalidatedSlotsFilter@internal@v8@@QEAAAEAV012@AEBV012@@Z
; public: class v8::internal::compiler::IrOpcode &__ptr64 __cdecl v8::internal::compiler::IrOpcode::operator =(,class v8::internal::compiler::IrOpcode *__ptr64 const)__ptr64 
??4IrOpcode@compiler@internal@v8@@QEAAAEAV0123@$$QEAV0123@@Z
; public: class v8::internal::compiler::IrOpcode &__ptr64 __cdecl v8::internal::compiler::IrOpcode::operator =(class v8::internal::compiler::IrOpcode const &__ptr64 )__ptr64 
??4IrOpcode@compiler@internal@v8@@QEAAAEAV0123@AEBV0123@@Z
; public: class v8::internal::IrregexpInterpreter &__ptr64 __cdecl v8::internal::IrregexpInterpreter::operator =(,class v8::internal::IrregexpInterpreter *__ptr64 const)__ptr64 
??4IrregexpInterpreter@internal@v8@@QEAAAEAV012@$$QEAV012@@Z
; public: class v8::internal::IrregexpInterpreter &__ptr64 __cdecl v8::internal::IrregexpInterpreter::operator =(class v8::internal::IrregexpInterpreter const &__ptr64 )__ptr64 
??4IrregexpInterpreter@internal@v8@@QEAAAEAV012@AEBV012@@Z
; public: class v8::internal::compiler::JSFunctionRef &__ptr64 __cdecl v8::internal::compiler::JSFunctionRef::operator =(,class v8::internal::compiler::JSFunctionRef *__ptr64 const)__ptr64 
??4JSFunctionRef@compiler@internal@v8@@QEAAAEAV0123@$$QEAV0123@@Z
; public: class v8::internal::compiler::JSFunctionRef &__ptr64 __cdecl v8::internal::compiler::JSFunctionRef::operator =(class v8::internal::compiler::JSFunctionRef const &__ptr64 )__ptr64 
??4JSFunctionRef@compiler@internal@v8@@QEAAAEAV0123@AEBV0123@@Z
; public: class v8::internal::compiler::JSHeapCopyReducer &__ptr64 __cdecl v8::internal::compiler::JSHeapCopyReducer::operator =(,class v8::internal::compiler::JSHeapCopyReducer *__ptr64 const)__ptr64 
??4JSHeapCopyReducer@compiler@internal@v8@@QEAAAEAV0123@$$QEAV0123@@Z
; public: class v8::internal::compiler::JSHeapCopyReducer &__ptr64 __cdecl v8::internal::compiler::JSHeapCopyReducer::operator =(class v8::internal::compiler::JSHeapCopyReducer const &__ptr64 )__ptr64 
??4JSHeapCopyReducer@compiler@internal@v8@@QEAAAEAV0123@AEBV0123@@Z
; public: class v8::JSON &__ptr64 __cdecl v8::JSON::operator =(,class v8::JSON *__ptr64 const)__ptr64 
??4JSON@v8@@QEAAAEAV01@$$QEAV01@@Z
; public: class v8::JSON &__ptr64 __cdecl v8::JSON::operator =(class v8::JSON const &__ptr64 )__ptr64 
??4JSON@v8@@QEAAAEAV01@AEBV01@@Z
; public: struct v8::internal::interpreter::JumpTableTargetOffset &__ptr64 __cdecl v8::internal::interpreter::JumpTableTargetOffset::operator =(,struct v8::internal::interpreter::JumpTableTargetOffset *__ptr64 const)__ptr64 
??4JumpTableTargetOffset@interpreter@internal@v8@@QEAAAEAU0123@$$QEAU0123@@Z
; public: struct v8::internal::interpreter::JumpTableTargetOffset &__ptr64 __cdecl v8::internal::interpreter::JumpTableTargetOffset::operator =(struct v8::internal::interpreter::JumpTableTargetOffset const &__ptr64 )__ptr64 
??4JumpTableTargetOffset@interpreter@internal@v8@@QEAAAEAU0123@AEBU0123@@Z
; public: class v8::internal::interpreter::JumpTableTargetOffsets &__ptr64 __cdecl v8::internal::interpreter::JumpTableTargetOffsets::operator =(,class v8::internal::interpreter::JumpTableTargetOffsets *__ptr64 const)__ptr64 
??4JumpTableTargetOffsets@interpreter@internal@v8@@QEAAAEAV0123@$$QEAV0123@@Z
; public: class v8::internal::interpreter::JumpTableTargetOffsets &__ptr64 __cdecl v8::internal::interpreter::JumpTableTargetOffsets::operator =(class v8::internal::interpreter::JumpTableTargetOffsets const &__ptr64 )__ptr64 
??4JumpTableTargetOffsets@interpreter@internal@v8@@QEAAAEAV0123@AEBV0123@@Z
; public: class v8::internal::compiler::JumpThreading &__ptr64 __cdecl v8::internal::compiler::JumpThreading::operator =(,class v8::internal::compiler::JumpThreading *__ptr64 const)__ptr64 
??4JumpThreading@compiler@internal@v8@@QEAAAEAV0123@$$QEAV0123@@Z
; public: class v8::internal::compiler::JumpThreading &__ptr64 __cdecl v8::internal::compiler::JumpThreading::operator =(class v8::internal::compiler::JumpThreading const &__ptr64 )__ptr64 
??4JumpThreading@compiler@internal@v8@@QEAAAEAV0123@AEBV0123@@Z
; public: class v8::internal::LayoutDescriptor &__ptr64 __cdecl v8::internal::LayoutDescriptor::operator =(,class v8::internal::LayoutDescriptor *__ptr64 const)__ptr64 
??4LayoutDescriptor@internal@v8@@QEAAAEAV012@$$QEAV012@@Z
; public: class v8::internal::LayoutDescriptor &__ptr64 __cdecl v8::internal::LayoutDescriptor::operator =(class v8::internal::LayoutDescriptor const &__ptr64 )__ptr64 
??4LayoutDescriptor@internal@v8@@QEAAAEAV012@AEBV012@@Z
; public: class v8::internal::LiveEdit &__ptr64 __cdecl v8::internal::LiveEdit::operator =(,class v8::internal::LiveEdit *__ptr64 const)__ptr64 
??4LiveEdit@internal@v8@@QEAAAEAV012@$$QEAV012@@Z
; public: class v8::internal::LiveEdit &__ptr64 __cdecl v8::internal::LiveEdit::operator =(class v8::internal::LiveEdit const &__ptr64 )__ptr64 
??4LiveEdit@internal@v8@@QEAAAEAV012@AEBV012@@Z
; public: class v8::internal::wasm::LocalDeclEncoder &__ptr64 __cdecl v8::internal::wasm::LocalDeclEncoder::operator =(,class v8::internal::wasm::LocalDeclEncoder *__ptr64 const)__ptr64 
??4LocalDeclEncoder@wasm@internal@v8@@QEAAAEAV0123@$$QEAV0123@@Z
; public: class v8::internal::wasm::LocalDeclEncoder &__ptr64 __cdecl v8::internal::wasm::LocalDeclEncoder::operator =(class v8::internal::wasm::LocalDeclEncoder const &__ptr64 )__ptr64 
??4LocalDeclEncoder@wasm@internal@v8@@QEAAAEAV0123@AEBV0123@@Z
; public: class v8::debug::Location &__ptr64 __cdecl v8::debug::Location::operator =(,class v8::debug::Location *__ptr64 const)__ptr64 
??4Location@debug@v8@@QEAAAEAV012@$$QEAV012@@Z
; public: class v8::debug::Location &__ptr64 __cdecl v8::debug::Location::operator =(class v8::debug::Location const &__ptr64 )__ptr64 
??4Location@debug@v8@@QEAAAEAV012@AEBV012@@Z
; public: class v8::Location &__ptr64 __cdecl v8::Location::operator =(,class v8::Location *__ptr64 const)__ptr64 
??4Location@v8@@QEAAAEAV01@$$QEAV01@@Z
; public: class v8::Location &__ptr64 __cdecl v8::Location::operator =(class v8::Location const &__ptr64 )__ptr64 
??4Location@v8@@QEAAAEAV01@AEBV01@@Z
; public: class v8::internal::compiler::LoopFinder &__ptr64 __cdecl v8::internal::compiler::LoopFinder::operator =(,class v8::internal::compiler::LoopFinder *__ptr64 const)__ptr64 
??4LoopFinder@compiler@internal@v8@@QEAAAEAV0123@$$QEAV0123@@Z
; public: class v8::internal::compiler::LoopFinder &__ptr64 __cdecl v8::internal::compiler::LoopFinder::operator =(class v8::internal::compiler::LoopFinder const &__ptr64 )__ptr64 
??4LoopFinder@compiler@internal@v8@@QEAAAEAV0123@AEBV0123@@Z
; public: class v8::internal::Malloced &__ptr64 __cdecl v8::internal::Malloced::operator =(,class v8::internal::Malloced *__ptr64 const)__ptr64 
??4Malloced@internal@v8@@QEAAAEAV012@$$QEAV012@@Z
; public: class v8::internal::Malloced &__ptr64 __cdecl v8::internal::Malloced::operator =(class v8::internal::Malloced const &__ptr64 )__ptr64 
??4Malloced@internal@v8@@QEAAAEAV012@AEBV012@@Z
; public: class v8::Map &__ptr64 __cdecl v8::Map::operator =(,class v8::Map *__ptr64 const)__ptr64 
??4Map@v8@@QEAAAEAV01@$$QEAV01@@Z
; public: class v8::Map &__ptr64 __cdecl v8::Map::operator =(class v8::Map const &__ptr64 )__ptr64 
??4Map@v8@@QEAAAEAV01@AEBV01@@Z
; public: class v8::internal::compiler::MapRef &__ptr64 __cdecl v8::internal::compiler::MapRef::operator =(,class v8::internal::compiler::MapRef *__ptr64 const)__ptr64 
??4MapRef@compiler@internal@v8@@QEAAAEAV0123@$$QEAV0123@@Z
; public: class v8::internal::compiler::MapRef &__ptr64 __cdecl v8::internal::compiler::MapRef::operator =(class v8::internal::compiler::MapRef const &__ptr64 )__ptr64 
??4MapRef@compiler@internal@v8@@QEAAAEAV0123@AEBV0123@@Z
; public: class v8::internal::MemoryChunkLayout &__ptr64 __cdecl v8::internal::MemoryChunkLayout::operator =(,class v8::internal::MemoryChunkLayout *__ptr64 const)__ptr64 
??4MemoryChunkLayout@internal@v8@@QEAAAEAV012@$$QEAV012@@Z
; public: class v8::internal::MemoryChunkLayout &__ptr64 __cdecl v8::internal::MemoryChunkLayout::operator =(class v8::internal::MemoryChunkLayout const &__ptr64 )__ptr64 
??4MemoryChunkLayout@internal@v8@@QEAAAEAV012@AEBV012@@Z
; public: class v8::base::OS::MemoryMappedFile &__ptr64 __cdecl v8::base::OS::MemoryMappedFile::operator =(class v8::base::OS::MemoryMappedFile const &__ptr64 )__ptr64 
??4MemoryMappedFile@OS@base@v8@@QEAAAEAV0123@AEBV0123@@Z
; public: class v8::Message &__ptr64 __cdecl v8::Message::operator =(,class v8::Message *__ptr64 const)__ptr64 
??4Message@v8@@QEAAAEAV01@$$QEAV01@@Z
; public: class v8::Message &__ptr64 __cdecl v8::Message::operator =(class v8::Message const &__ptr64 )__ptr64 
??4Message@v8@@QEAAAEAV01@AEBV01@@Z
; public: class v8::internal::MessageLocation &__ptr64 __cdecl v8::internal::MessageLocation::operator =(,class v8::internal::MessageLocation *__ptr64 const)__ptr64 
??4MessageLocation@internal@v8@@QEAAAEAV012@$$QEAV012@@Z
; public: class v8::internal::MessageLocation &__ptr64 __cdecl v8::internal::MessageLocation::operator =(class v8::internal::MessageLocation const &__ptr64 )__ptr64 
??4MessageLocation@internal@v8@@QEAAAEAV012@AEBV012@@Z
; public: class v8::internal::MicrotaskQueue &__ptr64 __cdecl v8::internal::MicrotaskQueue::operator =(class v8::internal::MicrotaskQueue const &__ptr64 )__ptr64 
??4MicrotaskQueue@internal@v8@@QEAAAEAV012@AEBV012@@Z
; public: class v8::MicrotaskQueue &__ptr64 __cdecl v8::MicrotaskQueue::operator =(class v8::MicrotaskQueue const &__ptr64 )__ptr64 
??4MicrotaskQueue@v8@@QEAAAEAV01@AEBV01@@Z
; public: class v8::Module &__ptr64 __cdecl v8::Module::operator =(,class v8::Module *__ptr64 const)__ptr64 
??4Module@v8@@QEAAAEAV01@$$QEAV01@@Z
; public: class v8::Module &__ptr64 __cdecl v8::Module::operator =(class v8::Module const &__ptr64 )__ptr64 
??4Module@v8@@QEAAAEAV01@AEBV01@@Z
; public: struct v8::internal::wasm::ModuleWireBytes &__ptr64 __cdecl v8::internal::wasm::ModuleWireBytes::operator =(,struct v8::internal::wasm::ModuleWireBytes *__ptr64 const)__ptr64 
??4ModuleWireBytes@wasm@internal@v8@@QEAAAEAU0123@$$QEAU0123@@Z
; public: struct v8::internal::wasm::ModuleWireBytes &__ptr64 __cdecl v8::internal::wasm::ModuleWireBytes::operator =(struct v8::internal::wasm::ModuleWireBytes const &__ptr64 )__ptr64 
??4ModuleWireBytes@wasm@internal@v8@@QEAAAEAU0123@AEBU0123@@Z
; public: class node::MultiIsolatePlatform &__ptr64 __cdecl node::MultiIsolatePlatform::operator =(class node::MultiIsolatePlatform const &__ptr64 )__ptr64 
??4MultiIsolatePlatform@node@@QEAAAEAV01@AEBV01@@Z
; public: class v8::Name &__ptr64 __cdecl v8::Name::operator =(,class v8::Name *__ptr64 const)__ptr64 
??4Name@v8@@QEAAAEAV01@$$QEAV01@@Z
; public: class v8::Name &__ptr64 __cdecl v8::Name::operator =(class v8::Name const &__ptr64 )__ptr64 
??4Name@v8@@QEAAAEAV01@AEBV01@@Z
; public: class v8::internal::NameDictionary &__ptr64 __cdecl v8::internal::NameDictionary::operator =(,class v8::internal::NameDictionary *__ptr64 const)__ptr64 
??4NameDictionary@internal@v8@@QEAAAEAV012@$$QEAV012@@Z
; public: class v8::internal::NameDictionary &__ptr64 __cdecl v8::internal::NameDictionary::operator =(class v8::internal::NameDictionary const &__ptr64 )__ptr64 
??4NameDictionary@internal@v8@@QEAAAEAV012@AEBV012@@Z
; public: class v8::internal::compiler::NodeProperties &__ptr64 __cdecl v8::internal::compiler::NodeProperties::operator =(,class v8::internal::compiler::NodeProperties *__ptr64 const)__ptr64 
??4NodeProperties@compiler@internal@v8@@QEAAAEAV0123@$$QEAV0123@@Z
; public: class v8::internal::compiler::NodeProperties &__ptr64 __cdecl v8::internal::compiler::NodeProperties::operator =(class v8::internal::compiler::NodeProperties const &__ptr64 )__ptr64 
??4NodeProperties@compiler@internal@v8@@QEAAAEAV0123@AEBV0123@@Z
; public: class v8::Number &__ptr64 __cdecl v8::Number::operator =(,class v8::Number *__ptr64 const)__ptr64 
??4Number@v8@@QEAAAEAV01@$$QEAV01@@Z
; public: class v8::Number &__ptr64 __cdecl v8::Number::operator =(class v8::Number const &__ptr64 )__ptr64 
??4Number@v8@@QEAAAEAV01@AEBV01@@Z
; public: class v8::NumberObject &__ptr64 __cdecl v8::NumberObject::operator =(,class v8::NumberObject *__ptr64 const)__ptr64 
??4NumberObject@v8@@QEAAAEAV01@$$QEAV01@@Z
; public: class v8::NumberObject &__ptr64 __cdecl v8::NumberObject::operator =(class v8::NumberObject const &__ptr64 )__ptr64 
??4NumberObject@v8@@QEAAAEAV01@AEBV01@@Z
; public: class v8::Object &__ptr64 __cdecl v8::Object::operator =(,class v8::Object *__ptr64 const)__ptr64 
??4Object@v8@@QEAAAEAV01@$$QEAV01@@Z
; public: class v8::Object &__ptr64 __cdecl v8::Object::operator =(class v8::Object const &__ptr64 )__ptr64 
??4Object@v8@@QEAAAEAV01@AEBV01@@Z
; public: class v8::internal::ObjectHashSet &__ptr64 __cdecl v8::internal::ObjectHashSet::operator =(,class v8::internal::ObjectHashSet *__ptr64 const)__ptr64 
??4ObjectHashSet@internal@v8@@QEAAAEAV012@$$QEAV012@@Z
; public: class v8::internal::ObjectHashSet &__ptr64 __cdecl v8::internal::ObjectHashSet::operator =(class v8::internal::ObjectHashSet const &__ptr64 )__ptr64 
??4ObjectHashSet@internal@v8@@QEAAAEAV012@AEBV012@@Z
; public: class v8::internal::ObjectHashTable &__ptr64 __cdecl v8::internal::ObjectHashTable::operator =(,class v8::internal::ObjectHashTable *__ptr64 const)__ptr64 
??4ObjectHashTable@internal@v8@@QEAAAEAV012@$$QEAV012@@Z
; public: class v8::internal::ObjectHashTable &__ptr64 __cdecl v8::internal::ObjectHashTable::operator =(class v8::internal::ObjectHashTable const &__ptr64 )__ptr64 
??4ObjectHashTable@internal@v8@@QEAAAEAV012@AEBV012@@Z
; public: class v8::internal::ObjectIterator &__ptr64 __cdecl v8::internal::ObjectIterator::operator =(class v8::internal::ObjectIterator const &__ptr64 )__ptr64 
??4ObjectIterator@internal@v8@@QEAAAEAV012@AEBV012@@Z
; public: class v8::internal::compiler::ObjectRef &__ptr64 __cdecl v8::internal::compiler::ObjectRef::operator =(,class v8::internal::compiler::ObjectRef *__ptr64 const)__ptr64 
??4ObjectRef@compiler@internal@v8@@QEAAAEAV0123@$$QEAV0123@@Z
; public: class v8::internal::compiler::ObjectRef &__ptr64 __cdecl v8::internal::compiler::ObjectRef::operator =(class v8::internal::compiler::ObjectRef const &__ptr64 )__ptr64 
??4ObjectRef@compiler@internal@v8@@QEAAAEAV0123@AEBV0123@@Z
; public: class v8::ObjectTemplate &__ptr64 __cdecl v8::ObjectTemplate::operator =(,class v8::ObjectTemplate *__ptr64 const)__ptr64 
??4ObjectTemplate@v8@@QEAAAEAV01@$$QEAV01@@Z
; public: class v8::ObjectTemplate &__ptr64 __cdecl v8::ObjectTemplate::operator =(class v8::ObjectTemplate const &__ptr64 )__ptr64 
??4ObjectTemplate@v8@@QEAAAEAV01@AEBV01@@Z
; public: class v8::internal::OrderedHashMap &__ptr64 __cdecl v8::internal::OrderedHashMap::operator =(,class v8::internal::OrderedHashMap *__ptr64 const)__ptr64 
??4OrderedHashMap@internal@v8@@QEAAAEAV012@$$QEAV012@@Z
; public: class v8::internal::OrderedHashMap &__ptr64 __cdecl v8::internal::OrderedHashMap::operator =(class v8::internal::OrderedHashMap const &__ptr64 )__ptr64 
??4OrderedHashMap@internal@v8@@QEAAAEAV012@AEBV012@@Z
; public: class v8::internal::OrderedHashMapHandler &__ptr64 __cdecl v8::internal::OrderedHashMapHandler::operator =(,class v8::internal::OrderedHashMapHandler *__ptr64 const)__ptr64 
??4OrderedHashMapHandler@internal@v8@@QEAAAEAV012@$$QEAV012@@Z
; public: class v8::internal::OrderedHashMapHandler &__ptr64 __cdecl v8::internal::OrderedHashMapHandler::operator =(class v8::internal::OrderedHashMapHandler const &__ptr64 )__ptr64 
??4OrderedHashMapHandler@internal@v8@@QEAAAEAV012@AEBV012@@Z
; public: class v8::internal::OrderedHashSet &__ptr64 __cdecl v8::internal::OrderedHashSet::operator =(,class v8::internal::OrderedHashSet *__ptr64 const)__ptr64 
??4OrderedHashSet@internal@v8@@QEAAAEAV012@$$QEAV012@@Z
; public: class v8::internal::OrderedHashSet &__ptr64 __cdecl v8::internal::OrderedHashSet::operator =(class v8::internal::OrderedHashSet const &__ptr64 )__ptr64 
??4OrderedHashSet@internal@v8@@QEAAAEAV012@AEBV012@@Z
; public: class v8::internal::OrderedHashSetHandler &__ptr64 __cdecl v8::internal::OrderedHashSetHandler::operator =(,class v8::internal::OrderedHashSetHandler *__ptr64 const)__ptr64 
??4OrderedHashSetHandler@internal@v8@@QEAAAEAV012@$$QEAV012@@Z
; public: class v8::internal::OrderedHashSetHandler &__ptr64 __cdecl v8::internal::OrderedHashSetHandler::operator =(class v8::internal::OrderedHashSetHandler const &__ptr64 )__ptr64 
??4OrderedHashSetHandler@internal@v8@@QEAAAEAV012@AEBV012@@Z
; public: class v8::internal::OrderedNameDictionaryHandler &__ptr64 __cdecl v8::internal::OrderedNameDictionaryHandler::operator =(,class v8::internal::OrderedNameDictionaryHandler *__ptr64 const)__ptr64 
??4OrderedNameDictionaryHandler@internal@v8@@QEAAAEAV012@$$QEAV012@@Z
; public: class v8::internal::OrderedNameDictionaryHandler &__ptr64 __cdecl v8::internal::OrderedNameDictionaryHandler::operator =(class v8::internal::OrderedNameDictionaryHandler const &__ptr64 )__ptr64 
??4OrderedNameDictionaryHandler@internal@v8@@QEAAAEAV012@AEBV012@@Z
; public: class v8::OutputStream &__ptr64 __cdecl v8::OutputStream::operator =(class v8::OutputStream const &__ptr64 )__ptr64 
??4OutputStream@v8@@QEAAAEAV01@AEBV01@@Z
; public: class v8::internal::PagedSpaceIterator &__ptr64 __cdecl v8::internal::PagedSpaceIterator::operator =(,class v8::internal::PagedSpaceIterator *__ptr64 const)__ptr64 
??4PagedSpaceIterator@internal@v8@@QEAAAEAV012@$$QEAV012@@Z
; public: class v8::internal::PagedSpaceIterator &__ptr64 __cdecl v8::internal::PagedSpaceIterator::operator =(class v8::internal::PagedSpaceIterator const &__ptr64 )__ptr64 
??4PagedSpaceIterator@internal@v8@@QEAAAEAV012@AEBV012@@Z
; public: class v8::internal::PagedSpaceObjectIterator &__ptr64 __cdecl v8::internal::PagedSpaceObjectIterator::operator =(,class v8::internal::PagedSpaceObjectIterator *__ptr64 const)__ptr64 
??4PagedSpaceObjectIterator@internal@v8@@QEAAAEAV012@$$QEAV012@@Z
; public: class v8::internal::PagedSpaceObjectIterator &__ptr64 __cdecl v8::internal::PagedSpaceObjectIterator::operator =(class v8::internal::PagedSpaceObjectIterator const &__ptr64 )__ptr64 
??4PagedSpaceObjectIterator@internal@v8@@QEAAAEAV012@AEBV012@@Z
; public: class v8::internal::compiler::PeeledIteration &__ptr64 __cdecl v8::internal::compiler::PeeledIteration::operator =(,class v8::internal::compiler::PeeledIteration *__ptr64 const)__ptr64 
??4PeeledIteration@compiler@internal@v8@@QEAAAEAV0123@$$QEAV0123@@Z
; public: class v8::internal::compiler::PeeledIteration &__ptr64 __cdecl v8::internal::compiler::PeeledIteration::operator =(class v8::internal::compiler::PeeledIteration const &__ptr64 )__ptr64 
??4PeeledIteration@compiler@internal@v8@@QEAAAEAV0123@AEBV0123@@Z
; public: class v8::PersistentHandleVisitor &__ptr64 __cdecl v8::PersistentHandleVisitor::operator =(class v8::PersistentHandleVisitor const &__ptr64 )__ptr64 
??4PersistentHandleVisitor@v8@@QEAAAEAV01@AEBV01@@Z
; public: class v8::Primitive &__ptr64 __cdecl v8::Primitive::operator =(,class v8::Primitive *__ptr64 const)__ptr64 
??4Primitive@v8@@QEAAAEAV01@$$QEAV01@@Z
; public: class v8::Primitive &__ptr64 __cdecl v8::Primitive::operator =(class v8::Primitive const &__ptr64 )__ptr64 
??4Primitive@v8@@QEAAAEAV01@AEBV01@@Z
; public: class v8::PrimitiveArray &__ptr64 __cdecl v8::PrimitiveArray::operator =(,class v8::PrimitiveArray *__ptr64 const)__ptr64 
??4PrimitiveArray@v8@@QEAAAEAV01@$$QEAV01@@Z
; public: class v8::PrimitiveArray &__ptr64 __cdecl v8::PrimitiveArray::operator =(class v8::PrimitiveArray const &__ptr64 )__ptr64 
??4PrimitiveArray@v8@@QEAAAEAV01@AEBV01@@Z
; public: class v8::Private &__ptr64 __cdecl v8::Private::operator =(,class v8::Private *__ptr64 const)__ptr64 
??4Private@v8@@QEAAAEAV01@$$QEAV01@@Z
; public: class v8::Private &__ptr64 __cdecl v8::Private::operator =(class v8::Private const &__ptr64 )__ptr64 
??4Private@v8@@QEAAAEAV01@AEBV01@@Z
; public: struct v8::internal::CodeEntry::ProgramEntryCreateTrait &__ptr64 __cdecl v8::internal::CodeEntry::ProgramEntryCreateTrait::operator =(,struct v8::internal::CodeEntry::ProgramEntryCreateTrait *__ptr64 const)__ptr64 
??4ProgramEntryCreateTrait@CodeEntry@internal@v8@@QEAAAEAU0123@$$QEAU0123@@Z
; public: struct v8::internal::CodeEntry::ProgramEntryCreateTrait &__ptr64 __cdecl v8::internal::CodeEntry::ProgramEntryCreateTrait::operator =(struct v8::internal::CodeEntry::ProgramEntryCreateTrait const &__ptr64 )__ptr64 
??4ProgramEntryCreateTrait@CodeEntry@internal@v8@@QEAAAEAU0123@AEBU0123@@Z
; public: class v8::Promise &__ptr64 __cdecl v8::Promise::operator =(,class v8::Promise *__ptr64 const)__ptr64 
??4Promise@v8@@QEAAAEAV01@$$QEAV01@@Z
; public: class v8::Promise &__ptr64 __cdecl v8::Promise::operator =(class v8::Promise const &__ptr64 )__ptr64 
??4Promise@v8@@QEAAAEAV01@AEBV01@@Z
; public: class v8::Proxy &__ptr64 __cdecl v8::Proxy::operator =(,class v8::Proxy *__ptr64 const)__ptr64 
??4Proxy@v8@@QEAAAEAV01@$$QEAV01@@Z
; public: class v8::Proxy &__ptr64 __cdecl v8::Proxy::operator =(class v8::Proxy const &__ptr64 )__ptr64 
??4Proxy@v8@@QEAAAEAV01@AEBV01@@Z
; public: class v8::base::RandomNumberGenerator &__ptr64 __cdecl v8::base::RandomNumberGenerator::operator =(,class v8::base::RandomNumberGenerator *__ptr64 const)__ptr64 
??4RandomNumberGenerator@base@v8@@QEAAAEAV012@$$QEAV012@@Z
; public: class v8::base::RandomNumberGenerator &__ptr64 __cdecl v8::base::RandomNumberGenerator::operator =(class v8::base::RandomNumberGenerator const &__ptr64 )__ptr64 
??4RandomNumberGenerator@base@v8@@QEAAAEAV012@AEBV012@@Z
; public: class v8::internal::compiler::Reducer &__ptr64 __cdecl v8::internal::compiler::Reducer::operator =(class v8::internal::compiler::Reducer const &__ptr64 )__ptr64 
??4Reducer@compiler@internal@v8@@QEAAAEAV0123@AEBV0123@@Z
; public: class v8::RegExp &__ptr64 __cdecl v8::RegExp::operator =(,class v8::RegExp *__ptr64 const)__ptr64 
??4RegExp@v8@@QEAAAEAV01@$$QEAV01@@Z
; public: class v8::RegExp &__ptr64 __cdecl v8::RegExp::operator =(class v8::RegExp const &__ptr64 )__ptr64 
??4RegExp@v8@@QEAAAEAV01@AEBV01@@Z
; public: class v8::internal::RegExpMatchInfo &__ptr64 __cdecl v8::internal::RegExpMatchInfo::operator =(,class v8::internal::RegExpMatchInfo *__ptr64 const)__ptr64 
??4RegExpMatchInfo@internal@v8@@QEAAAEAV012@$$QEAV012@@Z
; public: class v8::internal::RegExpMatchInfo &__ptr64 __cdecl v8::internal::RegExpMatchInfo::operator =(class v8::internal::RegExpMatchInfo const &__ptr64 )__ptr64 
??4RegExpMatchInfo@internal@v8@@QEAAAEAV012@AEBV012@@Z
; public: class v8::internal::RegExpParser &__ptr64 __cdecl v8::internal::RegExpParser::operator =(,class v8::internal::RegExpParser *__ptr64 const)__ptr64 
??4RegExpParser@internal@v8@@QEAAAEAV012@$$QEAV012@@Z
; public: class v8::internal::RegExpParser &__ptr64 __cdecl v8::internal::RegExpParser::operator =(class v8::internal::RegExpParser const &__ptr64 )__ptr64 
??4RegExpParser@internal@v8@@QEAAAEAV012@AEBV012@@Z
; public: class v8::internal::interpreter::Register &__ptr64 __cdecl v8::internal::interpreter::Register::operator =(,class v8::internal::interpreter::Register *__ptr64 const)__ptr64 
??4Register@interpreter@internal@v8@@QEAAAEAV0123@$$QEAV0123@@Z
; public: class v8::internal::interpreter::Register &__ptr64 __cdecl v8::internal::interpreter::Register::operator =(class v8::internal::interpreter::Register const &__ptr64 )__ptr64 
??4Register@interpreter@internal@v8@@QEAAAEAV0123@AEBV0123@@Z
; public: class v8_inspector::protocol::Runtime::API::RemoteObject &__ptr64 __cdecl v8_inspector::protocol::Runtime::API::RemoteObject::operator =(,class v8_inspector::protocol::Runtime::API::RemoteObject *__ptr64 const)__ptr64 
??4RemoteObject@API@Runtime@protocol@v8_inspector@@QEAAAEAV01234@$$QEAV01234@@Z
; public: class v8_inspector::protocol::Runtime::API::RemoteObject &__ptr64 __cdecl v8_inspector::protocol::Runtime::API::RemoteObject::operator =(class v8_inspector::protocol::Runtime::API::RemoteObject const &__ptr64 )__ptr64 
??4RemoteObject@API@Runtime@protocol@v8_inspector@@QEAAAEAV01234@AEBV01234@@Z
; public: class v8::internal::compiler::RepresentationChanger &__ptr64 __cdecl v8::internal::compiler::RepresentationChanger::operator =(,class v8::internal::compiler::RepresentationChanger *__ptr64 const)__ptr64 
??4RepresentationChanger@compiler@internal@v8@@QEAAAEAV0123@$$QEAV0123@@Z
; public: class v8::internal::compiler::RepresentationChanger &__ptr64 __cdecl v8::internal::compiler::RepresentationChanger::operator =(class v8::internal::compiler::RepresentationChanger const &__ptr64 )__ptr64 
??4RepresentationChanger@compiler@internal@v8@@QEAAAEAV0123@AEBV0123@@Z
; public: class v8::Promise::Resolver &__ptr64 __cdecl v8::Promise::Resolver::operator =(,class v8::Promise::Resolver *__ptr64 const)__ptr64 
??4Resolver@Promise@v8@@QEAAAEAV012@$$QEAV012@@Z
; public: class v8::Promise::Resolver &__ptr64 __cdecl v8::Promise::Resolver::operator =(class v8::Promise::Resolver const &__ptr64 )__ptr64 
??4Resolver@Promise@v8@@QEAAAEAV012@AEBV012@@Z
; public: class v8::ResourceConstraints &__ptr64 __cdecl v8::ResourceConstraints::operator =(,class v8::ResourceConstraints *__ptr64 const)__ptr64 
??4ResourceConstraints@v8@@QEAAAEAV01@$$QEAV01@@Z
; public: class v8::ResourceConstraints &__ptr64 __cdecl v8::ResourceConstraints::operator =(class v8::ResourceConstraints const &__ptr64 )__ptr64 
??4ResourceConstraints@v8@@QEAAAEAV01@AEBV01@@Z
; public: class v8::internal::compiler::ResumeJumpTarget &__ptr64 __cdecl v8::internal::compiler::ResumeJumpTarget::operator =(,class v8::internal::compiler::ResumeJumpTarget *__ptr64 const)__ptr64 
??4ResumeJumpTarget@compiler@internal@v8@@QEAAAEAV0123@$$QEAV0123@@Z
; public: class v8::internal::compiler::ResumeJumpTarget &__ptr64 __cdecl v8::internal::compiler::ResumeJumpTarget::operator =(class v8::internal::compiler::ResumeJumpTarget const &__ptr64 )__ptr64 
??4ResumeJumpTarget@compiler@internal@v8@@QEAAAEAV0123@AEBV0123@@Z
; public: struct v8::internal::CodeEntry::RootEntryCreateTrait &__ptr64 __cdecl v8::internal::CodeEntry::RootEntryCreateTrait::operator =(,struct v8::internal::CodeEntry::RootEntryCreateTrait *__ptr64 const)__ptr64 
??4RootEntryCreateTrait@CodeEntry@internal@v8@@QEAAAEAU0123@$$QEAU0123@@Z
; public: struct v8::internal::CodeEntry::RootEntryCreateTrait &__ptr64 __cdecl v8::internal::CodeEntry::RootEntryCreateTrait::operator =(struct v8::internal::CodeEntry::RootEntryCreateTrait const &__ptr64 )__ptr64 
??4RootEntryCreateTrait@CodeEntry@internal@v8@@QEAAAEAU0123@AEBU0123@@Z
; public: class v8::internal::ScannerStream &__ptr64 __cdecl v8::internal::ScannerStream::operator =(,class v8::internal::ScannerStream *__ptr64 const)__ptr64 
??4ScannerStream@internal@v8@@QEAAAEAV012@$$QEAV012@@Z
; public: class v8::internal::ScannerStream &__ptr64 __cdecl v8::internal::ScannerStream::operator =(class v8::internal::ScannerStream const &__ptr64 )__ptr64 
??4ScannerStream@internal@v8@@QEAAAEAV012@AEBV012@@Z
; public: class v8::internal::ScavengeJob &__ptr64 __cdecl v8::internal::ScavengeJob::operator =(,class v8::internal::ScavengeJob *__ptr64 const)__ptr64 
??4ScavengeJob@internal@v8@@QEAAAEAV012@$$QEAV012@@Z
; public: class v8::internal::ScavengeJob &__ptr64 __cdecl v8::internal::ScavengeJob::operator =(class v8::internal::ScavengeJob const &__ptr64 )__ptr64 
??4ScavengeJob@internal@v8@@QEAAAEAV012@AEBV012@@Z
; public: class v8::internal::compiler::ScheduleVerifier &__ptr64 __cdecl v8::internal::compiler::ScheduleVerifier::operator =(,class v8::internal::compiler::ScheduleVerifier *__ptr64 const)__ptr64 
??4ScheduleVerifier@compiler@internal@v8@@QEAAAEAV0123@$$QEAV0123@@Z
; public: class v8::internal::compiler::ScheduleVerifier &__ptr64 __cdecl v8::internal::compiler::ScheduleVerifier::operator =(class v8::internal::compiler::ScheduleVerifier const &__ptr64 )__ptr64 
??4ScheduleVerifier@compiler@internal@v8@@QEAAAEAV0123@AEBV0123@@Z
; public: class v8::debug::Script &__ptr64 __cdecl v8::debug::Script::operator =(,class v8::debug::Script *__ptr64 const)__ptr64 
??4Script@debug@v8@@QEAAAEAV012@$$QEAV012@@Z
; public: class v8::debug::Script &__ptr64 __cdecl v8::debug::Script::operator =(class v8::debug::Script const &__ptr64 )__ptr64 
??4Script@debug@v8@@QEAAAEAV012@AEBV012@@Z
; public: class v8::Script &__ptr64 __cdecl v8::Script::operator =(,class v8::Script *__ptr64 const)__ptr64 
??4Script@v8@@QEAAAEAV01@$$QEAV01@@Z
; public: class v8::Script &__ptr64 __cdecl v8::Script::operator =(class v8::Script const &__ptr64 )__ptr64 
??4Script@v8@@QEAAAEAV01@AEBV01@@Z
; public: class v8::ScriptCompiler &__ptr64 __cdecl v8::ScriptCompiler::operator =(,class v8::ScriptCompiler *__ptr64 const)__ptr64 
??4ScriptCompiler@v8@@QEAAAEAV01@$$QEAV01@@Z
; public: class v8::ScriptCompiler &__ptr64 __cdecl v8::ScriptCompiler::operator =(class v8::ScriptCompiler const &__ptr64 )__ptr64 
??4ScriptCompiler@v8@@QEAAAEAV01@AEBV01@@Z
; public: class v8::debug::Coverage::ScriptData &__ptr64 __cdecl v8::debug::Coverage::ScriptData::operator =(,class v8::debug::Coverage::ScriptData *__ptr64 const)__ptr64 
??4ScriptData@Coverage@debug@v8@@QEAAAEAV0123@$$QEAV0123@@Z
; public: class v8::debug::TypeProfile::ScriptData &__ptr64 __cdecl v8::debug::TypeProfile::ScriptData::operator =(,class v8::debug::TypeProfile::ScriptData *__ptr64 const)__ptr64 
??4ScriptData@TypeProfile@debug@v8@@QEAAAEAV0123@$$QEAV0123@@Z
; public: class v8::ScriptOrModule &__ptr64 __cdecl v8::ScriptOrModule::operator =(,class v8::ScriptOrModule *__ptr64 const)__ptr64 
??4ScriptOrModule@v8@@QEAAAEAV01@$$QEAV01@@Z
; public: class v8::ScriptOrModule &__ptr64 __cdecl v8::ScriptOrModule::operator =(class v8::ScriptOrModule const &__ptr64 )__ptr64 
??4ScriptOrModule@v8@@QEAAAEAV01@AEBV01@@Z
; public: class v8::ScriptCompiler::ScriptStreamingTask &__ptr64 __cdecl v8::ScriptCompiler::ScriptStreamingTask::operator =(,class v8::ScriptCompiler::ScriptStreamingTask *__ptr64 const)__ptr64 
??4ScriptStreamingTask@ScriptCompiler@v8@@QEAAAEAV012@$$QEAV012@@Z
; public: class v8::ScriptCompiler::ScriptStreamingTask &__ptr64 __cdecl v8::ScriptCompiler::ScriptStreamingTask::operator =(class v8::ScriptCompiler::ScriptStreamingTask const &__ptr64 )__ptr64 
??4ScriptStreamingTask@ScriptCompiler@v8@@QEAAAEAV012@AEBV012@@Z
; public: class v8_inspector::protocol::Debugger::API::SearchMatch &__ptr64 __cdecl v8_inspector::protocol::Debugger::API::SearchMatch::operator =(,class v8_inspector::protocol::Debugger::API::SearchMatch *__ptr64 const)__ptr64 
??4SearchMatch@API@Debugger@protocol@v8_inspector@@QEAAAEAV01234@$$QEAV01234@@Z
; public: class v8_inspector::protocol::Debugger::API::SearchMatch &__ptr64 __cdecl v8_inspector::protocol::Debugger::API::SearchMatch::operator =(class v8_inspector::protocol::Debugger::API::SearchMatch const &__ptr64 )__ptr64 
??4SearchMatch@API@Debugger@protocol@v8_inspector@@QEAAAEAV01234@AEBV01234@@Z
; public: class v8::Set &__ptr64 __cdecl v8::Set::operator =(,class v8::Set *__ptr64 const)__ptr64 
??4Set@v8@@QEAAAEAV01@$$QEAV01@@Z
; public: class v8::Set &__ptr64 __cdecl v8::Set::operator =(class v8::Set const &__ptr64 )__ptr64 
??4Set@v8@@QEAAAEAV01@AEBV01@@Z
; public: class v8::SharedArrayBuffer &__ptr64 __cdecl v8::SharedArrayBuffer::operator =(,class v8::SharedArrayBuffer *__ptr64 const)__ptr64 
??4SharedArrayBuffer@v8@@QEAAAEAV01@$$QEAV01@@Z
; public: class v8::SharedArrayBuffer &__ptr64 __cdecl v8::SharedArrayBuffer::operator =(class v8::SharedArrayBuffer const &__ptr64 )__ptr64 
??4SharedArrayBuffer@v8@@QEAAAEAV01@AEBV01@@Z
; public: class v8::internal::compiler::SharedFunctionInfoRef &__ptr64 __cdecl v8::internal::compiler::SharedFunctionInfoRef::operator =(,class v8::internal::compiler::SharedFunctionInfoRef *__ptr64 const)__ptr64 
??4SharedFunctionInfoRef@compiler@internal@v8@@QEAAAEAV0123@$$QEAV0123@@Z
; public: class v8::internal::compiler::SharedFunctionInfoRef &__ptr64 __cdecl v8::internal::compiler::SharedFunctionInfoRef::operator =(class v8::internal::compiler::SharedFunctionInfoRef const &__ptr64 )__ptr64 
??4SharedFunctionInfoRef@compiler@internal@v8@@QEAAAEAV0123@AEBV0123@@Z
; public: class v8::Signature &__ptr64 __cdecl v8::Signature::operator =(,class v8::Signature *__ptr64 const)__ptr64 
??4Signature@v8@@QEAAAEAV01@$$QEAV01@@Z
; public: class v8::Signature &__ptr64 __cdecl v8::Signature::operator =(class v8::Signature const &__ptr64 )__ptr64 
??4Signature@v8@@QEAAAEAV01@AEBV01@@Z
; public: class v8::internal::wasm::SignatureMap &__ptr64 __cdecl v8::internal::wasm::SignatureMap::operator =(,class v8::internal::wasm::SignatureMap *__ptr64 const)__ptr64 
??4SignatureMap@wasm@internal@v8@@QEAAAEAV0123@$$QEAV0123@@Z
; public: class v8::internal::compiler::SourceIdAssigner &__ptr64 __cdecl v8::internal::compiler::SourceIdAssigner::operator =(,class v8::internal::compiler::SourceIdAssigner *__ptr64 const)__ptr64 
??4SourceIdAssigner@compiler@internal@v8@@QEAAAEAV0123@$$QEAV0123@@Z
; public: class v8::internal::compiler::SourceIdAssigner &__ptr64 __cdecl v8::internal::compiler::SourceIdAssigner::operator =(class v8::internal::compiler::SourceIdAssigner const &__ptr64 )__ptr64 
??4SourceIdAssigner@compiler@internal@v8@@QEAAAEAV0123@AEBV0123@@Z
; public: class v8::internal::SourcePositionTableBuilder &__ptr64 __cdecl v8::internal::SourcePositionTableBuilder::operator =(,class v8::internal::SourcePositionTableBuilder *__ptr64 const)__ptr64 
??4SourcePositionTableBuilder@internal@v8@@QEAAAEAV012@$$QEAV012@@Z
; public: class v8::internal::SourcePositionTableBuilder &__ptr64 __cdecl v8::internal::SourcePositionTableBuilder::operator =(class v8::internal::SourcePositionTableBuilder const &__ptr64 )__ptr64 
??4SourcePositionTableBuilder@internal@v8@@QEAAAEAV012@AEBV012@@Z
; public: class v8::internal::SourcePositionTableIterator &__ptr64 __cdecl v8::internal::SourcePositionTableIterator::operator =(,class v8::internal::SourcePositionTableIterator *__ptr64 const)__ptr64 
??4SourcePositionTableIterator@internal@v8@@QEAAAEAV012@$$QEAV012@@Z
; public: class v8::internal::SourcePositionTableIterator &__ptr64 __cdecl v8::internal::SourcePositionTableIterator::operator =(class v8::internal::SourcePositionTableIterator const &__ptr64 )__ptr64 
??4SourcePositionTableIterator@internal@v8@@QEAAAEAV012@AEBV012@@Z
; public: class v8::internal::SpaceIterator &__ptr64 __cdecl v8::internal::SpaceIterator::operator =(class v8::internal::SpaceIterator const &__ptr64 )__ptr64 
??4SpaceIterator@internal@v8@@QEAAAEAV012@AEBV012@@Z
; public: class v8::StackFrame &__ptr64 __cdecl v8::StackFrame::operator =(,class v8::StackFrame *__ptr64 const)__ptr64 
??4StackFrame@v8@@QEAAAEAV01@$$QEAV01@@Z
; public: class v8::StackFrame &__ptr64 __cdecl v8::StackFrame::operator =(class v8::StackFrame const &__ptr64 )__ptr64 
??4StackFrame@v8@@QEAAAEAV01@AEBV01@@Z
; public: class v8_inspector::protocol::Runtime::API::StackTrace &__ptr64 __cdecl v8_inspector::protocol::Runtime::API::StackTrace::operator =(,class v8_inspector::protocol::Runtime::API::StackTrace *__ptr64 const)__ptr64 
??4StackTrace@API@Runtime@protocol@v8_inspector@@QEAAAEAV01234@$$QEAV01234@@Z
; public: class v8_inspector::protocol::Runtime::API::StackTrace &__ptr64 __cdecl v8_inspector::protocol::Runtime::API::StackTrace::operator =(class v8_inspector::protocol::Runtime::API::StackTrace const &__ptr64 )__ptr64 
??4StackTrace@API@Runtime@protocol@v8_inspector@@QEAAAEAV01234@AEBV01234@@Z
; public: class v8::base::debug::StackTrace &__ptr64 __cdecl v8::base::debug::StackTrace::operator =(class v8::base::debug::StackTrace const &__ptr64 )__ptr64 
??4StackTrace@debug@base@v8@@QEAAAEAV0123@AEBV0123@@Z
; public: class v8::StackTrace &__ptr64 __cdecl v8::StackTrace::operator =(,class v8::StackTrace *__ptr64 const)__ptr64 
??4StackTrace@v8@@QEAAAEAV01@$$QEAV01@@Z
; public: class v8::StackTrace &__ptr64 __cdecl v8::StackTrace::operator =(class v8::StackTrace const &__ptr64 )__ptr64 
??4StackTrace@v8@@QEAAAEAV01@AEBV01@@Z
; public: class v8_inspector::protocol::Runtime::API::StackTraceId &__ptr64 __cdecl v8_inspector::protocol::Runtime::API::StackTraceId::operator =(,class v8_inspector::protocol::Runtime::API::StackTraceId *__ptr64 const)__ptr64 
??4StackTraceId@API@Runtime@protocol@v8_inspector@@QEAAAEAV01234@$$QEAV01234@@Z
; public: class v8_inspector::protocol::Runtime::API::StackTraceId &__ptr64 __cdecl v8_inspector::protocol::Runtime::API::StackTraceId::operator =(class v8_inspector::protocol::Runtime::API::StackTraceId const &__ptr64 )__ptr64 
??4StackTraceId@API@Runtime@protocol@v8_inspector@@QEAAAEAV01234@AEBV01234@@Z
; public: class v8::StartupData &__ptr64 __cdecl v8::StartupData::operator =(,class v8::StartupData *__ptr64 const)__ptr64 
??4StartupData@v8@@QEAAAEAV01@$$QEAV01@@Z
; public: class v8::StartupData &__ptr64 __cdecl v8::StartupData::operator =(class v8::StartupData const &__ptr64 )__ptr64 
??4StartupData@v8@@QEAAAEAV01@AEBV01@@Z
; public: class v8::internal::compiler::StateValuesAccess &__ptr64 __cdecl v8::internal::compiler::StateValuesAccess::operator =(,class v8::internal::compiler::StateValuesAccess *__ptr64 const)__ptr64 
??4StateValuesAccess@compiler@internal@v8@@QEAAAEAV0123@$$QEAV0123@@Z
; public: class v8::internal::compiler::StateValuesAccess &__ptr64 __cdecl v8::internal::compiler::StateValuesAccess::operator =(class v8::internal::compiler::StateValuesAccess const &__ptr64 )__ptr64 
??4StateValuesAccess@compiler@internal@v8@@QEAAAEAV0123@AEBV0123@@Z
; public: class v8::internal::wasm::StreamingProcessor &__ptr64 __cdecl v8::internal::wasm::StreamingProcessor::operator =(class v8::internal::wasm::StreamingProcessor const &__ptr64 )__ptr64 
??4StreamingProcessor@wasm@internal@v8@@QEAAAEAV0123@AEBV0123@@Z
; public: class v8::String &__ptr64 __cdecl v8::String::operator =(,class v8::String *__ptr64 const)__ptr64 
??4String@v8@@QEAAAEAV01@$$QEAV01@@Z
; public: class v8::String &__ptr64 __cdecl v8::String::operator =(class v8::String const &__ptr64 )__ptr64 
??4String@v8@@QEAAAEAV01@AEBV01@@Z
; public: class v8_inspector::StringBuffer &__ptr64 __cdecl v8_inspector::StringBuffer::operator =(class v8_inspector::StringBuffer const &__ptr64 )__ptr64 
??4StringBuffer@v8_inspector@@QEAAAEAV01@AEBV01@@Z
; public: class v8::internal::StringHasher &__ptr64 __cdecl v8::internal::StringHasher::operator =(,class v8::internal::StringHasher *__ptr64 const)__ptr64 
??4StringHasher@internal@v8@@QEAAAEAV012@$$QEAV012@@Z
; public: class v8::internal::StringHasher &__ptr64 __cdecl v8::internal::StringHasher::operator =(class v8::internal::StringHasher const &__ptr64 )__ptr64 
??4StringHasher@internal@v8@@QEAAAEAV012@AEBV012@@Z
; public: class v8::StringObject &__ptr64 __cdecl v8::StringObject::operator =(,class v8::StringObject *__ptr64 const)__ptr64 
??4StringObject@v8@@QEAAAEAV01@$$QEAV01@@Z
; public: class v8::StringObject &__ptr64 __cdecl v8::StringObject::operator =(class v8::StringObject const &__ptr64 )__ptr64 
??4StringObject@v8@@QEAAAEAV01@AEBV01@@Z
; public: class v8_inspector::StringView &__ptr64 __cdecl v8_inspector::StringView::operator =(,class v8_inspector::StringView *__ptr64 const)__ptr64 
??4StringView@v8_inspector@@QEAAAEAV01@$$QEAV01@@Z
; public: class v8_inspector::StringView &__ptr64 __cdecl v8_inspector::StringView::operator =(class v8_inspector::StringView const &__ptr64 )__ptr64 
??4StringView@v8_inspector@@QEAAAEAV01@AEBV01@@Z
; public: class v8::Symbol &__ptr64 __cdecl v8::Symbol::operator =(,class v8::Symbol *__ptr64 const)__ptr64 
??4Symbol@v8@@QEAAAEAV01@$$QEAV01@@Z
; public: class v8::Symbol &__ptr64 __cdecl v8::Symbol::operator =(class v8::Symbol const &__ptr64 )__ptr64 
??4Symbol@v8@@QEAAAEAV01@AEBV01@@Z
; public: class v8::SymbolObject &__ptr64 __cdecl v8::SymbolObject::operator =(,class v8::SymbolObject *__ptr64 const)__ptr64 
??4SymbolObject@v8@@QEAAAEAV01@$$QEAV01@@Z
; public: class v8::SymbolObject &__ptr64 __cdecl v8::SymbolObject::operator =(class v8::SymbolObject const &__ptr64 )__ptr64 
??4SymbolObject@v8@@QEAAAEAV01@AEBV01@@Z
; public: class v8::Template &__ptr64 __cdecl v8::Template::operator =(,class v8::Template *__ptr64 const)__ptr64 
??4Template@v8@@QEAAAEAV01@$$QEAV01@@Z
; public: class v8::Template &__ptr64 __cdecl v8::Template::operator =(class v8::Template const &__ptr64 )__ptr64 
??4Template@v8@@QEAAAEAV01@AEBV01@@Z
; public: class v8::Testing &__ptr64 __cdecl v8::Testing::operator =(,class v8::Testing *__ptr64 const)__ptr64 
??4Testing@v8@@QEAAAEAV01@$$QEAV01@@Z
; public: class v8::Testing &__ptr64 __cdecl v8::Testing::operator =(class v8::Testing const &__ptr64 )__ptr64 
??4Testing@v8@@QEAAAEAV01@AEBV01@@Z
; public: class v8::internal::wasm::WasmInterpreter::Thread &__ptr64 __cdecl v8::internal::wasm::WasmInterpreter::Thread::operator =(,class v8::internal::wasm::WasmInterpreter::Thread *__ptr64 const)__ptr64 
??4Thread@WasmInterpreter@wasm@internal@v8@@QEAAAEAV01234@$$QEAV01234@@Z
; public: class v8::internal::wasm::WasmInterpreter::Thread &__ptr64 __cdecl v8::internal::wasm::WasmInterpreter::Thread::operator =(class v8::internal::wasm::WasmInterpreter::Thread const &__ptr64 )__ptr64 
??4Thread@WasmInterpreter@wasm@internal@v8@@QEAAAEAV01234@AEBV01234@@Z
; public: class v8::base::ThreadTicks &__ptr64 __cdecl v8::base::ThreadTicks::operator =(,class v8::base::ThreadTicks *__ptr64 const)__ptr64 
??4ThreadTicks@base@v8@@QEAAAEAV012@$$QEAV012@@Z
; public: class v8::base::ThreadTicks &__ptr64 __cdecl v8::base::ThreadTicks::operator =(class v8::base::ThreadTicks const &__ptr64 )__ptr64 
??4ThreadTicks@base@v8@@QEAAAEAV012@AEBV012@@Z
; public: struct v8::internal::TickSample &__ptr64 __cdecl v8::internal::TickSample::operator =(,struct v8::internal::TickSample *__ptr64 const)__ptr64 
??4TickSample@internal@v8@@QEAAAEAU012@$$QEAU012@@Z
; public: struct v8::internal::TickSample &__ptr64 __cdecl v8::internal::TickSample::operator =(struct v8::internal::TickSample const &__ptr64 )__ptr64 
??4TickSample@internal@v8@@QEAAAEAU012@AEBU012@@Z
; public: class v8::base::Time &__ptr64 __cdecl v8::base::Time::operator =(,class v8::base::Time *__ptr64 const)__ptr64 
??4Time@base@v8@@QEAAAEAV012@$$QEAV012@@Z
; public: class v8::base::Time &__ptr64 __cdecl v8::base::Time::operator =(class v8::base::Time const &__ptr64 )__ptr64 
??4Time@base@v8@@QEAAAEAV012@AEBV012@@Z
; public: class v8::base::TimeDelta &__ptr64 __cdecl v8::base::TimeDelta::operator =(,class v8::base::TimeDelta *__ptr64 const)__ptr64 
??4TimeDelta@base@v8@@QEAAAEAV012@$$QEAV012@@Z
; public: class v8::base::TimeDelta &__ptr64 __cdecl v8::base::TimeDelta::operator =(class v8::base::TimeDelta const &__ptr64 )__ptr64 
??4TimeDelta@base@v8@@QEAAAEAV012@AEBV012@@Z
; public: class v8::base::TimeTicks &__ptr64 __cdecl v8::base::TimeTicks::operator =(,class v8::base::TimeTicks *__ptr64 const)__ptr64 
??4TimeTicks@base@v8@@QEAAAEAV012@$$QEAV012@@Z
; public: class v8::base::TimeTicks &__ptr64 __cdecl v8::base::TimeTicks::operator =(class v8::base::TimeTicks const &__ptr64 )__ptr64 
??4TimeTicks@base@v8@@QEAAAEAV012@AEBV012@@Z
; public: class v8::internal::Token &__ptr64 __cdecl v8::internal::Token::operator =(,class v8::internal::Token *__ptr64 const)__ptr64 
??4Token@internal@v8@@QEAAAEAV012@$$QEAV012@@Z
; public: class v8::internal::Token &__ptr64 __cdecl v8::internal::Token::operator =(class v8::internal::Token const &__ptr64 )__ptr64 
??4Token@internal@v8@@QEAAAEAV012@AEBV012@@Z
; public: class node::tracing::TraceEventHelper &__ptr64 __cdecl node::tracing::TraceEventHelper::operator =(,class node::tracing::TraceEventHelper *__ptr64 const)__ptr64 
??4TraceEventHelper@tracing@node@@QEAAAEAV012@$$QEAV012@@Z
; public: class node::tracing::TraceEventHelper &__ptr64 __cdecl node::tracing::TraceEventHelper::operator =(class node::tracing::TraceEventHelper const &__ptr64 )__ptr64 
??4TraceEventHelper@tracing@node@@QEAAAEAV012@AEBV012@@Z
; public: class v8::EmbedderHeapTracer::TracedGlobalHandleVisitor &__ptr64 __cdecl v8::EmbedderHeapTracer::TracedGlobalHandleVisitor::operator =(class v8::EmbedderHeapTracer::TracedGlobalHandleVisitor const &__ptr64 )__ptr64 
??4TracedGlobalHandleVisitor@EmbedderHeapTracer@v8@@QEAAAEAV012@AEBV012@@Z
; public: class v8::internal::compiler::Type &__ptr64 __cdecl v8::internal::compiler::Type::operator =(,class v8::internal::compiler::Type *__ptr64 const)__ptr64 
??4Type@compiler@internal@v8@@QEAAAEAV0123@$$QEAV0123@@Z
; public: class v8::internal::compiler::Type &__ptr64 __cdecl v8::internal::compiler::Type::operator =(class v8::internal::compiler::Type const &__ptr64 )__ptr64 
??4Type@compiler@internal@v8@@QEAAAEAV0123@AEBV0123@@Z
; public: class v8::debug::TypeProfile &__ptr64 __cdecl v8::debug::TypeProfile::operator =(,class v8::debug::TypeProfile *__ptr64 const)__ptr64 
??4TypeProfile@debug@v8@@QEAAAEAV012@$$QEAV012@@Z
; public: class v8::TypedArray &__ptr64 __cdecl v8::TypedArray::operator =(,class v8::TypedArray *__ptr64 const)__ptr64 
??4TypedArray@v8@@QEAAAEAV01@$$QEAV01@@Z
; public: class v8::TypedArray &__ptr64 __cdecl v8::TypedArray::operator =(class v8::TypedArray const &__ptr64 )__ptr64 
??4TypedArray@v8@@QEAAAEAV01@AEBV01@@Z
; public: class v8::internal::TypedSlots &__ptr64 __cdecl v8::internal::TypedSlots::operator =(class v8::internal::TypedSlots const &__ptr64 )__ptr64 
??4TypedSlots@internal@v8@@QEAAAEAV012@AEBV012@@Z
; public: class v8::Uint16Array &__ptr64 __cdecl v8::Uint16Array::operator =(,class v8::Uint16Array *__ptr64 const)__ptr64 
??4Uint16Array@v8@@QEAAAEAV01@$$QEAV01@@Z
; public: class v8::Uint16Array &__ptr64 __cdecl v8::Uint16Array::operator =(class v8::Uint16Array const &__ptr64 )__ptr64 
??4Uint16Array@v8@@QEAAAEAV01@AEBV01@@Z
; public: class v8::Uint32 &__ptr64 __cdecl v8::Uint32::operator =(,class v8::Uint32 *__ptr64 const)__ptr64 
??4Uint32@v8@@QEAAAEAV01@$$QEAV01@@Z
; public: class v8::Uint32 &__ptr64 __cdecl v8::Uint32::operator =(class v8::Uint32 const &__ptr64 )__ptr64 
??4Uint32@v8@@QEAAAEAV01@AEBV01@@Z
; public: class v8::Uint32Array &__ptr64 __cdecl v8::Uint32Array::operator =(,class v8::Uint32Array *__ptr64 const)__ptr64 
??4Uint32Array@v8@@QEAAAEAV01@$$QEAV01@@Z
; public: class v8::Uint32Array &__ptr64 __cdecl v8::Uint32Array::operator =(class v8::Uint32Array const &__ptr64 )__ptr64 
??4Uint32Array@v8@@QEAAAEAV01@AEBV01@@Z
; public: class v8::Uint8Array &__ptr64 __cdecl v8::Uint8Array::operator =(,class v8::Uint8Array *__ptr64 const)__ptr64 
??4Uint8Array@v8@@QEAAAEAV01@$$QEAV01@@Z
; public: class v8::Uint8Array &__ptr64 __cdecl v8::Uint8Array::operator =(class v8::Uint8Array const &__ptr64 )__ptr64 
??4Uint8Array@v8@@QEAAAEAV01@AEBV01@@Z
; public: class v8::Uint8ClampedArray &__ptr64 __cdecl v8::Uint8ClampedArray::operator =(,class v8::Uint8ClampedArray *__ptr64 const)__ptr64 
??4Uint8ClampedArray@v8@@QEAAAEAV01@$$QEAV01@@Z
; public: class v8::Uint8ClampedArray &__ptr64 __cdecl v8::Uint8ClampedArray::operator =(class v8::Uint8ClampedArray const &__ptr64 )__ptr64 
??4Uint8ClampedArray@v8@@QEAAAEAV01@AEBV01@@Z
; public: class v8::UnboundModuleScript &__ptr64 __cdecl v8::UnboundModuleScript::operator =(,class v8::UnboundModuleScript *__ptr64 const)__ptr64 
??4UnboundModuleScript@v8@@QEAAAEAV01@$$QEAV01@@Z
; public: class v8::UnboundModuleScript &__ptr64 __cdecl v8::UnboundModuleScript::operator =(class v8::UnboundModuleScript const &__ptr64 )__ptr64 
??4UnboundModuleScript@v8@@QEAAAEAV01@AEBV01@@Z
; public: class v8::UnboundScript &__ptr64 __cdecl v8::UnboundScript::operator =(,class v8::UnboundScript *__ptr64 const)__ptr64 
??4UnboundScript@v8@@QEAAAEAV01@$$QEAV01@@Z
; public: class v8::UnboundScript &__ptr64 __cdecl v8::UnboundScript::operator =(class v8::UnboundScript const &__ptr64 )__ptr64 
??4UnboundScript@v8@@QEAAAEAV01@AEBV01@@Z
; public: class v8::Unlocker &__ptr64 __cdecl v8::Unlocker::operator =(class v8::Unlocker const &__ptr64 )__ptr64 
??4Unlocker@v8@@QEAAAEAV01@AEBV01@@Z
; public: class v8::internal::UnoptimizedCompilationInfo &__ptr64 __cdecl v8::internal::UnoptimizedCompilationInfo::operator =(,class v8::internal::UnoptimizedCompilationInfo *__ptr64 const)__ptr64 
??4UnoptimizedCompilationInfo@internal@v8@@QEAAAEAV012@$$QEAV012@@Z
; public: class v8::internal::UnoptimizedCompilationInfo &__ptr64 __cdecl v8::internal::UnoptimizedCompilationInfo::operator =(class v8::internal::UnoptimizedCompilationInfo const &__ptr64 )__ptr64 
??4UnoptimizedCompilationInfo@internal@v8@@QEAAAEAV012@AEBV012@@Z
; public: struct v8::internal::CodeEntry::UnresolvedEntryCreateTrait &__ptr64 __cdecl v8::internal::CodeEntry::UnresolvedEntryCreateTrait::operator =(,struct v8::internal::CodeEntry::UnresolvedEntryCreateTrait *__ptr64 const)__ptr64 
??4UnresolvedEntryCreateTrait@CodeEntry@internal@v8@@QEAAAEAU0123@$$QEAU0123@@Z
; public: struct v8::internal::CodeEntry::UnresolvedEntryCreateTrait &__ptr64 __cdecl v8::internal::CodeEntry::UnresolvedEntryCreateTrait::operator =(struct v8::internal::CodeEntry::UnresolvedEntryCreateTrait const &__ptr64 )__ptr64 
??4UnresolvedEntryCreateTrait@CodeEntry@internal@v8@@QEAAAEAU0123@AEBU0123@@Z
; public: class v8::Unwinder &__ptr64 __cdecl v8::Unwinder::operator =(,class v8::Unwinder *__ptr64 const)__ptr64 
??4Unwinder@v8@@QEAAAEAV01@$$QEAV01@@Z
; public: class v8::Unwinder &__ptr64 __cdecl v8::Unwinder::operator =(class v8::Unwinder const &__ptr64 )__ptr64 
??4Unwinder@v8@@QEAAAEAV01@AEBV01@@Z
; public: class v8::internal::compiler::Node::Uses &__ptr64 __cdecl v8::internal::compiler::Node::Uses::operator =(,class v8::internal::compiler::Node::Uses *__ptr64 const)__ptr64 
??4Uses@Node@compiler@internal@v8@@QEAAAEAV01234@$$QEAV01234@@Z
; public: class v8::internal::compiler::Node::Uses &__ptr64 __cdecl v8::internal::compiler::Node::Uses::operator =(class v8::internal::compiler::Node::Uses const &__ptr64 )__ptr64 
??4Uses@Node@compiler@internal@v8@@QEAAAEAV01234@AEBV01234@@Z
; public: class unibrow::Utf8 &__ptr64 __cdecl unibrow::Utf8::operator =(,class unibrow::Utf8 *__ptr64 const)__ptr64 
??4Utf8@unibrow@@QEAAAEAV01@$$QEAV01@@Z
; public: class unibrow::Utf8 &__ptr64 __cdecl unibrow::Utf8::operator =(class unibrow::Utf8 const &__ptr64 )__ptr64 
??4Utf8@unibrow@@QEAAAEAV01@AEBV01@@Z
; public: class v8::internal::Utf8Decoder &__ptr64 __cdecl v8::internal::Utf8Decoder::operator =(,class v8::internal::Utf8Decoder *__ptr64 const)__ptr64 
??4Utf8Decoder@internal@v8@@QEAAAEAV012@$$QEAV012@@Z
; public: class v8::internal::Utf8Decoder &__ptr64 __cdecl v8::internal::Utf8Decoder::operator =(class v8::internal::Utf8Decoder const &__ptr64 )__ptr64 
??4Utf8Decoder@internal@v8@@QEAAAEAV012@AEBV012@@Z
; public: class v8::V8 &__ptr64 __cdecl v8::V8::operator =(,class v8::V8 *__ptr64 const)__ptr64 
??4V8@v8@@QEAAAEAV01@$$QEAV01@@Z
; public: class v8::V8 &__ptr64 __cdecl v8::V8::operator =(class v8::V8 const &__ptr64 )__ptr64 
??4V8@v8@@QEAAAEAV01@AEBV01@@Z
; public: class v8_inspector::V8Inspector &__ptr64 __cdecl v8_inspector::V8Inspector::operator =(class v8_inspector::V8Inspector const &__ptr64 )__ptr64 
??4V8Inspector@v8_inspector@@QEAAAEAV01@AEBV01@@Z
; public: class v8_inspector::V8InspectorClient &__ptr64 __cdecl v8_inspector::V8InspectorClient::operator =(class v8_inspector::V8InspectorClient const &__ptr64 )__ptr64 
??4V8InspectorClient@v8_inspector@@QEAAAEAV01@AEBV01@@Z
; public: class v8_inspector::V8InspectorSession &__ptr64 __cdecl v8_inspector::V8InspectorSession::operator =(class v8_inspector::V8InspectorSession const &__ptr64 )__ptr64 
??4V8InspectorSession@v8_inspector@@QEAAAEAV01@AEBV01@@Z
; public: class v8_inspector::V8StackTrace &__ptr64 __cdecl v8_inspector::V8StackTrace::operator =(class v8_inspector::V8StackTrace const &__ptr64 )__ptr64 
??4V8StackTrace@v8_inspector@@QEAAAEAV01@AEBV01@@Z
; public: struct v8_inspector::V8StackTraceId &__ptr64 __cdecl v8_inspector::V8StackTraceId::operator =(struct v8_inspector::V8StackTraceId const &__ptr64 )__ptr64 
??4V8StackTraceId@v8_inspector@@QEAAAEAU01@AEBU01@@Z
; public: class v8::Value &__ptr64 __cdecl v8::Value::operator =(,class v8::Value *__ptr64 const)__ptr64 
??4Value@v8@@QEAAAEAV01@$$QEAV01@@Z
; public: class v8::Value &__ptr64 __cdecl v8::Value::operator =(class v8::Value const &__ptr64 )__ptr64 
??4Value@v8@@QEAAAEAV01@AEBV01@@Z
; public: class v8::internal::compiler::ValueNumberingReducer &__ptr64 __cdecl v8::internal::compiler::ValueNumberingReducer::operator =(class v8::internal::compiler::ValueNumberingReducer const &__ptr64 )__ptr64 
??4ValueNumberingReducer@compiler@internal@v8@@QEAAAEAV0123@AEBV0123@@Z
; public: class v8::internal::Version &__ptr64 __cdecl v8::internal::Version::operator =(,class v8::internal::Version *__ptr64 const)__ptr64 
??4Version@internal@v8@@QEAAAEAV012@$$QEAV012@@Z
; public: class v8::internal::Version &__ptr64 __cdecl v8::internal::Version::operator =(class v8::internal::Version const &__ptr64 )__ptr64 
??4Version@internal@v8@@QEAAAEAV012@AEBV012@@Z
; public: class v8::internal::VirtualMemory &__ptr64 __cdecl v8::internal::VirtualMemory::operator =(,class v8::internal::VirtualMemory *__ptr64 const)__ptr64 
??4VirtualMemory@internal@v8@@QEAAAEAV012@$$QEAV012@@Z
; public: class v8::internal::VoidDescriptor &__ptr64 __cdecl v8::internal::VoidDescriptor::operator =(,class v8::internal::VoidDescriptor *__ptr64 const)__ptr64 
??4VoidDescriptor@internal@v8@@QEAAAEAV012@$$QEAV012@@Z
; public: class v8::internal::VoidDescriptor &__ptr64 __cdecl v8::internal::VoidDescriptor::operator =(class v8::internal::VoidDescriptor const &__ptr64 )__ptr64 
??4VoidDescriptor@internal@v8@@QEAAAEAV012@AEBV012@@Z
; public: class v8::internal::wasm::WasmCompilationUnit &__ptr64 __cdecl v8::internal::wasm::WasmCompilationUnit::operator =(,class v8::internal::wasm::WasmCompilationUnit *__ptr64 const)__ptr64 
??4WasmCompilationUnit@wasm@internal@v8@@QEAAAEAV0123@$$QEAV0123@@Z
; public: class v8::internal::wasm::WasmCompilationUnit &__ptr64 __cdecl v8::internal::wasm::WasmCompilationUnit::operator =(class v8::internal::wasm::WasmCompilationUnit const &__ptr64 )__ptr64 
??4WasmCompilationUnit@wasm@internal@v8@@QEAAAEAV0123@AEBV0123@@Z
; public: class v8::internal::wasm::WasmError &__ptr64 __cdecl v8::internal::wasm::WasmError::operator =(,class v8::internal::wasm::WasmError *__ptr64 const)__ptr64 
??4WasmError@wasm@internal@v8@@QEAAAEAV0123@$$QEAV0123@@Z
; public: class v8::internal::wasm::WasmError &__ptr64 __cdecl v8::internal::wasm::WasmError::operator =(class v8::internal::wasm::WasmError const &__ptr64 )__ptr64 
??4WasmError@wasm@internal@v8@@QEAAAEAV0123@AEBV0123@@Z
; public: class v8::internal::wasm::WasmFunctionBuilder &__ptr64 __cdecl v8::internal::wasm::WasmFunctionBuilder::operator =(,class v8::internal::wasm::WasmFunctionBuilder *__ptr64 const)__ptr64 
??4WasmFunctionBuilder@wasm@internal@v8@@QEAAAEAV0123@$$QEAV0123@@Z
; public: class v8::internal::wasm::WasmFunctionBuilder &__ptr64 __cdecl v8::internal::wasm::WasmFunctionBuilder::operator =(class v8::internal::wasm::WasmFunctionBuilder const &__ptr64 )__ptr64 
??4WasmFunctionBuilder@wasm@internal@v8@@QEAAAEAV0123@AEBV0123@@Z
; public: class v8::internal::wasm::WasmInterpreter &__ptr64 __cdecl v8::internal::wasm::WasmInterpreter::operator =(class v8::internal::wasm::WasmInterpreter const &__ptr64 )__ptr64 
??4WasmInterpreter@wasm@internal@v8@@QEAAAEAV0123@AEBV0123@@Z
; public: struct v8::internal::wasm::WasmModule &__ptr64 __cdecl v8::internal::wasm::WasmModule::operator =(,struct v8::internal::wasm::WasmModule *__ptr64 const)__ptr64 
??4WasmModule@wasm@internal@v8@@QEAAAEAU0123@$$QEAU0123@@Z
; public: class v8::internal::wasm::WasmModuleBuilder &__ptr64 __cdecl v8::internal::wasm::WasmModuleBuilder::operator =(,class v8::internal::wasm::WasmModuleBuilder *__ptr64 const)__ptr64 
??4WasmModuleBuilder@wasm@internal@v8@@QEAAAEAV0123@$$QEAV0123@@Z
; public: class v8::internal::wasm::WasmModuleBuilder &__ptr64 __cdecl v8::internal::wasm::WasmModuleBuilder::operator =(class v8::internal::wasm::WasmModuleBuilder const &__ptr64 )__ptr64 
??4WasmModuleBuilder@wasm@internal@v8@@QEAAAEAV0123@AEBV0123@@Z
; public: class v8::WasmModuleObject &__ptr64 __cdecl v8::WasmModuleObject::operator =(,class v8::WasmModuleObject *__ptr64 const)__ptr64 
??4WasmModuleObject@v8@@QEAAAEAV01@$$QEAV01@@Z
; public: class v8::WasmModuleObject &__ptr64 __cdecl v8::WasmModuleObject::operator =(class v8::WasmModuleObject const &__ptr64 )__ptr64 
??4WasmModuleObject@v8@@QEAAAEAV01@AEBV01@@Z
; private: class v8::WasmModuleObjectBuilderStreaming &__ptr64 __cdecl v8::WasmModuleObjectBuilderStreaming::operator =(,class v8::WasmModuleObjectBuilderStreaming *__ptr64 const)__ptr64 
??4WasmModuleObjectBuilderStreaming@v8@@AEAAAEAV01@$$QEAV01@@Z
; public: class v8::internal::wasm::WasmModuleSourceMap &__ptr64 __cdecl v8::internal::wasm::WasmModuleSourceMap::operator =(,class v8::internal::wasm::WasmModuleSourceMap *__ptr64 const)__ptr64 
??4WasmModuleSourceMap@wasm@internal@v8@@QEAAAEAV0123@$$QEAV0123@@Z
; public: class v8::internal::wasm::WasmModuleSourceMap &__ptr64 __cdecl v8::internal::wasm::WasmModuleSourceMap::operator =(class v8::internal::wasm::WasmModuleSourceMap const &__ptr64 )__ptr64 
??4WasmModuleSourceMap@wasm@internal@v8@@QEAAAEAV0123@AEBV0123@@Z
; public: class v8::internal::wasm::WasmOpcodes &__ptr64 __cdecl v8::internal::wasm::WasmOpcodes::operator =(,class v8::internal::wasm::WasmOpcodes *__ptr64 const)__ptr64 
??4WasmOpcodes@wasm@internal@v8@@QEAAAEAV0123@$$QEAV0123@@Z
; public: class v8::internal::wasm::WasmOpcodes &__ptr64 __cdecl v8::internal::wasm::WasmOpcodes::operator =(class v8::internal::wasm::WasmOpcodes const &__ptr64 )__ptr64 
??4WasmOpcodes@wasm@internal@v8@@QEAAAEAV0123@AEBV0123@@Z
; public: class v8::internal::wasm::WasmSerializer &__ptr64 __cdecl v8::internal::wasm::WasmSerializer::operator =(,class v8::internal::wasm::WasmSerializer *__ptr64 const)__ptr64 
??4WasmSerializer@wasm@internal@v8@@QEAAAEAV0123@$$QEAV0123@@Z
; public: class v8::internal::wasm::WasmSerializer &__ptr64 __cdecl v8::internal::wasm::WasmSerializer::operator =(class v8::internal::wasm::WasmSerializer const &__ptr64 )__ptr64 
??4WasmSerializer@wasm@internal@v8@@QEAAAEAV0123@AEBV0123@@Z
; public: class v8::internal::WasmTableObject &__ptr64 __cdecl v8::internal::WasmTableObject::operator =(,class v8::internal::WasmTableObject *__ptr64 const)__ptr64 
??4WasmTableObject@internal@v8@@QEAAAEAV012@$$QEAV012@@Z
; public: class v8::internal::WasmTableObject &__ptr64 __cdecl v8::internal::WasmTableObject::operator =(class v8::internal::WasmTableObject const &__ptr64 )__ptr64 
??4WasmTableObject@internal@v8@@QEAAAEAV012@AEBV012@@Z
; public: class v8::internal::Zone &__ptr64 __cdecl v8::internal::Zone::operator =(class v8::internal::Zone const &__ptr64 )__ptr64 
??4Zone@internal@v8@@QEAAAEAV012@AEBV012@@Z
; public: class v8::internal::interpreter::JumpTableTargetOffsets::iterator &__ptr64 __cdecl v8::internal::interpreter::JumpTableTargetOffsets::iterator::operator =(,class v8::internal::interpreter::JumpTableTargetOffsets::iterator *__ptr64 const)__ptr64 
??4iterator@JumpTableTargetOffsets@interpreter@internal@v8@@QEAAAEAV01234@$$QEAV01234@@Z
; public: class v8::internal::interpreter::JumpTableTargetOffsets::iterator &__ptr64 __cdecl v8::internal::interpreter::JumpTableTargetOffsets::iterator::operator =(class v8::internal::interpreter::JumpTableTargetOffsets::iterator const &__ptr64 )__ptr64 
??4iterator@JumpTableTargetOffsets@interpreter@internal@v8@@QEAAAEAV01234@AEBV01234@@Z
; public: class v8::internal::compiler::StateValuesAccess::iterator &__ptr64 __cdecl v8::internal::compiler::StateValuesAccess::iterator::operator =(,class v8::internal::compiler::StateValuesAccess::iterator *__ptr64 const)__ptr64 
??4iterator@StateValuesAccess@compiler@internal@v8@@QEAAAEAV01234@$$QEAV01234@@Z
; public: class v8::internal::compiler::StateValuesAccess::iterator &__ptr64 __cdecl v8::internal::compiler::StateValuesAccess::iterator::operator =(class v8::internal::compiler::StateValuesAccess::iterator const &__ptr64 )__ptr64 
??4iterator@StateValuesAccess@compiler@internal@v8@@QEAAAEAV01234@AEBV01234@@Z
; public: class std::<char,struct std::<char>> &__ptr64 __cdecl std::<char,struct std::<char>>::operator <<(short)__ptr64 
??6?$basic_ostream@DU?$char_traits@D@std@@@std@@QEAAAEAV01@F@Z
; public: class std::<char,struct std::<char>> &__ptr64 __cdecl std::<char,struct std::<char>>::operator <<(unsigned short)__ptr64 
??6?$basic_ostream@DU?$char_traits@D@std@@@std@@QEAAAEAV01@G@Z
; public: class std::<char,struct std::<char>> &__ptr64 __cdecl std::<char,struct std::<char>>::operator <<(int)__ptr64 
??6?$basic_ostream@DU?$char_traits@D@std@@@std@@QEAAAEAV01@H@Z
; public: class std::<char,struct std::<char>> &__ptr64 __cdecl std::<char,struct std::<char>>::operator <<(unsigned int)__ptr64 
??6?$basic_ostream@DU?$char_traits@D@std@@@std@@QEAAAEAV01@I@Z
; public: class std::<char,struct std::<char>> &__ptr64 __cdecl std::<char,struct std::<char>>::operator <<(long)__ptr64 
??6?$basic_ostream@DU?$char_traits@D@std@@@std@@QEAAAEAV01@J@Z
; public: class std::<char,struct std::<char>> &__ptr64 __cdecl std::<char,struct std::<char>>::operator <<(unsigned long)__ptr64 
??6?$basic_ostream@DU?$char_traits@D@std@@@std@@QEAAAEAV01@K@Z
; public: class std::<char,struct std::<char>> &__ptr64 __cdecl std::<char,struct std::<char>>::operator <<(float)__ptr64 
??6?$basic_ostream@DU?$char_traits@D@std@@@std@@QEAAAEAV01@M@Z
; public: class std::<char,struct std::<char>> &__ptr64 __cdecl std::<char,struct std::<char>>::operator <<(double)__ptr64 
??6?$basic_ostream@DU?$char_traits@D@std@@@std@@QEAAAEAV01@N@Z
; public: class std::<char,struct std::<char>> &__ptr64 __cdecl std::<char,struct std::<char>>::operator <<(long double)__ptr64 
??6?$basic_ostream@DU?$char_traits@D@std@@@std@@QEAAAEAV01@O@Z
; public: class std::<char,struct std::<char>> &__ptr64 __cdecl std::<char,struct std::<char>>::operator <<(class std::<char,struct std::<char>> &__ptr64(__cdecl *)(class std::<char,struct std::<char>> &__ptr64 ))__ptr64 
??6?$basic_ostream@DU?$char_traits@D@std@@@std@@QEAAAEAV01@P6AAEAV01@AEAV01@@Z@Z
; public: class std::<char,struct std::<char>> &__ptr64 __cdecl std::<char,struct std::<char>>::operator <<(class std::<char,struct std::<char>> &__ptr64(__cdecl *)(class std::<char,struct std::<char>> &__ptr64 ))__ptr64 
??6?$basic_ostream@DU?$char_traits@D@std@@@std@@QEAAAEAV01@P6AAEAV?$basic_ios@DU?$char_traits@D@std@@@1@AEAV21@@Z@Z
; public: class std::<char,struct std::<char>> &__ptr64 __cdecl std::<char,struct std::<char>>::operator <<(class std::ios_base &__ptr64(__cdecl *)(class std::ios_base &__ptr64 ))__ptr64 
??6?$basic_ostream@DU?$char_traits@D@std@@@std@@QEAAAEAV01@P6AAEAVios_base@1@AEAV21@@Z@Z
; public: class std::<char,struct std::<char>> &__ptr64 __cdecl std::<char,struct std::<char>>::operator <<(class std::<char,struct std::<char>> *__ptr64)__ptr64 
??6?$basic_ostream@DU?$char_traits@D@std@@@std@@QEAAAEAV01@PEAV?$basic_streambuf@DU?$char_traits@D@std@@@1@@Z
; public: class std::<char,struct std::<char>> &__ptr64 __cdecl std::<char,struct std::<char>>::operator <<(void const *__ptr64)__ptr64 
??6?$basic_ostream@DU?$char_traits@D@std@@@std@@QEAAAEAV01@PEBX@Z
; public: class std::<char,struct std::<char>> &__ptr64 __cdecl std::<char,struct std::<char>>::operator <<(__int64)__ptr64 
??6?$basic_ostream@DU?$char_traits@D@std@@@std@@QEAAAEAV01@_J@Z
; public: class std::<char,struct std::<char>> &__ptr64 __cdecl std::<char,struct std::<char>>::operator <<(unsigned __int64)__ptr64 
??6?$basic_ostream@DU?$char_traits@D@std@@@std@@QEAAAEAV01@_K@Z
; public: class std::<char,struct std::<char>> &__ptr64 __cdecl std::<char,struct std::<char>>::operator <<(bool)__ptr64 
??6?$basic_ostream@DU?$char_traits@D@std@@@std@@QEAAAEAV01@_N@Z
; class std::<char,struct std::<char>> &__ptr64 __cdecl v8::base::operator <<(class std::<char,struct std::<char>> &__ptr64 ,class v8::base::Time const &__ptr64 )
??6base@v8@@YAAEAV?$basic_ostream@DU?$char_traits@D@std@@@std@@AEAV23@AEBVTime@01@@Z
; class std::<char,struct std::<char>> &__ptr64 __cdecl v8::internal::compiler::operator <<(class std::<char,struct std::<char>> &__ptr64 ,struct v8::internal::compiler::AsRPO const &__ptr64 )
??6compiler@internal@v8@@YAAEAV?$basic_ostream@DU?$char_traits@D@std@@@std@@AEAV34@AEBUAsRPO@012@@Z
; class std::<char,struct std::<char>> &__ptr64 __cdecl v8::internal::compiler::operator <<(class std::<char,struct std::<char>> &__ptr64 ,struct v8::internal::compiler::ConstFieldInfo const &__ptr64 )
??6compiler@internal@v8@@YAAEAV?$basic_ostream@DU?$char_traits@D@std@@@std@@AEAV34@AEBUConstFieldInfo@012@@Z
; class std::<char,struct std::<char>> &__ptr64 __cdecl v8::internal::compiler::operator <<(class std::<char,struct std::<char>> &__ptr64 ,struct v8::internal::compiler::ElementAccess const &__ptr64 )
??6compiler@internal@v8@@YAAEAV?$basic_ostream@DU?$char_traits@D@std@@@std@@AEAV34@AEBUElementAccess@012@@Z
; class std::<char,struct std::<char>> &__ptr64 __cdecl v8::internal::compiler::operator <<(class std::<char,struct std::<char>> &__ptr64 ,struct v8::internal::compiler::FeedbackSource const &__ptr64 )
??6compiler@internal@v8@@YAAEAV?$basic_ostream@DU?$char_traits@D@std@@@std@@AEAV34@AEBUFeedbackSource@012@@Z
; class std::<char,struct std::<char>> &__ptr64 __cdecl v8::internal::compiler::operator <<(class std::<char,struct std::<char>> &__ptr64 ,struct v8::internal::compiler::FieldAccess const &__ptr64 )
??6compiler@internal@v8@@YAAEAV?$basic_ostream@DU?$char_traits@D@std@@@std@@AEAV34@AEBUFieldAccess@012@@Z
; class std::<char,struct std::<char>> &__ptr64 __cdecl v8::internal::compiler::operator <<(class std::<char,struct std::<char>> &__ptr64 ,struct v8::internal::compiler::GraphAsJSON const &__ptr64 )
??6compiler@internal@v8@@YAAEAV?$basic_ostream@DU?$char_traits@D@std@@@std@@AEAV34@AEBUGraphAsJSON@012@@Z
; class std::<char,struct std::<char>> &__ptr64 __cdecl v8::internal::compiler::operator <<(class std::<char,struct std::<char>> &__ptr64 ,struct v8::internal::compiler::ObjectAccess const &__ptr64 )
??6compiler@internal@v8@@YAAEAV?$basic_ostream@DU?$char_traits@D@std@@@std@@AEAV34@AEBUObjectAccess@012@@Z
; class std::<char,struct std::<char>> &__ptr64 __cdecl v8::internal::compiler::operator <<(class std::<char,struct std::<char>> &__ptr64 ,class v8::internal::compiler::CheckMinusZeroParameters const &__ptr64 )
??6compiler@internal@v8@@YAAEAV?$basic_ostream@DU?$char_traits@D@std@@@std@@AEAV34@AEBVCheckMinusZeroParameters@012@@Z
; class std::<char,struct std::<char>> &__ptr64 __cdecl v8::internal::compiler::operator <<(class std::<char,struct std::<char>> &__ptr64 ,class v8::internal::compiler::ContextAccess const &__ptr64 )
??6compiler@internal@v8@@YAAEAV?$basic_ostream@DU?$char_traits@D@std@@@std@@AEAV34@AEBVContextAccess@012@@Z
; class std::<char,struct std::<char>> &__ptr64 __cdecl v8::internal::compiler::operator <<(class std::<char,struct std::<char>> &__ptr64 ,class v8::internal::compiler::IfValueParameters const &__ptr64 )
??6compiler@internal@v8@@YAAEAV?$basic_ostream@DU?$char_traits@D@std@@@std@@AEAV34@AEBVIfValueParameters@012@@Z
; class std::<char,struct std::<char>> &__ptr64 __cdecl v8::internal::compiler::operator <<(class std::<char,struct std::<char>> &__ptr64 ,class v8::internal::compiler::InstructionSequence const &__ptr64 )
??6compiler@internal@v8@@YAAEAV?$basic_ostream@DU?$char_traits@D@std@@@std@@AEAV34@AEBVInstructionSequence@012@@Z
; class std::<char,struct std::<char>> &__ptr64 __cdecl v8::internal::compiler::operator <<(class std::<char,struct std::<char>> &__ptr64 ,class v8::internal::compiler::MoveOperands const &__ptr64 )
??6compiler@internal@v8@@YAAEAV?$basic_ostream@DU?$char_traits@D@std@@@std@@AEAV34@AEBVMoveOperands@012@@Z
; class std::<char,struct std::<char>> &__ptr64 __cdecl v8::internal::compiler::operator <<(class std::<char,struct std::<char>> &__ptr64 ,class v8::internal::compiler::NumberOperationParameters const &__ptr64 )
??6compiler@internal@v8@@YAAEAV?$basic_ostream@DU?$char_traits@D@std@@@std@@AEAV34@AEBVNumberOperationParameters@012@@Z
; class std::<char,struct std::<char>> &__ptr64 __cdecl v8::internal::compiler::operator <<(class std::<char,struct std::<char>> &__ptr64 ,class v8::internal::compiler::Operator const &__ptr64 )
??6compiler@internal@v8@@YAAEAV?$basic_ostream@DU?$char_traits@D@std@@@std@@AEAV34@AEBVOperator@012@@Z
; class std::<char,struct std::<char>> &__ptr64 __cdecl v8::internal::compiler::operator <<(class std::<char,struct std::<char>> &__ptr64 ,class v8::internal::compiler::PropertyAccess const &__ptr64 )
??6compiler@internal@v8@@YAAEAV?$basic_ostream@DU?$char_traits@D@std@@@std@@AEAV34@AEBVPropertyAccess@012@@Z
; class std::<char,struct std::<char>> &__ptr64 __cdecl v8::internal::compiler::operator <<(class std::<char,struct std::<char>> &__ptr64 ,class v8::internal::compiler::Schedule const &__ptr64 )
??6compiler@internal@v8@@YAAEAV?$basic_ostream@DU?$char_traits@D@std@@@std@@AEAV34@AEBVSchedule@012@@Z
; class std::<char,struct std::<char>> &__ptr64 __cdecl v8::internal::compiler::operator <<(class std::<char,struct std::<char>> &__ptr64 ,enum v8::internal::compiler::AddressingMode const &__ptr64 )
??6compiler@internal@v8@@YAAEAV?$basic_ostream@DU?$char_traits@D@std@@@std@@AEAV34@AEBW4AddressingMode@012@@Z
; class std::<char,struct std::<char>> &__ptr64 __cdecl v8::internal::compiler::operator <<(class std::<char,struct std::<char>> &__ptr64 ,enum v8::internal::compiler::ArchOpcode const &__ptr64 )
??6compiler@internal@v8@@YAAEAV?$basic_ostream@DU?$char_traits@D@std@@@std@@AEAV34@AEBW4ArchOpcode@012@@Z
; class std::<char,struct std::<char>> &__ptr64 __cdecl v8::internal::compiler::operator <<(class std::<char,struct std::<char>> &__ptr64 ,enum v8::internal::compiler::FlagsCondition const &__ptr64 )
??6compiler@internal@v8@@YAAEAV?$basic_ostream@DU?$char_traits@D@std@@@std@@AEAV34@AEBW4FlagsCondition@012@@Z
; class std::<char,struct std::<char>> &__ptr64 __cdecl v8::internal::compiler::operator <<(class std::<char,struct std::<char>> &__ptr64 ,enum v8::internal::compiler::FlagsMode const &__ptr64 )
??6compiler@internal@v8@@YAAEAV?$basic_ostream@DU?$char_traits@D@std@@@std@@AEAV34@AEBW4FlagsMode@012@@Z
; class std::<char,struct std::<char>> &__ptr64 __cdecl v8::internal::compiler::operator <<(class std::<char,struct std::<char>> &__ptr64 ,enum v8::internal::compiler::CallDescriptor::Kind const &__ptr64 )
??6compiler@internal@v8@@YAAEAV?$basic_ostream@DU?$char_traits@D@std@@@std@@AEAV34@AEBW4Kind@CallDescriptor@012@@Z
; class std::<char,struct std::<char>> &__ptr64 __cdecl v8::internal::compiler::operator <<(class std::<char,struct std::<char>> &__ptr64 ,struct v8::internal::compiler::BranchOperatorInfo)
??6compiler@internal@v8@@YAAEAV?$basic_ostream@DU?$char_traits@D@std@@@std@@AEAV34@UBranchOperatorInfo@012@@Z
; class std::<char,struct std::<char>> &__ptr64 __cdecl v8::internal::compiler::operator <<(class std::<char,struct std::<char>> &__ptr64 ,class v8::internal::compiler::AllocateParameters)
??6compiler@internal@v8@@YAAEAV?$basic_ostream@DU?$char_traits@D@std@@@std@@AEAV34@VAllocateParameters@012@@Z
; class std::<char,struct std::<char>> &__ptr64 __cdecl v8::internal::compiler::operator <<(class std::<char,struct std::<char>> &__ptr64 ,class v8::internal::compiler::StackSlotRepresentation)
??6compiler@internal@v8@@YAAEAV?$basic_ostream@DU?$char_traits@D@std@@@std@@AEAV34@VStackSlotRepresentation@012@@Z
; class std::<char,struct std::<char>> &__ptr64 __cdecl v8::internal::compiler::operator <<(class std::<char,struct std::<char>> &__ptr64 ,class v8::internal::compiler::StoreRepresentation)
??6compiler@internal@v8@@YAAEAV?$basic_ostream@DU?$char_traits@D@std@@@std@@AEAV34@VStoreRepresentation@012@@Z
; class std::<char,struct std::<char>> &__ptr64 __cdecl v8::internal::compiler::operator <<(class std::<char,struct std::<char>> &__ptr64 ,class v8::internal::compiler::Type)
??6compiler@internal@v8@@YAAEAV?$basic_ostream@DU?$char_traits@D@std@@@std@@AEAV34@VType@012@@Z
; class std::<char,struct std::<char>> &__ptr64 __cdecl v8::internal::compiler::operator <<(class std::<char,struct std::<char>> &__ptr64 ,enum v8::internal::compiler::BigIntOperationHint)
??6compiler@internal@v8@@YAAEAV?$basic_ostream@DU?$char_traits@D@std@@@std@@AEAV34@W4BigIntOperationHint@012@@Z
; class std::<char,struct std::<char>> &__ptr64 __cdecl v8::internal::compiler::operator <<(class std::<char,struct std::<char>> &__ptr64 ,enum v8::internal::compiler::BranchHint)
??6compiler@internal@v8@@YAAEAV?$basic_ostream@DU?$char_traits@D@std@@@std@@AEAV34@W4BranchHint@012@@Z
; class std::<char,struct std::<char>> &__ptr64 __cdecl v8::internal::compiler::operator <<(class std::<char,struct std::<char>> &__ptr64 ,enum v8::internal::compiler::CheckForMinusZeroMode)
??6compiler@internal@v8@@YAAEAV?$basic_ostream@DU?$char_traits@D@std@@@std@@AEAV34@W4CheckForMinusZeroMode@012@@Z
; class std::<char,struct std::<char>> &__ptr64 __cdecl v8::internal::compiler::operator <<(class std::<char,struct std::<char>> &__ptr64 ,enum v8::internal::compiler::CheckTaggedInputMode)
??6compiler@internal@v8@@YAAEAV?$basic_ostream@DU?$char_traits@D@std@@@std@@AEAV34@W4CheckTaggedInputMode@012@@Z
; class std::<char,struct std::<char>> &__ptr64 __cdecl v8::internal::compiler::operator <<(class std::<char,struct std::<char>> &__ptr64 ,enum v8::internal::compiler::IsSafetyCheck)
??6compiler@internal@v8@@YAAEAV?$basic_ostream@DU?$char_traits@D@std@@@std@@AEAV34@W4IsSafetyCheck@012@@Z
; class std::<char,struct std::<char>> &__ptr64 __cdecl v8::internal::compiler::operator <<(class std::<char,struct std::<char>> &__ptr64 ,enum v8::internal::compiler::NumberOperationHint)
??6compiler@internal@v8@@YAAEAV?$basic_ostream@DU?$char_traits@D@std@@@std@@AEAV34@W4NumberOperationHint@012@@Z
; class std::<char,struct std::<char>> &__ptr64 __cdecl v8::internal::compiler::operator <<(class std::<char,struct std::<char>> &__ptr64 ,enum v8::internal::compiler::IrOpcode::Value)
??6compiler@internal@v8@@YAAEAV?$basic_ostream@DU?$char_traits@D@std@@@std@@AEAV34@W4Value@IrOpcode@012@@Z
; class std::<char,struct std::<char>> &__ptr64 __cdecl v8::internal::operator <<(class std::<char,struct std::<char>> &__ptr64 ,struct v8::internal::AsEscapedUC16ForJSON const &__ptr64 )
??6internal@v8@@YAAEAV?$basic_ostream@DU?$char_traits@D@std@@@std@@AEAV23@AEBUAsEscapedUC16ForJSON@01@@Z
; class std::<char,struct std::<char>> &__ptr64 __cdecl v8::internal::operator <<(class std::<char,struct std::<char>> &__ptr64 ,struct v8::internal::AsHex const &__ptr64 )
??6internal@v8@@YAAEAV?$basic_ostream@DU?$char_traits@D@std@@@std@@AEAV23@AEBUAsHex@01@@Z
; class std::<char,struct std::<char>> &__ptr64 __cdecl v8::internal::operator <<(class std::<char,struct std::<char>> &__ptr64 ,struct v8::internal::AsHexBytes const &__ptr64 )
??6internal@v8@@YAAEAV?$basic_ostream@DU?$char_traits@D@std@@@std@@AEAV23@AEBUAsHexBytes@01@@Z
; class std::<char,struct std::<char>> &__ptr64 __cdecl v8::internal::operator <<(class std::<char,struct std::<char>> &__ptr64 ,struct v8::internal::Brief const &__ptr64 )
??6internal@v8@@YAAEAV?$basic_ostream@DU?$char_traits@D@std@@@std@@AEAV23@AEBUBrief@01@@Z
; class std::<char,struct std::<char>> &__ptr64 __cdecl v8::internal::operator <<(class std::<char,struct std::<char>> &__ptr64 ,class v8::internal::BasicBlockProfiler const &__ptr64 )
??6internal@v8@@YAAEAV?$basic_ostream@DU?$char_traits@D@std@@@std@@AEAV23@AEBVBasicBlockProfiler@01@@Z
; class std::<char,struct std::<char>> &__ptr64 __cdecl v8::internal::operator <<(class std::<char,struct std::<char>> &__ptr64 ,class v8::internal::Object const &__ptr64 )
??6internal@v8@@YAAEAV?$basic_ostream@DU?$char_traits@D@std@@@std@@AEAV23@AEBVObject@01@@Z
; class std::<char,struct std::<char>> &__ptr64 __cdecl v8::internal::operator <<(class std::<char,struct std::<char>> &__ptr64 ,enum v8::internal::PropertyAttributes const &__ptr64 )
??6internal@v8@@YAAEAV?$basic_ostream@DU?$char_traits@D@std@@@std@@AEAV23@AEBW4PropertyAttributes@01@@Z
; class std::<char,struct std::<char>> &__ptr64 __cdecl v8::internal::operator <<(class std::<char,struct std::<char>> &__ptr64 ,class v8::internal::BailoutId)
??6internal@v8@@YAAEAV?$basic_ostream@DU?$char_traits@D@std@@@std@@AEAV23@VBailoutId@01@@Z
; class std::<char,struct std::<char>> &__ptr64 __cdecl v8::internal::operator <<(class std::<char,struct std::<char>> &__ptr64 ,class v8::internal::ExternalReference)
??6internal@v8@@YAAEAV?$basic_ostream@DU?$char_traits@D@std@@@std@@AEAV23@VExternalReference@01@@Z
; class std::<char,struct std::<char>> &__ptr64 __cdecl v8::internal::operator <<(class std::<char,struct std::<char>> &__ptr64 ,class v8::internal::FeedbackSlot)
??6internal@v8@@YAAEAV?$basic_ostream@DU?$char_traits@D@std@@@std@@AEAV23@VFeedbackSlot@01@@Z
; class std::<char,struct std::<char>> &__ptr64 __cdecl v8::internal::operator <<(class std::<char,struct std::<char>> &__ptr64 ,class v8::internal::MachineType)
??6internal@v8@@YAAEAV?$basic_ostream@DU?$char_traits@D@std@@@std@@AEAV23@VMachineType@01@@Z
; class std::<char,struct std::<char>> &__ptr64 __cdecl v8::internal::operator <<(class std::<char,struct std::<char>> &__ptr64 ,enum v8::internal::DeoptimizeReason)
??6internal@v8@@YAAEAV?$basic_ostream@DU?$char_traits@D@std@@@std@@AEAV23@W4DeoptimizeReason@01@@Z
; class std::<char,struct std::<char>> &__ptr64 __cdecl v8::internal::operator <<(class std::<char,struct std::<char>> &__ptr64 ,enum v8::internal::FeedbackSlotKind)
??6internal@v8@@YAAEAV?$basic_ostream@DU?$char_traits@D@std@@@std@@AEAV23@W4FeedbackSlotKind@01@@Z
; class std::<char,struct std::<char>> &__ptr64 __cdecl v8::internal::operator <<(class std::<char,struct std::<char>> &__ptr64 ,enum v8::internal::Runtime::FunctionId)
??6internal@v8@@YAAEAV?$basic_ostream@DU?$char_traits@D@std@@@std@@AEAV23@W4FunctionId@Runtime@01@@Z
; class std::<char,struct std::<char>> &__ptr64 __cdecl v8::internal::operator <<(class std::<char,struct std::<char>> &__ptr64 ,enum v8::internal::InstanceType)
??6internal@v8@@YAAEAV?$basic_ostream@DU?$char_traits@D@std@@@std@@AEAV23@W4InstanceType@01@@Z
; class std::<char,struct std::<char>> &__ptr64 __cdecl v8::internal::operator <<(class std::<char,struct std::<char>> &__ptr64 ,enum v8::internal::MachineRepresentation)
??6internal@v8@@YAAEAV?$basic_ostream@DU?$char_traits@D@std@@@std@@AEAV23@W4MachineRepresentation@01@@Z
; class std::<char,struct std::<char>> &__ptr64 __cdecl v8::internal::operator <<(class std::<char,struct std::<char>> &__ptr64 ,enum v8::internal::PropertyConstness)
??6internal@v8@@YAAEAV?$basic_ostream@DU?$char_traits@D@std@@@std@@AEAV23@W4PropertyConstness@01@@Z
; class std::<char,struct std::<char>> &__ptr64 __cdecl v8::internal::interpreter::operator <<(class std::<char,struct std::<char>> &__ptr64 ,class v8::internal::interpreter::BytecodeNode const &__ptr64 )
??6interpreter@internal@v8@@YAAEAV?$basic_ostream@DU?$char_traits@D@std@@@std@@AEAV34@AEBVBytecodeNode@012@@Z
; class std::<char,struct std::<char>> &__ptr64 __cdecl v8::internal::interpreter::operator <<(class std::<char,struct std::<char>> &__ptr64 ,class v8::internal::interpreter::BytecodeSourceInfo const &__ptr64 )
??6interpreter@internal@v8@@YAAEAV?$basic_ostream@DU?$char_traits@D@std@@@std@@AEAV34@AEBVBytecodeSourceInfo@012@@Z
; class std::<char,struct std::<char>> &__ptr64 __cdecl v8::internal::interpreter::operator <<(class std::<char,struct std::<char>> &__ptr64 ,enum v8::internal::interpreter::AccumulatorUse const &__ptr64 )
??6interpreter@internal@v8@@YAAEAV?$basic_ostream@DU?$char_traits@D@std@@@std@@AEAV34@AEBW4AccumulatorUse@012@@Z
; class std::<char,struct std::<char>> &__ptr64 __cdecl v8::internal::interpreter::operator <<(class std::<char,struct std::<char>> &__ptr64 ,enum v8::internal::interpreter::Bytecode const &__ptr64 )
??6interpreter@internal@v8@@YAAEAV?$basic_ostream@DU?$char_traits@D@std@@@std@@AEAV34@AEBW4Bytecode@012@@Z
; class std::<char,struct std::<char>> &__ptr64 __cdecl v8::internal::interpreter::operator <<(class std::<char,struct std::<char>> &__ptr64 ,enum v8::internal::interpreter::OperandScale const &__ptr64 )
??6interpreter@internal@v8@@YAAEAV?$basic_ostream@DU?$char_traits@D@std@@@std@@AEAV34@AEBW4OperandScale@012@@Z
; class std::<char,struct std::<char>> &__ptr64 __cdecl v8::internal::interpreter::operator <<(class std::<char,struct std::<char>> &__ptr64 ,enum v8::internal::interpreter::OperandSize const &__ptr64 )
??6interpreter@internal@v8@@YAAEAV?$basic_ostream@DU?$char_traits@D@std@@@std@@AEAV34@AEBW4OperandSize@012@@Z
; class std::<char,struct std::<char>> &__ptr64 __cdecl v8::internal::interpreter::operator <<(class std::<char,struct std::<char>> &__ptr64 ,enum v8::internal::interpreter::OperandType const &__ptr64 )
??6interpreter@internal@v8@@YAAEAV?$basic_ostream@DU?$char_traits@D@std@@@std@@AEAV34@AEBW4OperandType@012@@Z
; class std::<char,struct std::<char>> &__ptr64 __cdecl v8::internal::interpreter::operator <<(class std::<char,struct std::<char>> &__ptr64 ,enum v8::internal::interpreter::BytecodeArrayBuilder::ToBooleanMode const &__ptr64 )
??6interpreter@internal@v8@@YAAEAV?$basic_ostream@DU?$char_traits@D@std@@@std@@AEAV34@AEBW4ToBooleanMode@BytecodeArrayBuilder@012@@Z
; public: bool __cdecl v8::base::<unsigned int>::operator ==(struct v8::base::<unsigned int> const &__ptr64 )const __ptr64 
??8?$MagicNumbersForDivision@I@base@v8@@QEBA_NAEBU012@@Z
; public: bool __cdecl v8::base::<unsigned __int64>::operator ==(struct v8::base::<unsigned __int64> const &__ptr64 )const __ptr64 
??8?$MagicNumbersForDivision@_K@base@v8@@QEBA_NAEBU012@@Z
; public: bool __cdecl v8::base::time_internal::<class v8::base::ThreadTicks>::operator ==(class v8::base::ThreadTicks)const __ptr64 
??8?$TimeBase@VThreadTicks@base@v8@@@time_internal@base@v8@@QEBA_NVThreadTicks@23@@Z
; public: bool __cdecl v8::base::time_internal::<class v8::base::Time>::operator ==(class v8::base::Time)const __ptr64 
??8?$TimeBase@VTime@base@v8@@@time_internal@base@v8@@QEBA_NVTime@23@@Z
; public: bool __cdecl v8::base::time_internal::<class v8::base::TimeTicks>::operator ==(class v8::base::TimeTicks)const __ptr64 
??8?$TimeBase@VTimeTicks@base@v8@@@time_internal@base@v8@@QEBA_NVTimeTicks@23@@Z
; public: bool __cdecl v8::internal::interpreter::BytecodeNode::operator ==(class v8::internal::interpreter::BytecodeNode const &__ptr64 )const __ptr64 
??8BytecodeNode@interpreter@internal@v8@@QEBA_NAEBV0123@@Z
; public: bool __cdecl v8::internal::interpreter::Register::operator ==(class v8::internal::interpreter::Register const &__ptr64 )const __ptr64 
??8Register@interpreter@internal@v8@@QEBA_NAEBV0123@@Z
; public: bool __cdecl v8::base::TimeDelta::operator ==(class v8::base::TimeDelta const &__ptr64 )const __ptr64 
??8TimeDelta@base@v8@@QEBA_NAEBV012@@Z
; public: bool __cdecl v8::internal::compiler::Type::operator ==(class v8::internal::compiler::Type)const __ptr64 
??8Type@compiler@internal@v8@@QEBA_NV0123@@Z
; bool __cdecl v8::internal::compiler::operator ==(struct v8::internal::compiler::ConstFieldInfo const &__ptr64 ,struct v8::internal::compiler::ConstFieldInfo const &__ptr64 )
??8compiler@internal@v8@@YA_NAEBUConstFieldInfo@012@0@Z
; bool __cdecl v8::internal::compiler::operator ==(struct v8::internal::compiler::ElementAccess const &__ptr64 ,struct v8::internal::compiler::ElementAccess const &__ptr64 )
??8compiler@internal@v8@@YA_NAEBUElementAccess@012@0@Z
; bool __cdecl v8::internal::compiler::operator ==(struct v8::internal::compiler::FieldAccess const &__ptr64 ,struct v8::internal::compiler::FieldAccess const &__ptr64 )
??8compiler@internal@v8@@YA_NAEBUFieldAccess@012@0@Z
; bool __cdecl v8::internal::compiler::operator ==(struct v8::internal::compiler::ObjectAccess const &__ptr64 ,struct v8::internal::compiler::ObjectAccess const &__ptr64 )
??8compiler@internal@v8@@YA_NAEBUObjectAccess@012@0@Z
; bool __cdecl v8::internal::compiler::operator ==(class v8::internal::compiler::IfValueParameters const &__ptr64 ,class v8::internal::compiler::IfValueParameters const &__ptr64 )
??8compiler@internal@v8@@YA_NAEBVIfValueParameters@012@0@Z
; bool __cdecl v8::internal::compiler::operator ==(class v8::internal::compiler::StackSlotRepresentation,class v8::internal::compiler::StackSlotRepresentation)
??8compiler@internal@v8@@YA_NVStackSlotRepresentation@012@0@Z
; bool __cdecl v8::internal::compiler::operator ==(class v8::internal::compiler::StoreRepresentation,class v8::internal::compiler::StoreRepresentation)
??8compiler@internal@v8@@YA_NVStoreRepresentation@012@0@Z
; bool __cdecl v8::internal::operator ==(class v8::internal::ExternalReference,class v8::internal::ExternalReference)
??8internal@v8@@YA_NVExternalReference@01@0@Z
; public: bool __cdecl v8::base::time_internal::<class v8::base::ThreadTicks>::operator !=(class v8::base::ThreadTicks)const __ptr64 
??9?$TimeBase@VThreadTicks@base@v8@@@time_internal@base@v8@@QEBA_NVThreadTicks@23@@Z
; public: bool __cdecl v8::base::time_internal::<class v8::base::Time>::operator !=(class v8::base::Time)const __ptr64 
??9?$TimeBase@VTime@base@v8@@@time_internal@base@v8@@QEBA_NVTime@23@@Z
; public: bool __cdecl v8::base::time_internal::<class v8::base::TimeTicks>::operator !=(class v8::base::TimeTicks)const __ptr64 
??9?$TimeBase@VTimeTicks@base@v8@@@time_internal@base@v8@@QEBA_NVTimeTicks@23@@Z
; public: bool __cdecl v8::internal::interpreter::BytecodeNode::operator !=(class v8::internal::interpreter::BytecodeNode const &__ptr64 )const __ptr64 
??9BytecodeNode@interpreter@internal@v8@@QEBA_NAEBV0123@@Z
; public: bool __cdecl v8::internal::interpreter::Register::operator !=(class v8::internal::interpreter::Register const &__ptr64 )const __ptr64 
??9Register@interpreter@internal@v8@@QEBA_NAEBV0123@@Z
; public: bool __cdecl v8::base::TimeDelta::operator !=(class v8::base::TimeDelta const &__ptr64 )const __ptr64 
??9TimeDelta@base@v8@@QEBA_NAEBV012@@Z
; public: bool __cdecl v8::internal::compiler::Type::operator !=(class v8::internal::compiler::Type)const __ptr64 
??9Type@compiler@internal@v8@@QEBA_NV0123@@Z
; public: bool __cdecl v8::internal::interpreter::JumpTableTargetOffsets::iterator::operator !=(class v8::internal::interpreter::JumpTableTargetOffsets::iterator const &__ptr64 )__ptr64 
??9iterator@JumpTableTargetOffsets@interpreter@internal@v8@@QEAA_NAEBV01234@@Z
; public: bool __cdecl v8::internal::compiler::StateValuesAccess::iterator::operator !=(class v8::internal::compiler::StateValuesAccess::iterator const &__ptr64 )__ptr64 
??9iterator@StateValuesAccess@compiler@internal@v8@@QEAA_NAEBV01234@@Z
; public: class v8::internal::compiler::MoveOperands *__ptr64 &__ptr64 __cdecl std::<class v8::internal::compiler::MoveOperands *__ptr64,class v8::internal::<class v8::internal::compiler::MoveOperands *__ptr64>>::operator[](unsigned __int64)__ptr64 
??A?$vector@PEAVMoveOperands@compiler@internal@v8@@V?$ZoneAllocator@PEAVMoveOperands@compiler@internal@v8@@@34@@std@@QEAAAEAPEAVMoveOperands@compiler@internal@v8@@_K@Z
; public: class v8::internal::compiler::MoveOperands *__ptr64 const &__ptr64 __cdecl std::<class v8::internal::compiler::MoveOperands *__ptr64,class v8::internal::<class v8::internal::compiler::MoveOperands *__ptr64>>::operator[](unsigned __int64)const __ptr64 
??A?$vector@PEAVMoveOperands@compiler@internal@v8@@V?$ZoneAllocator@PEAVMoveOperands@compiler@internal@v8@@@34@@std@@QEBAAEBQEAVMoveOperands@compiler@internal@v8@@_K@Z
; public: struct v8::CpuProfileDeoptFrame &__ptr64 __cdecl std::<struct v8::CpuProfileDeoptFrame,class std::<struct v8::CpuProfileDeoptFrame>>::operator[](unsigned __int64)__ptr64 
??A?$vector@UCpuProfileDeoptFrame@v8@@V?$allocator@UCpuProfileDeoptFrame@v8@@@std@@@std@@QEAAAEAUCpuProfileDeoptFrame@v8@@_K@Z
; public: struct v8::CpuProfileDeoptFrame const &__ptr64 __cdecl std::<struct v8::CpuProfileDeoptFrame,class std::<struct v8::CpuProfileDeoptFrame>>::operator[](unsigned __int64)const __ptr64 
??A?$vector@UCpuProfileDeoptFrame@v8@@V?$allocator@UCpuProfileDeoptFrame@v8@@@std@@@std@@QEBAAEBUCpuProfileDeoptFrame@v8@@_K@Z
; public: struct v8::CpuProfileDeoptInfo &__ptr64 __cdecl std::<struct v8::CpuProfileDeoptInfo,class std::<struct v8::CpuProfileDeoptInfo>>::operator[](unsigned __int64)__ptr64 
??A?$vector@UCpuProfileDeoptInfo@v8@@V?$allocator@UCpuProfileDeoptInfo@v8@@@std@@@std@@QEAAAEAUCpuProfileDeoptInfo@v8@@_K@Z
; public: struct v8::CpuProfileDeoptInfo const &__ptr64 __cdecl std::<struct v8::CpuProfileDeoptInfo,class std::<struct v8::CpuProfileDeoptInfo>>::operator[](unsigned __int64)const __ptr64 
??A?$vector@UCpuProfileDeoptInfo@v8@@V?$allocator@UCpuProfileDeoptInfo@v8@@@std@@@std@@QEBAAEBUCpuProfileDeoptInfo@v8@@_K@Z
; public: class v8::internal::compiler::Node *__ptr64 __cdecl v8::internal::compiler::Node::Inputs::operator[](int)const __ptr64 
??AInputs@Node@compiler@internal@v8@@QEBAPEAV1234@H@Z
; public: class v8::internal::wasm::WasmCode *__ptr64 &__ptr64 __cdecl v8::internal::wasm::WasmImportWrapperCache::ModificationScope::operator[](struct std::<enum v8::internal::compiler::WasmImportCallKind,class v8::internal::<enum v8::internal::wasm::ValueType> *__ptr64> const &__ptr64 )__ptr64 
??AModificationScope@WasmImportWrapperCache@wasm@internal@v8@@QEAAAEAPEAVWasmCode@234@AEBU?$pair@W4WasmImportCallKind@compiler@internal@v8@@PEAV?$Signature@W4ValueType@wasm@internal@v8@@@34@@std@@@Z
; public: class v8::internal::wasm::WasmCode *__ptr64 &__ptr64 __cdecl v8::internal::wasm::WasmImportWrapperCache::operator[](struct std::<enum v8::internal::compiler::WasmImportCallKind,class v8::internal::<enum v8::internal::wasm::ValueType> *__ptr64> const &__ptr64 )__ptr64 
??AWasmImportWrapperCache@wasm@internal@v8@@QEAAAEAPEAVWasmCode@123@AEBU?$pair@W4WasmImportCallKind@compiler@internal@v8@@PEAV?$Signature@W4ValueType@wasm@internal@v8@@@34@@std@@@Z
; public: class v8::base::TimeDelta __cdecl v8::base::TimeDelta::operator *(__int64)const __ptr64 
??DTimeDelta@base@v8@@QEBA?AV012@_J@Z
; public: char *__ptr64 __cdecl v8::String::Utf8Value::operator *(void)__ptr64 
??DUtf8Value@String@v8@@QEAAPEADXZ
; public: char const *__ptr64 __cdecl v8::String::Utf8Value::operator *(void)const __ptr64 
??DUtf8Value@String@v8@@QEBAPEBDXZ
; public: unsigned short *__ptr64 __cdecl v8::String::Value::operator *(void)__ptr64 
??DValue@String@v8@@QEAAPEAGXZ
; public: unsigned short const *__ptr64 __cdecl v8::String::Value::operator *(void)const __ptr64 
??DValue@String@v8@@QEBAPEBGXZ
; public: struct v8::internal::interpreter::JumpTableTargetOffset __cdecl v8::internal::interpreter::JumpTableTargetOffsets::iterator::operator *(void)__ptr64 
??Diterator@JumpTableTargetOffsets@interpreter@internal@v8@@QEAA?AUJumpTableTargetOffset@234@XZ
; public: struct v8::internal::compiler::StateValuesAccess::TypedNode __cdecl v8::internal::compiler::StateValuesAccess::iterator::operator *(void)__ptr64 
??Diterator@StateValuesAccess@compiler@internal@v8@@QEAA?AUTypedNode@1234@XZ
; public: class v8::internal::interpreter::BytecodeArrayRandomIterator &__ptr64 __cdecl v8::internal::interpreter::BytecodeArrayRandomIterator::operator ++(void)__ptr64 
??EBytecodeArrayRandomIterator@interpreter@internal@v8@@QEAAAEAV0123@XZ
; public: class v8::internal::interpreter::JumpTableTargetOffsets::iterator &__ptr64 __cdecl v8::internal::interpreter::JumpTableTargetOffsets::iterator::operator ++(void)__ptr64 
??Eiterator@JumpTableTargetOffsets@interpreter@internal@v8@@QEAAAEAV01234@XZ
; public: class v8::internal::compiler::StateValuesAccess::iterator &__ptr64 __cdecl v8::internal::compiler::StateValuesAccess::iterator::operator ++(void)__ptr64 
??Eiterator@StateValuesAccess@compiler@internal@v8@@QEAAAEAV01234@XZ
; public: class v8::internal::interpreter::BytecodeArrayRandomIterator &__ptr64 __cdecl v8::internal::interpreter::BytecodeArrayRandomIterator::operator --(void)__ptr64 
??FBytecodeArrayRandomIterator@interpreter@internal@v8@@QEAAAEAV0123@XZ
; public: class v8::base::ThreadTicks __cdecl v8::base::time_internal::<class v8::base::ThreadTicks>::operator -(class v8::base::TimeDelta)const __ptr64 
??G?$TimeBase@VThreadTicks@base@v8@@@time_internal@base@v8@@QEBA?AVThreadTicks@23@VTimeDelta@23@@Z
; public: class v8::base::TimeDelta __cdecl v8::base::time_internal::<class v8::base::ThreadTicks>::operator -(class v8::base::ThreadTicks)const __ptr64 
??G?$TimeBase@VThreadTicks@base@v8@@@time_internal@base@v8@@QEBA?AVTimeDelta@23@VThreadTicks@23@@Z
; public: class v8::base::Time __cdecl v8::base::time_internal::<class v8::base::Time>::operator -(class v8::base::TimeDelta)const __ptr64 
??G?$TimeBase@VTime@base@v8@@@time_internal@base@v8@@QEBA?AVTime@23@VTimeDelta@23@@Z
; public: class v8::base::TimeDelta __cdecl v8::base::time_internal::<class v8::base::Time>::operator -(class v8::base::Time)const __ptr64 
??G?$TimeBase@VTime@base@v8@@@time_internal@base@v8@@QEBA?AVTimeDelta@23@VTime@23@@Z
; public: class v8::base::TimeDelta __cdecl v8::base::time_internal::<class v8::base::TimeTicks>::operator -(class v8::base::TimeTicks)const __ptr64 
??G?$TimeBase@VTimeTicks@base@v8@@@time_internal@base@v8@@QEBA?AVTimeDelta@23@VTimeTicks@23@@Z
; public: class v8::base::TimeTicks __cdecl v8::base::time_internal::<class v8::base::TimeTicks>::operator -(class v8::base::TimeDelta)const __ptr64 
??G?$TimeBase@VTimeTicks@base@v8@@@time_internal@base@v8@@QEBA?AVTimeTicks@23@VTimeDelta@23@@Z
; public: class v8::base::TimeDelta __cdecl v8::base::TimeDelta::operator -(class v8::base::TimeDelta const &__ptr64 )const __ptr64 
??GTimeDelta@base@v8@@QEBA?AV012@AEBV012@@Z
; public: class v8::base::TimeDelta __cdecl v8::base::TimeDelta::operator -(void)const __ptr64 
??GTimeDelta@base@v8@@QEBA?AV012@XZ
; public: class v8::base::ThreadTicks __cdecl v8::base::time_internal::<class v8::base::ThreadTicks>::operator +(class v8::base::TimeDelta)const __ptr64 
??H?$TimeBase@VThreadTicks@base@v8@@@time_internal@base@v8@@QEBA?AVThreadTicks@23@VTimeDelta@23@@Z
; public: class v8::base::Time __cdecl v8::base::time_internal::<class v8::base::Time>::operator +(class v8::base::TimeDelta)const __ptr64 
??H?$TimeBase@VTime@base@v8@@@time_internal@base@v8@@QEBA?AVTime@23@VTimeDelta@23@@Z
; public: class v8::base::TimeTicks __cdecl v8::base::time_internal::<class v8::base::TimeTicks>::operator +(class v8::base::TimeDelta)const __ptr64 
??H?$TimeBase@VTimeTicks@base@v8@@@time_internal@base@v8@@QEBA?AVTimeTicks@23@VTimeDelta@23@@Z
; public: class v8::base::TimeDelta __cdecl v8::base::TimeDelta::operator +(class v8::base::TimeDelta const &__ptr64 )const __ptr64 
??HTimeDelta@base@v8@@QEBA?AV012@AEBV012@@Z
; public: class v8::base::TimeDelta __cdecl v8::base::TimeDelta::operator /(__int64)const __ptr64 
??KTimeDelta@base@v8@@QEBA?AV012@_J@Z
; public: __int64 __cdecl v8::base::TimeDelta::operator /(class v8::base::TimeDelta const &__ptr64 )const __ptr64 
??KTimeDelta@base@v8@@QEBA_JAEBV012@@Z
; public: bool __cdecl v8::base::time_internal::<class v8::base::ThreadTicks>::operator <(class v8::base::ThreadTicks)const __ptr64 
??M?$TimeBase@VThreadTicks@base@v8@@@time_internal@base@v8@@QEBA_NVThreadTicks@23@@Z
; public: bool __cdecl v8::base::time_internal::<class v8::base::Time>::operator <(class v8::base::Time)const __ptr64 
??M?$TimeBase@VTime@base@v8@@@time_internal@base@v8@@QEBA_NVTime@23@@Z
; public: bool __cdecl v8::base::time_internal::<class v8::base::TimeTicks>::operator <(class v8::base::TimeTicks)const __ptr64 
??M?$TimeBase@VTimeTicks@base@v8@@@time_internal@base@v8@@QEBA_NVTimeTicks@23@@Z
; public: bool __cdecl v8::internal::interpreter::Register::operator <(class v8::internal::interpreter::Register const &__ptr64 )const __ptr64 
??MRegister@interpreter@internal@v8@@QEBA_NAEBV0123@@Z
; public: bool __cdecl v8::base::TimeDelta::operator <(class v8::base::TimeDelta const &__ptr64 )const __ptr64 
??MTimeDelta@base@v8@@QEBA_NAEBV012@@Z
; public: bool __cdecl v8::base::time_internal::<class v8::base::ThreadTicks>::operator <=(class v8::base::ThreadTicks)const __ptr64 
??N?$TimeBase@VThreadTicks@base@v8@@@time_internal@base@v8@@QEBA_NVThreadTicks@23@@Z
; public: bool __cdecl v8::base::time_internal::<class v8::base::Time>::operator <=(class v8::base::Time)const __ptr64 
??N?$TimeBase@VTime@base@v8@@@time_internal@base@v8@@QEBA_NVTime@23@@Z
; public: bool __cdecl v8::base::time_internal::<class v8::base::TimeTicks>::operator <=(class v8::base::TimeTicks)const __ptr64 
??N?$TimeBase@VTimeTicks@base@v8@@@time_internal@base@v8@@QEBA_NVTimeTicks@23@@Z
; public: bool __cdecl v8::internal::interpreter::Register::operator <=(class v8::internal::interpreter::Register const &__ptr64 )const __ptr64 
??NRegister@interpreter@internal@v8@@QEBA_NAEBV0123@@Z
; public: bool __cdecl v8::base::TimeDelta::operator <=(class v8::base::TimeDelta const &__ptr64 )const __ptr64 
??NTimeDelta@base@v8@@QEBA_NAEBV012@@Z
; public: bool __cdecl v8::base::time_internal::<class v8::base::ThreadTicks>::operator >(class v8::base::ThreadTicks)const __ptr64 
??O?$TimeBase@VThreadTicks@base@v8@@@time_internal@base@v8@@QEBA_NVThreadTicks@23@@Z
; public: bool __cdecl v8::base::time_internal::<class v8::base::Time>::operator >(class v8::base::Time)const __ptr64 
??O?$TimeBase@VTime@base@v8@@@time_internal@base@v8@@QEBA_NVTime@23@@Z
; public: bool __cdecl v8::base::time_internal::<class v8::base::TimeTicks>::operator >(class v8::base::TimeTicks)const __ptr64 
??O?$TimeBase@VTimeTicks@base@v8@@@time_internal@base@v8@@QEBA_NVTimeTicks@23@@Z
; public: bool __cdecl v8::internal::interpreter::Register::operator >(class v8::internal::interpreter::Register const &__ptr64 )const __ptr64 
??ORegister@interpreter@internal@v8@@QEBA_NAEBV0123@@Z
; public: bool __cdecl v8::base::TimeDelta::operator >(class v8::base::TimeDelta const &__ptr64 )const __ptr64 
??OTimeDelta@base@v8@@QEBA_NAEBV012@@Z
; public: bool __cdecl v8::base::time_internal::<class v8::base::ThreadTicks>::operator >=(class v8::base::ThreadTicks)const __ptr64 
??P?$TimeBase@VThreadTicks@base@v8@@@time_internal@base@v8@@QEBA_NVThreadTicks@23@@Z
; public: bool __cdecl v8::base::time_internal::<class v8::base::Time>::operator >=(class v8::base::Time)const __ptr64 
??P?$TimeBase@VTime@base@v8@@@time_internal@base@v8@@QEBA_NVTime@23@@Z
; public: bool __cdecl v8::base::time_internal::<class v8::base::TimeTicks>::operator >=(class v8::base::TimeTicks)const __ptr64 
??P?$TimeBase@VTimeTicks@base@v8@@@time_internal@base@v8@@QEBA_NVTimeTicks@23@@Z
; public: bool __cdecl v8::internal::interpreter::Register::operator >=(class v8::internal::interpreter::Register const &__ptr64 )const __ptr64 
??PRegister@interpreter@internal@v8@@QEBA_NAEBV0123@@Z
; public: bool __cdecl v8::base::TimeDelta::operator >=(class v8::base::TimeDelta const &__ptr64 )const __ptr64 
??PTimeDelta@base@v8@@QEBA_NAEBV012@@Z
; public: bool __cdecl v8::internal::SourceTextModuleDescriptor::AstRawStringComparer::operator()(class v8::internal::AstRawString const *__ptr64,class v8::internal::AstRawString const *__ptr64)const __ptr64 
??RAstRawStringComparer@SourceTextModuleDescriptor@internal@v8@@QEBA_NPEBVAstRawString@23@0@Z
; public: void __cdecl v8::internal::wasm::InterpretedFrameDeleter::operator()(class v8::internal::wasm::InterpretedFrame *__ptr64)__ptr64 
??RInterpretedFrameDeleter@wasm@internal@v8@@QEAAXPEAVInterpretedFrame@123@@Z
; public: class v8::base::TimeDelta &__ptr64 __cdecl v8::base::TimeDelta::operator *=(__int64)__ptr64 
??XTimeDelta@base@v8@@QEAAAEAV012@_J@Z
; public: class v8::base::ThreadTicks &__ptr64 __cdecl v8::base::time_internal::<class v8::base::ThreadTicks>::operator +=(class v8::base::TimeDelta)__ptr64 
??Y?$TimeBase@VThreadTicks@base@v8@@@time_internal@base@v8@@QEAAAEAVThreadTicks@23@VTimeDelta@23@@Z
; public: class v8::base::Time &__ptr64 __cdecl v8::base::time_internal::<class v8::base::Time>::operator +=(class v8::base::TimeDelta)__ptr64 
??Y?$TimeBase@VTime@base@v8@@@time_internal@base@v8@@QEAAAEAVTime@23@VTimeDelta@23@@Z
; public: class v8::base::TimeTicks &__ptr64 __cdecl v8::base::time_internal::<class v8::base::TimeTicks>::operator +=(class v8::base::TimeDelta)__ptr64 
??Y?$TimeBase@VTimeTicks@base@v8@@@time_internal@base@v8@@QEAAAEAVTimeTicks@23@VTimeDelta@23@@Z
; public: class v8::internal::interpreter::BytecodeArrayRandomIterator &__ptr64 __cdecl v8::internal::interpreter::BytecodeArrayRandomIterator::operator +=(int)__ptr64 
??YBytecodeArrayRandomIterator@interpreter@internal@v8@@QEAAAEAV0123@H@Z
; public: class v8::base::TimeDelta &__ptr64 __cdecl v8::base::TimeDelta::operator +=(class v8::base::TimeDelta const &__ptr64 )__ptr64 
??YTimeDelta@base@v8@@QEAAAEAV012@AEBV012@@Z
; public: class v8::base::ThreadTicks &__ptr64 __cdecl v8::base::time_internal::<class v8::base::ThreadTicks>::operator -=(class v8::base::TimeDelta)__ptr64 
??Z?$TimeBase@VThreadTicks@base@v8@@@time_internal@base@v8@@QEAAAEAVThreadTicks@23@VTimeDelta@23@@Z
; public: class v8::base::Time &__ptr64 __cdecl v8::base::time_internal::<class v8::base::Time>::operator -=(class v8::base::TimeDelta)__ptr64 
??Z?$TimeBase@VTime@base@v8@@@time_internal@base@v8@@QEAAAEAVTime@23@VTimeDelta@23@@Z
; public: class v8::base::TimeTicks &__ptr64 __cdecl v8::base::time_internal::<class v8::base::TimeTicks>::operator -=(class v8::base::TimeDelta)__ptr64 
??Z?$TimeBase@VTimeTicks@base@v8@@@time_internal@base@v8@@QEAAAEAVTimeTicks@23@VTimeDelta@23@@Z
; public: class v8::internal::interpreter::BytecodeArrayRandomIterator &__ptr64 __cdecl v8::internal::interpreter::BytecodeArrayRandomIterator::operator -=(int)__ptr64 
??ZBytecodeArrayRandomIterator@interpreter@internal@v8@@QEAAAEAV0123@H@Z
; public: class v8::base::TimeDelta &__ptr64 __cdecl v8::base::TimeDelta::operator -=(class v8::base::TimeDelta const &__ptr64 )__ptr64 
??ZTimeDelta@base@v8@@QEAAAEAV012@AEBV012@@Z
; public: class v8::base::TimeDelta &__ptr64 __cdecl v8::base::TimeDelta::operator /=(__int64)__ptr64 
??_0TimeDelta@base@v8@@QEAAAEAV012@_J@Z
; const std::<char,struct std::<char>>::$vftable
??_7?$basic_ios@DU?$char_traits@D@std@@@std@@6B@ DATA
; const std::<char,struct std::<char>>::$vftable
??_7?$basic_ostream@DU?$char_traits@D@std@@@std@@6B@ DATA
; const std::<char,struct std::<char>>::$vftable
??_7?$basic_streambuf@DU?$char_traits@D@std@@@std@@6B@ DATA
; const v8::internal::interpreter::AbstractBytecodeArray::$vftable
??_7AbstractBytecodeArray@interpreter@internal@v8@@6B@ DATA
; const v8::internal::AccountingAllocator::$vftable
??_7AccountingAllocator@internal@v8@@6B@ DATA
; const v8::ActivityControl::$vftable
??_7ActivityControl@v8@@6B@ DATA
; const v8::internal::compiler::AddTypeAssertionsReducer::$vftable
??_7AddTypeAssertionsReducer@compiler@internal@v8@@6B@ DATA
; const v8::AllocationProfile::$vftable
??_7AllocationProfile@v8@@6B@ DATA
; const v8::ArrayBuffer::Allocator::$vftable
??_7Allocator@ArrayBuffer@v8@@6B@ DATA
; const node::ArrayBufferAllocator::$vftable
??_7ArrayBufferAllocator@node@@6B@ DATA
; const v8::internal::wasm::AsmCallableType::$vftable
??_7AsmCallableType@wasm@internal@v8@@6B@ DATA
; const v8::internal::wasm::AsmFunctionType::$vftable
??_7AsmFunctionType@wasm@internal@v8@@6B@ DATA
; const v8::internal::wasm::AsmOverloadedFunctionType::$vftable
??_7AsmOverloadedFunctionType@wasm@internal@v8@@6B@ DATA
; const v8::internal::Assembler::$vftable
??_7Assembler@internal@v8@@6B@ DATA
; const v8::internal::AssemblerBase::$vftable
??_7AssemblerBase@internal@v8@@6B@ DATA
; const node::AsyncResource::$vftable
??_7AsyncResource@node@@6B@ DATA
; const v8::internal::BigIntToI32PairDescriptor::$vftable
??_7BigIntToI32PairDescriptor@internal@v8@@6B@ DATA
; const v8::internal::BigIntToI64Descriptor::$vftable
??_7BigIntToI64Descriptor@internal@v8@@6B@ DATA
; const v8::internal::interpreter::BlockBuilder::$vftable
??_7BlockBuilder@interpreter@internal@v8@@6B@ DATA
; const v8::base::BoundedPageAllocator::$vftable
??_7BoundedPageAllocator@base@v8@@6B@ DATA
; const v8::internal::compiler::BranchElimination::$vftable
??_7BranchElimination@compiler@internal@v8@@6B@ DATA
; const v8::internal::interpreter::BreakableControlFlowBuilder::$vftable
??_7BreakableControlFlowBuilder@interpreter@internal@v8@@6B@ DATA
; const v8::internal::wasm::BytecodeIterator::$vftable
??_7BytecodeIterator@wasm@internal@v8@@6B@ DATA
; const v8::internal::interpreter::BytecodeRegisterOptimizer::$vftable
??_7BytecodeRegisterOptimizer@interpreter@internal@v8@@6B@ DATA
; const v8::internal::CallInterfaceDescriptor::$vftable
??_7CallInterfaceDescriptor@internal@v8@@6B@ DATA
; const v8::internal::Cancelable::$vftable
??_7Cancelable@internal@v8@@6B@ DATA
; const v8::internal::CancelableTask::$vftable {for 'v8::internal::Cancelable' }
??_7CancelableTask@internal@v8@@6BCancelable@12@@ DATA
; const v8::internal::CancelableTask::$vftable {for 'v8::Task' }
??_7CancelableTask@internal@v8@@6BTask@2@@ DATA
; const v8_inspector::V8Inspector::Channel::$vftable
??_7Channel@V8Inspector@v8_inspector@@6B@ DATA
; const v8::internal::compiler::CheckpointElimination::$vftable
??_7CheckpointElimination@compiler@internal@v8@@6B@ DATA
; const v8::CodeEventHandler::$vftable
??_7CodeEventHandler@v8@@6B@ DATA
; const v8::internal::CodeEventLogger::$vftable
??_7CodeEventLogger@internal@v8@@6B@ DATA
; const v8::internal::compiler::CodeGenerator::$vftable
??_7CodeGenerator@compiler@internal@v8@@6B@ DATA
; const v8::internal::compiler::CommonOperatorReducer::$vftable
??_7CommonOperatorReducer@compiler@internal@v8@@6B@ DATA
; const v8::internal::CompactionSpace::$vftable
??_7CompactionSpace@internal@v8@@6B@ DATA
; const v8::internal::CompilationJob::$vftable
??_7CompilationJob@internal@v8@@6B@ DATA
; const v8::internal::wasm::CompilationResultResolver::$vftable
??_7CompilationResultResolver@wasm@internal@v8@@6B@ DATA
; const v8::internal::interpreter::ConditionalControlFlowBuilder::$vftable
??_7ConditionalControlFlowBuilder@interpreter@internal@v8@@6B@ DATA
; const v8::internal::compiler::ConstantFoldingReducer::$vftable
??_7ConstantFoldingReducer@compiler@internal@v8@@6B@ DATA
; const v8::internal::interpreter::ControlFlowBuilder::$vftable
??_7ControlFlowBuilder@interpreter@internal@v8@@6B@ DATA
; const v8::internal::compiler::CsaLoadElimination::$vftable
??_7CsaLoadElimination@compiler@internal@v8@@6B@ DATA
; const v8::internal::DateCache::$vftable
??_7DateCache@internal@v8@@6B@ DATA
; const v8::internal::DbgStreamBuf::$vftable
??_7DbgStreamBuf@internal@v8@@6B@ DATA
; const v8::internal::compiler::DeadCodeElimination::$vftable
??_7DeadCodeElimination@compiler@internal@v8@@6B@ DATA
; const v8::internal::compiler::DecompressionElimination::$vftable
??_7DecompressionElimination@compiler@internal@v8@@6B@ DATA
; const v8::ValueDeserializer::Delegate::$vftable
??_7Delegate@ValueDeserializer@v8@@6B@ DATA
; const v8::ValueSerializer::Delegate::$vftable
??_7Delegate@ValueSerializer@v8@@6B@ DATA
; const v8::internal::Deserializer::$vftable
??_7Deserializer@internal@v8@@6B@ DATA
; const v8_inspector::protocol::Schema::API::Domain::$vftable
??_7Domain@API@Schema@protocol@v8_inspector@@6B@ DATA
; const v8::EmbedderGraph::$vftable
??_7EmbedderGraph@v8@@6B@ DATA
; const v8::EmbedderHeapTracer::$vftable
??_7EmbedderHeapTracer@v8@@6B@ DATA
; const v8::internal::compiler::EscapeAnalysisReducer::$vftable
??_7EscapeAnalysisReducer@compiler@internal@v8@@6B@ DATA
; const v8_inspector::protocol::Exported::$vftable
??_7Exported@protocol@v8_inspector@@6B@ DATA
; const v8::Extension::$vftable
??_7Extension@v8@@6B@ DATA
; const v8::String::ExternalOneByteStringResource::$vftable
??_7ExternalOneByteStringResource@String@v8@@6B@ DATA
; const v8::ExternalResourceVisitor::$vftable
??_7ExternalResourceVisitor@v8@@6B@ DATA
; const v8::ScriptCompiler::ExternalSourceStream::$vftable
??_7ExternalSourceStream@ScriptCompiler@v8@@6B@ DATA
; const v8::String::ExternalStringResource::$vftable
??_7ExternalStringResource@String@v8@@6B@ DATA
; const v8::String::ExternalStringResourceBase::$vftable
??_7ExternalStringResourceBase@String@v8@@6B@ DATA
; const v8::internal::FlatStringReader::$vftable
??_7FlatStringReader@internal@v8@@6B@ DATA
; const v8::internal::FreeListFastAlloc::$vftable
??_7FreeListFastAlloc@internal@v8@@6B@ DATA
; const v8::internal::FreeListLegacy::$vftable
??_7FreeListLegacy@internal@v8@@6B@ DATA
; const v8::internal::FreeListMany::$vftable
??_7FreeListMany@internal@v8@@6B@ DATA
; const v8::internal::FreeListManyCached::$vftable
??_7FreeListManyCached@internal@v8@@6B@ DATA
; const v8::internal::FreeListManyCachedFastPath::$vftable
??_7FreeListManyCachedFastPath@internal@v8@@6B@ DATA
; const v8::internal::FreeListManyCachedOrigin::$vftable
??_7FreeListManyCachedOrigin@internal@v8@@6B@ DATA
; const v8::internal::FreeListMap::$vftable
??_7FreeListMap@internal@v8@@6B@ DATA
; const v8::internal::compiler::GraphReducer::$vftable
??_7GraphReducer@compiler@internal@v8@@6B@ DATA
; const v8::internal::I32PairToBigIntDescriptor::$vftable
??_7I32PairToBigIntDescriptor@internal@v8@@6B@ DATA
; const v8::internal::I64ToBigIntDescriptor::$vftable
??_7I64ToBigIntDescriptor@internal@v8@@6B@ DATA
; const v8::internal::IdentityMapBase::$vftable
??_7IdentityMapBase@internal@v8@@6B@ DATA
; const v8_inspector::V8InspectorSession::Inspectable::$vftable
??_7Inspectable@V8InspectorSession@v8_inspector@@6B@ DATA
; const v8::internal::wasm::InstantiationResultResolver::$vftable
??_7InstantiationResultResolver@wasm@internal@v8@@6B@ DATA
; const v8::internal::InterpreterDispatchDescriptor::$vftable
??_7InterpreterDispatchDescriptor@internal@v8@@6B@ DATA
; const v8::internal::ItemParallelJob::Item::$vftable
??_7Item@ItemParallelJob@internal@v8@@6B@ DATA
; const v8::internal::compiler::JSCallReducer::$vftable
??_7JSCallReducer@compiler@internal@v8@@6B@ DATA
; const v8::internal::compiler::JSContextSpecialization::$vftable
??_7JSContextSpecialization@compiler@internal@v8@@6B@ DATA
; const v8::internal::compiler::JSCreateLowering::$vftable
??_7JSCreateLowering@compiler@internal@v8@@6B@ DATA
; const v8::internal::compiler::JSHeapCopyReducer::$vftable
??_7JSHeapCopyReducer@compiler@internal@v8@@6B@ DATA
; const v8::internal::compiler::JSIntrinsicLowering::$vftable
??_7JSIntrinsicLowering@compiler@internal@v8@@6B@ DATA
; const v8::internal::compiler::JSNativeContextSpecialization::$vftable
??_7JSNativeContextSpecialization@compiler@internal@v8@@6B@ DATA
; const v8::internal::compiler::JSTypedLowering::$vftable
??_7JSTypedLowering@compiler@internal@v8@@6B@ DATA
; const v8::internal::wasm::JumpTableAssembler::$vftable
??_7JumpTableAssembler@wasm@internal@v8@@6B@ DATA
; const v8::internal::compiler::LoadElimination::$vftable
??_7LoadElimination@compiler@internal@v8@@6B@ DATA
; const v8::internal::interpreter::LoopBuilder::$vftable
??_7LoopBuilder@interpreter@internal@v8@@6B@ DATA
; const v8::internal::compiler::MachineOperatorReducer::$vftable
??_7MachineOperatorReducer@compiler@internal@v8@@6B@ DATA
; const v8::internal::MacroAssembler::$vftable
??_7MacroAssembler@internal@v8@@6B@ DATA
; const v8::base::OS::MemoryMappedFile::$vftable
??_7MemoryMappedFile@OS@base@v8@@6B@ DATA
; const v8::internal::MicrotaskQueue::$vftable
??_7MicrotaskQueue@internal@v8@@6B@ DATA
; const v8::MicrotaskQueue::$vftable
??_7MicrotaskQueue@v8@@6B@ DATA
; const node::MultiIsolatePlatform::$vftable
??_7MultiIsolatePlatform@node@@6B@ DATA
; const disasm::NameConverter::$vftable
??_7NameConverter@disasm@@6B@ DATA
; const v8::internal::NewSpace::$vftable
??_7NewSpace@internal@v8@@6B@ DATA
; const v8::internal::OFStream::$vftable
??_7OFStream@internal@v8@@6B@ DATA
; const v8::internal::OFStreamBase::$vftable
??_7OFStreamBase@internal@v8@@6B@ DATA
; const v8::internal::ObjectIterator::$vftable
??_7ObjectIterator@internal@v8@@6B@ DATA
; const v8::internal::compiler::Operator::$vftable
??_7Operator@compiler@internal@v8@@6B@ DATA
; const v8::OutputStream::$vftable
??_7OutputStream@v8@@6B@ DATA
; const v8::base::PageAllocator::$vftable
??_7PageAllocator@base@v8@@6B@ DATA
; const v8::internal::PagedSpace::$vftable
??_7PagedSpace@internal@v8@@6B@ DATA
; const v8::internal::PagedSpaceObjectIterator::$vftable
??_7PagedSpaceObjectIterator@internal@v8@@6B@ DATA
; const v8::internal::PartialDeserializer::$vftable
??_7PartialDeserializer@internal@v8@@6B@ DATA
; const v8::internal::PartialSerializer::$vftable
??_7PartialSerializer@internal@v8@@6B@ DATA
; const v8::PersistentHandleVisitor::$vftable
??_7PersistentHandleVisitor@v8@@6B@ DATA
; const v8::internal::ProfilerCodeObserver::$vftable
??_7ProfilerCodeObserver@internal@v8@@6B@ DATA
; const v8::internal::ProfilerEventsProcessor::$vftable {for 'v8::internal::CodeEventObserver' }
??_7ProfilerEventsProcessor@internal@v8@@6BCodeEventObserver@12@@ DATA
; const v8::internal::ProfilerEventsProcessor::$vftable {for 'v8::base::Thread' }
??_7ProfilerEventsProcessor@internal@v8@@6BThread@base@2@@ DATA
; const v8::internal::ProfilerListener::$vftable
??_7ProfilerListener@internal@v8@@6B@ DATA
; const v8::internal::ReadOnlySerializer::$vftable
??_7ReadOnlySerializer@internal@v8@@6B@ DATA
; const v8::internal::compiler::Reducer::$vftable
??_7Reducer@compiler@internal@v8@@6B@ DATA
; const v8::internal::compiler::RedundancyElimination::$vftable
??_7RedundancyElimination@compiler@internal@v8@@6B@ DATA
; const v8::internal::RegExpBytecodeGenerator::$vftable
??_7RegExpBytecodeGenerator@internal@v8@@6B@ DATA
; const v8::internal::RegExpMacroAssemblerX64::$vftable
??_7RegExpMacroAssemblerX64@internal@v8@@6B@ DATA
; const v8::internal::RegisterConfiguration::$vftable
??_7RegisterConfiguration@internal@v8@@6B@ DATA
; const v8_inspector::protocol::Runtime::API::RemoteObject::$vftable
??_7RemoteObject@API@Runtime@protocol@v8_inspector@@6B@ DATA
; const v8::sampler::Sampler::$vftable
??_7Sampler@sampler@v8@@6B@ DATA
; const v8::internal::SamplingEventsProcessor::$vftable {for 'v8::internal::CodeEventObserver' }
??_7SamplingEventsProcessor@internal@v8@@6BCodeEventObserver@12@@ DATA
; const v8::internal::SamplingEventsProcessor::$vftable {for 'v8::base::Thread' }
??_7SamplingEventsProcessor@internal@v8@@6BThread@base@2@@ DATA
; const v8::debug::ScopeIterator::$vftable
??_7ScopeIterator@debug@v8@@6B@ DATA
; const v8_inspector::protocol::Debugger::API::SearchMatch::$vftable
??_7SearchMatch@API@Debugger@protocol@v8_inspector@@6B@ DATA
; const v8::internal::SetupIsolateDelegate::$vftable
??_7SetupIsolateDelegate@internal@v8@@6B@ DATA
; const v8::internal::compiler::SimplifiedOperatorReducer::$vftable
??_7SimplifiedOperatorReducer@compiler@internal@v8@@6B@ DATA
; const v8::internal::SnapshotData::$vftable
??_7SnapshotData@internal@v8@@6B@ DATA
; const v8::internal::Space::$vftable
??_7Space@internal@v8@@6B@ DATA
; const v8::internal::SpaceIterator::$vftable
??_7SpaceIterator@internal@v8@@6B@ DATA
; const v8_inspector::protocol::Runtime::API::StackTrace::$vftable
??_7StackTrace@API@Runtime@protocol@v8_inspector@@6B@ DATA
; const v8_inspector::protocol::Runtime::API::StackTraceId::$vftable
??_7StackTraceId@API@Runtime@protocol@v8_inspector@@6B@ DATA
; const v8::debug::StackTraceIterator::$vftable
??_7StackTraceIterator@debug@v8@@6B@ DATA
; const v8::internal::StartupSerializer::$vftable
??_7StartupSerializer@internal@v8@@6B@ DATA
; const v8::internal::wasm::StreamingProcessor::$vftable
??_7StreamingProcessor@wasm@internal@v8@@6B@ DATA
; const v8_inspector::StringBuffer::$vftable
??_7StringBuffer@v8_inspector@@6B@ DATA
; const v8::internal::interpreter::SwitchBuilder::$vftable
??_7SwitchBuilder@interpreter@internal@v8@@6B@ DATA
; const v8::internal::ItemParallelJob::Task::$vftable {for 'v8::Task' }
??_7Task@ItemParallelJob@internal@v8@@6B03@@ DATA
; const v8::internal::ItemParallelJob::Task::$vftable {for 'v8::internal::Cancelable' }
??_7Task@ItemParallelJob@internal@v8@@6BCancelable@23@@ DATA
; const v8::base::Thread::$vftable
??_7Thread@base@v8@@6B@ DATA
; const v8::EmbedderHeapTracer::TracedGlobalHandleVisitor::$vftable
??_7TracedGlobalHandleVisitor@EmbedderHeapTracer@v8@@6B@ DATA
; const v8::tracing::TracedValue::$vftable
??_7TracedValue@tracing@v8@@6B@ DATA
; const v8::internal::interpreter::TryCatchBuilder::$vftable
??_7TryCatchBuilder@interpreter@internal@v8@@6B@ DATA
; const v8::internal::interpreter::TryFinallyBuilder::$vftable
??_7TryFinallyBuilder@interpreter@internal@v8@@6B@ DATA
; const v8::internal::TurboAssembler::$vftable
??_7TurboAssembler@internal@v8@@6B@ DATA
; const v8::internal::TurboAssemblerBase::$vftable
??_7TurboAssemblerBase@internal@v8@@6B@ DATA
; const v8::internal::compiler::TypeNarrowingReducer::$vftable
??_7TypeNarrowingReducer@compiler@internal@v8@@6B@ DATA
; const v8::internal::compiler::TypedOptimization::$vftable
??_7TypedOptimization@compiler@internal@v8@@6B@ DATA
; const v8::internal::TypedSlotSet::$vftable
??_7TypedSlotSet@internal@v8@@6B@ DATA
; const v8::internal::TypedSlots::$vftable
??_7TypedSlots@internal@v8@@6B@ DATA
; const v8::internal::V8HeapExplorer::$vftable
??_7V8HeapExplorer@internal@v8@@6B@ DATA
; const v8_inspector::V8Inspector::$vftable
??_7V8Inspector@v8_inspector@@6B@ DATA
; const v8_inspector::V8InspectorClient::$vftable
??_7V8InspectorClient@v8_inspector@@6B@ DATA
; const v8_inspector::V8InspectorSession::$vftable
??_7V8InspectorSession@v8_inspector@@6B@ DATA
; const v8_inspector::V8StackTrace::$vftable
??_7V8StackTrace@v8_inspector@@6B@ DATA
; const v8::internal::compiler::ValueNumberingReducer::$vftable
??_7ValueNumberingReducer@compiler@internal@v8@@6B@ DATA
; const v8::internal::VoidDescriptor::$vftable
??_7VoidDescriptor@internal@v8@@6B@ DATA
; const std::<char,struct std::<char>>::$vbtable
??_8?$basic_ostream@DU?$char_traits@D@std@@@std@@7B@ DATA
; const v8::internal::OFStream::$vbtable
??_8OFStream@internal@v8@@7B@ DATA
; public: void __cdecl std::<char,struct std::<char>>::vbase_destructor(void)__ptr64 
??_D?$basic_ostream@DU?$char_traits@D@std@@@std@@QEAAXXZ
; public: void __cdecl v8::internal::OFStream::vbase_destructor(void)__ptr64 
??_DOFStream@internal@v8@@QEAAXXZ
; public: void __cdecl v8::internal::compiler::<int,struct v8::base::<int>,struct std::<int>>::__dflt_ctor_closure(void)__ptr64 
??_F?$NodeCache@HU?$hash@H@base@v8@@U?$equal_to@H@std@@@compiler@internal@v8@@QEAAXXZ
; public: void __cdecl v8::internal::compiler::<struct std::<int,char>,struct v8::base::<struct std::<int,char>>,struct std::<struct std::<int,char>>>::__dflt_ctor_closure(void)__ptr64 
??_F?$NodeCache@U?$pair@HD@std@@U?$hash@U?$pair@HD@std@@@base@v8@@U?$equal_to@U?$pair@HD@std@@@2@@compiler@internal@v8@@QEAAXXZ
; public: void __cdecl v8::internal::compiler::<struct std::<__int64,char>,struct v8::base::<struct std::<__int64,char>>,struct std::<struct std::<__int64,char>>>::__dflt_ctor_closure(void)__ptr64 
??_F?$NodeCache@U?$pair@_JD@std@@U?$hash@U?$pair@_JD@std@@@base@v8@@U?$equal_to@U?$pair@_JD@std@@@2@@compiler@internal@v8@@QEAAXXZ
; public: void __cdecl v8::internal::compiler::<__int64,struct v8::base::<__int64>,struct std::<__int64>>::__dflt_ctor_closure(void)__ptr64 
??_F?$NodeCache@_JU?$hash@_J@base@v8@@U?$equal_to@_J@std@@@compiler@internal@v8@@QEAAXXZ
; public: void __cdecl v8::CpuProfilingOptions::__dflt_ctor_closure(void)__ptr64 
??_FCpuProfilingOptions@v8@@QEAAXXZ
; public: void __cdecl v8::internal::compiler::RawMachineLabel::__dflt_ctor_closure(void)__ptr64 
??_FRawMachineLabel@compiler@internal@v8@@QEAAXXZ
; public: void __cdecl v8::internal::interpreter::Register::__dflt_ctor_closure(void)__ptr64 
??_FRegister@interpreter@internal@v8@@QEAAXXZ
; public: void __cdecl v8::SnapshotCreator::__dflt_ctor_closure(void)__ptr64 
??_FSnapshotCreator@v8@@QEAAXXZ
; public: void __cdecl v8::internal::SourcePositionTableBuilder::__dflt_ctor_closure(void)__ptr64 
??_FSourcePositionTableBuilder@internal@v8@@QEAAXXZ
; public: void __cdecl v8::internal::wasm::WasmModule::__dflt_ctor_closure(void)__ptr64 
??_FWasmModule@wasm@internal@v8@@QEAAXXZ
; private: static void *__ptr64 __cdecl v8::internal::wasm::ErrorThrower::operator new[](unsigned __int64)
??_UErrorThrower@wasm@internal@v8@@CAPEAX_K@Z
; private: static void *__ptr64 __cdecl v8::EscapableHandleScope::operator new[](unsigned __int64)
??_UEscapableHandleScope@v8@@CAPEAX_K@Z
; private: static void *__ptr64 __cdecl v8::HandleScope::operator new[](unsigned __int64)
??_UHandleScope@v8@@CAPEAX_K@Z
; private: static void *__ptr64 __cdecl v8::internal::interpreter::Register::operator new[](unsigned __int64)
??_URegister@interpreter@internal@v8@@CAPEAX_K@Z
; private: static void *__ptr64 __cdecl v8::SealHandleScope::operator new[](unsigned __int64)
??_USealHandleScope@v8@@CAPEAX_K@Z
; private: static void *__ptr64 __cdecl v8::TryCatch::operator new[](unsigned __int64)
??_UTryCatch@v8@@CAPEAX_K@Z
; private: static void __cdecl v8::internal::wasm::ErrorThrower::operator delete[](void *__ptr64,unsigned __int64)
??_VErrorThrower@wasm@internal@v8@@CAXPEAX_K@Z
; private: static void __cdecl v8::EscapableHandleScope::operator delete[](void *__ptr64,unsigned __int64)
??_VEscapableHandleScope@v8@@CAXPEAX_K@Z
; private: static void __cdecl v8::HandleScope::operator delete[](void *__ptr64,unsigned __int64)
??_VHandleScope@v8@@CAXPEAX_K@Z
; private: static void __cdecl v8::internal::interpreter::Register::operator delete[](void *__ptr64,unsigned __int64)
??_VRegister@interpreter@internal@v8@@CAXPEAX_K@Z
; private: static void __cdecl v8::SealHandleScope::operator delete[](void *__ptr64,unsigned __int64)
??_VSealHandleScope@v8@@CAXPEAX_K@Z
; private: static void __cdecl v8::TryCatch::operator delete[](void *__ptr64,unsigned __int64)
??_VTryCatch@v8@@CAXPEAX_K@Z
; public: static int const v8::base::CPU::ARM
?ARM@CPU@base@v8@@2HB DATA
; public: static int const v8::base::CPU::ARM_CORTEX_A12
?ARM_CORTEX_A12@CPU@base@v8@@2HB DATA
; public: static int const v8::base::CPU::ARM_CORTEX_A15
?ARM_CORTEX_A15@CPU@base@v8@@2HB DATA
; public: static int const v8::base::CPU::ARM_CORTEX_A5
?ARM_CORTEX_A5@CPU@base@v8@@2HB DATA
; public: static int const v8::base::CPU::ARM_CORTEX_A7
?ARM_CORTEX_A7@CPU@base@v8@@2HB DATA
; public: static int const v8::base::CPU::ARM_CORTEX_A8
?ARM_CORTEX_A8@CPU@base@v8@@2HB DATA
; public: static int const v8::base::CPU::ARM_CORTEX_A9
?ARM_CORTEX_A9@CPU@base@v8@@2HB DATA
; public: class v8::internal::interpreter::BytecodeArrayBuilder &__ptr64 __cdecl v8::internal::interpreter::BytecodeArrayBuilder::Abort(enum v8::internal::AbortReason)__ptr64 
?Abort@BytecodeArrayBuilder@interpreter@internal@v8@@QEAAAEAV1234@W4AbortReason@34@@Z
; public: static void __cdecl v8::base::OS::Abort(void)
?Abort@OS@base@v8@@SAXXZ
; public: void __cdecl v8::internal::wasm::StreamingDecoder::Abort(void)__ptr64 
?Abort@StreamingDecoder@wasm@internal@v8@@QEAAXXZ
; public: void __cdecl v8::internal::TurboAssembler::Abort(enum v8::internal::AbortReason)__ptr64 
?Abort@TurboAssembler@internal@v8@@QEAAXW4AbortReason@23@@Z
; public: void __cdecl v8::WasmModuleObjectBuilderStreaming::Abort(class v8::<class v8::Value>)__ptr64 
?Abort@WasmModuleObjectBuilderStreaming@v8@@QEAAXV?$MaybeLocal@VValue@v8@@@2@@Z
; public: void __cdecl v8::WasmStreaming::Abort(class v8::<class v8::Value>)__ptr64 
?Abort@WasmStreaming@v8@@QEAAXV?$MaybeLocal@VValue@v8@@@2@@Z
; public: void __cdecl v8::internal::CompilerDispatcher::AbortAll(void)__ptr64 
?AbortAll@CompilerDispatcher@internal@v8@@QEAAXXZ
; public: void __cdecl v8::internal::compiler::CodeAssembler::AbortCSAAssert(class v8::internal::compiler::Node *__ptr64)__ptr64 
?AbortCSAAssert@CodeAssembler@compiler@internal@v8@@QEAAXPEAVNode@234@@Z
; public: class v8::internal::compiler::Operator const *__ptr64 __cdecl v8::internal::compiler::MachineOperatorBuilder::AbortCSAAssert(void)__ptr64 
?AbortCSAAssert@MachineOperatorBuilder@compiler@internal@v8@@QEAAPEBVOperator@234@XZ
; public: void __cdecl v8::internal::compiler::RawMachineAssembler::AbortCSAAssert(class v8::internal::compiler::Node *__ptr64)__ptr64 
?AbortCSAAssert@RawMachineAssembler@compiler@internal@v8@@QEAAXPEAVNode@234@@Z
; public: void __cdecl v8::internal::CompilerDispatcher::AbortJob(unsigned __int64)__ptr64 
?AbortJob@CompilerDispatcher@internal@v8@@QEAAX_K@Z
; public: void __cdecl v8::internal::OptimizedCompilationInfo::AbortOptimization(enum v8::internal::BailoutReason)__ptr64 
?AbortOptimization@OptimizedCompilationInfo@internal@v8@@QEAAXW4BailoutReason@23@@Z
; public: virtual void __cdecl v8::internal::AssemblerBase::AbortedCodeGeneration(void)__ptr64 
?AbortedCodeGeneration@AssemblerBase@internal@v8@@UEAAXXZ
; public: void __cdecl v8::internal::MacroAssembler::Abspd(class v8::internal::XMMRegister)__ptr64 
?Abspd@MacroAssembler@internal@v8@@QEAAXVXMMRegister@23@@Z
; public: void __cdecl v8::internal::MacroAssembler::Absps(class v8::internal::XMMRegister)__ptr64 
?Absps@MacroAssembler@internal@v8@@QEAAXVXMMRegister@23@@Z
; public: static class v8::internal::Descriptor __cdecl v8::internal::Descriptor::AccessorConstant(class v8::internal::<class v8::internal::Name>,class v8::internal::<class v8::internal::Object>,enum v8::internal::PropertyAttributes)
?AccessorConstant@Descriptor@internal@v8@@SA?AV123@V?$Handle@VName@internal@v8@@@23@V?$Handle@VObject@internal@v8@@@23@W4PropertyAttributes@23@@Z
; public: void __cdecl v8::internal::Space::AccountCommitted(unsigned __int64)__ptr64 
?AccountCommitted@Space@internal@v8@@QEAAX_K@Z
; public: void __cdecl v8::internal::Space::AccountUncommitted(unsigned __int64)__ptr64 
?AccountUncommitted@Space@internal@v8@@QEAAX_K@Z
; public: unsigned __int64 __cdecl v8::internal::PagedSpace::AccountedFree(unsigned __int64,unsigned __int64)__ptr64 
?AccountedFree@PagedSpace@internal@v8@@QEAA_K_K0@Z
; public: void __cdecl v8::internal::ScriptData::AcquireDataOwnership(void)__ptr64 
?AcquireDataOwnership@ScriptData@internal@v8@@QEAAXXZ
; private: void __cdecl v8::internal::IncrementalMarking::ActivateIncrementalWriteBarrier(class v8::internal::NewSpace *__ptr64)__ptr64 
?ActivateIncrementalWriteBarrier@IncrementalMarking@internal@v8@@AEAAXPEAVNewSpace@23@@Z
; private: void __cdecl v8::internal::IncrementalMarking::ActivateIncrementalWriteBarrier(class v8::internal::PagedSpace *__ptr64)__ptr64 
?ActivateIncrementalWriteBarrier@IncrementalMarking@internal@v8@@AEAAXPEAVPagedSpace@23@@Z
; private: void __cdecl v8::internal::IncrementalMarking::ActivateIncrementalWriteBarrier(void)__ptr64 
?ActivateIncrementalWriteBarrier@IncrementalMarking@internal@v8@@AEAAXXZ
; public: static int __cdecl v8::base::OS::ActivationFrameAlignment(void)
?ActivationFrameAlignment@OS@base@v8@@SAHXZ
; public: unsigned int __cdecl v8::internal::wasm::WasmInterpreter::Thread::ActivationFrameBase(unsigned int)__ptr64 
?ActivationFrameBase@Thread@WasmInterpreter@wasm@internal@v8@@QEAAII@Z
; public: static class v8::internal::<class v8::internal::GlobalDictionary> __cdecl v8::internal::<class v8::internal::GlobalDictionary,class v8::internal::GlobalDictionaryShape>::Add(class v8::internal::Isolate *__ptr64,class v8::internal::<class v8::internal::GlobalDictionary>,class v8::internal::<class v8::internal::Name>,class v8::internal::<class v8::internal::Object>,class v8::internal::PropertyDetails,int *__ptr64)
?Add@?$BaseNameDictionary@VGlobalDictionary@internal@v8@@VGlobalDictionaryShape@23@@internal@v8@@SA?AV?$Handle@VGlobalDictionary@internal@v8@@@23@PEAVIsolate@23@V423@V?$Handle@VName@internal@v8@@@23@V?$Handle@VObject@internal@v8@@@23@VPropertyDetails@23@PEAH@Z
; public: static class v8::internal::<class v8::internal::NameDictionary> __cdecl v8::internal::<class v8::internal::NameDictionary,class v8::internal::NameDictionaryShape>::Add(class v8::internal::Isolate *__ptr64,class v8::internal::<class v8::internal::NameDictionary>,class v8::internal::<class v8::internal::Name>,class v8::internal::<class v8::internal::Object>,class v8::internal::PropertyDetails,int *__ptr64)
?Add@?$BaseNameDictionary@VNameDictionary@internal@v8@@VNameDictionaryShape@23@@internal@v8@@SA?AV?$Handle@VNameDictionary@internal@v8@@@23@PEAVIsolate@23@V423@V?$Handle@VName@internal@v8@@@23@V?$Handle@VObject@internal@v8@@@23@VPropertyDetails@23@PEAH@Z
; public: static class v8::internal::<class v8::internal::GlobalDictionary> __cdecl v8::internal::<class v8::internal::GlobalDictionary,class v8::internal::GlobalDictionaryShape>::Add(class v8::internal::Isolate *__ptr64,class v8::internal::<class v8::internal::GlobalDictionary>,class v8::internal::<class v8::internal::Name>,class v8::internal::<class v8::internal::Object>,class v8::internal::PropertyDetails,int *__ptr64)
?Add@?$Dictionary@VGlobalDictionary@internal@v8@@VGlobalDictionaryShape@23@@internal@v8@@SA?AV?$Handle@VGlobalDictionary@internal@v8@@@23@PEAVIsolate@23@V423@V?$Handle@VName@internal@v8@@@23@V?$Handle@VObject@internal@v8@@@23@VPropertyDetails@23@PEAH@Z
; public: static class v8::internal::<class v8::internal::NameDictionary> __cdecl v8::internal::<class v8::internal::NameDictionary,class v8::internal::NameDictionaryShape>::Add(class v8::internal::Isolate *__ptr64,class v8::internal::<class v8::internal::NameDictionary>,class v8::internal::<class v8::internal::Name>,class v8::internal::<class v8::internal::Object>,class v8::internal::PropertyDetails,int *__ptr64)
?Add@?$Dictionary@VNameDictionary@internal@v8@@VNameDictionaryShape@23@@internal@v8@@SA?AV?$Handle@VNameDictionary@internal@v8@@@23@PEAVIsolate@23@V423@V?$Handle@VName@internal@v8@@@23@V?$Handle@VObject@internal@v8@@@23@VPropertyDetails@23@PEAH@Z
; public: static class v8::internal::<class v8::internal::NumberDictionary> __cdecl v8::internal::<class v8::internal::NumberDictionary,class v8::internal::NumberDictionaryShape>::Add(class v8::internal::Isolate *__ptr64,class v8::internal::<class v8::internal::NumberDictionary>,unsigned int,class v8::internal::<class v8::internal::Object>,class v8::internal::PropertyDetails,int *__ptr64)
?Add@?$Dictionary@VNumberDictionary@internal@v8@@VNumberDictionaryShape@23@@internal@v8@@SA?AV?$Handle@VNumberDictionary@internal@v8@@@23@PEAVIsolate@23@V423@IV?$Handle@VObject@internal@v8@@@23@VPropertyDetails@23@PEAH@Z
; public: static class v8::internal::<class v8::internal::SimpleNumberDictionary> __cdecl v8::internal::<class v8::internal::SimpleNumberDictionary,class v8::internal::SimpleNumberDictionaryShape>::Add(class v8::internal::Isolate *__ptr64,class v8::internal::<class v8::internal::SimpleNumberDictionary>,unsigned int,class v8::internal::<class v8::internal::Object>,class v8::internal::PropertyDetails,int *__ptr64)
?Add@?$Dictionary@VSimpleNumberDictionary@internal@v8@@VSimpleNumberDictionaryShape@23@@internal@v8@@SA?AV?$Handle@VSimpleNumberDictionary@internal@v8@@@23@PEAVIsolate@23@V423@IV?$Handle@VObject@internal@v8@@@23@VPropertyDetails@23@PEAH@Z
; public: static class v8::internal::<class v8::internal::ArrayList> __cdecl v8::internal::ArrayList::Add(class v8::internal::Isolate *__ptr64,class v8::internal::<class v8::internal::ArrayList>,class v8::internal::<class v8::internal::Object>,class v8::internal::<class v8::internal::Object>)
?Add@ArrayList@internal@v8@@SA?AV?$Handle@VArrayList@internal@v8@@@23@PEAVIsolate@23@V423@V?$Handle@VObject@internal@v8@@@23@2@Z
; public: static class v8::internal::<class v8::internal::ArrayList> __cdecl v8::internal::ArrayList::Add(class v8::internal::Isolate *__ptr64,class v8::internal::<class v8::internal::ArrayList>,class v8::internal::<class v8::internal::Object>)
?Add@ArrayList@internal@v8@@SA?AV?$Handle@VArrayList@internal@v8@@@23@PEAVIsolate@23@V423@V?$Handle@VObject@internal@v8@@@23@@Z
; public: void __cdecl v8::internal::BitVector::Add(int)__ptr64 
?Add@BitVector@internal@v8@@QEAAXH@Z
; public: void __cdecl v8::internal::PreparseDataBuilder::ByteData::Add(unsigned char)__ptr64 
?Add@ByteData@PreparseDataBuilder@internal@v8@@QEAAXE@Z
; public: void __cdecl v8::internal::compiler::BytecodeLoopAssignments::Add(class v8::internal::interpreter::Register)__ptr64 
?Add@BytecodeLoopAssignments@compiler@internal@v8@@QEAAXVRegister@interpreter@34@@Z
; public: void __cdecl v8::internal::CodeCommentsWriter::Add(unsigned int,class std::<char,struct std::<char>,class std::<char>>)__ptr64 
?Add@CodeCommentsWriter@internal@v8@@QEAAXIV?$basic_string@DU?$char_traits@D@std@@V?$allocator@D@2@@std@@@Z
; public: class v8::internal::compiler::Operator const *__ptr64 __cdecl v8::internal::compiler::JSOperatorBuilder::Add(enum v8::internal::BinaryOperationHint)__ptr64 
?Add@JSOperatorBuilder@compiler@internal@v8@@QEAAPEBVOperator@234@W4BinaryOperationHint@34@@Z
; public: static class v8::internal::<class v8::internal::ObjectHashSet> __cdecl v8::internal::ObjectHashSet::Add(class v8::internal::Isolate *__ptr64,class v8::internal::<class v8::internal::ObjectHashSet>,class v8::internal::<class v8::internal::Object>)
?Add@ObjectHashSet@internal@v8@@SA?AV?$Handle@VObjectHashSet@internal@v8@@@23@PEAVIsolate@23@V423@V?$Handle@VObject@internal@v8@@@23@@Z
; public: static class v8::internal::<class v8::internal::OrderedHashMap> __cdecl v8::internal::OrderedHashMap::Add(class v8::internal::Isolate *__ptr64,class v8::internal::<class v8::internal::OrderedHashMap>,class v8::internal::<class v8::internal::Object>,class v8::internal::<class v8::internal::Object>)
?Add@OrderedHashMap@internal@v8@@SA?AV?$MaybeHandle@VOrderedHashMap@internal@v8@@@23@PEAVIsolate@23@V?$Handle@VOrderedHashMap@internal@v8@@@23@V?$Handle@VObject@internal@v8@@@23@2@Z
; public: static class v8::internal::<class v8::internal::HeapObject> __cdecl v8::internal::OrderedHashMapHandler::Add(class v8::internal::Isolate *__ptr64,class v8::internal::<class v8::internal::HeapObject>,class v8::internal::<class v8::internal::Object>,class v8::internal::<class v8::internal::Object>)
?Add@OrderedHashMapHandler@internal@v8@@SA?AV?$MaybeHandle@VHeapObject@internal@v8@@@23@PEAVIsolate@23@V?$Handle@VHeapObject@internal@v8@@@23@V?$Handle@VObject@internal@v8@@@23@2@Z
; public: static class v8::internal::<class v8::internal::OrderedHashSet> __cdecl v8::internal::OrderedHashSet::Add(class v8::internal::Isolate *__ptr64,class v8::internal::<class v8::internal::OrderedHashSet>,class v8::internal::<class v8::internal::Object>)
?Add@OrderedHashSet@internal@v8@@SA?AV?$MaybeHandle@VOrderedHashSet@internal@v8@@@23@PEAVIsolate@23@V?$Handle@VOrderedHashSet@internal@v8@@@23@V?$Handle@VObject@internal@v8@@@23@@Z
; public: static class v8::internal::<class v8::internal::HeapObject> __cdecl v8::internal::OrderedHashSetHandler::Add(class v8::internal::Isolate *__ptr64,class v8::internal::<class v8::internal::HeapObject>,class v8::internal::<class v8::internal::Object>)
?Add@OrderedHashSetHandler@internal@v8@@SA?AV?$MaybeHandle@VHeapObject@internal@v8@@@23@PEAVIsolate@23@V?$Handle@VHeapObject@internal@v8@@@23@V?$Handle@VObject@internal@v8@@@23@@Z
; public: static class v8::internal::<class v8::internal::OrderedNameDictionary> __cdecl v8::internal::OrderedNameDictionary::Add(class v8::internal::Isolate *__ptr64,class v8::internal::<class v8::internal::OrderedNameDictionary>,class v8::internal::<class v8::internal::Name>,class v8::internal::<class v8::internal::Object>,class v8::internal::PropertyDetails)
?Add@OrderedNameDictionary@internal@v8@@SA?AV?$MaybeHandle@VOrderedNameDictionary@internal@v8@@@23@PEAVIsolate@23@V?$Handle@VOrderedNameDictionary@internal@v8@@@23@V?$Handle@VName@internal@v8@@@23@V?$Handle@VObject@internal@v8@@@23@VPropertyDetails@23@@Z
; public: static class v8::internal::<class v8::internal::HeapObject> __cdecl v8::internal::OrderedNameDictionaryHandler::Add(class v8::internal::Isolate *__ptr64,class v8::internal::<class v8::internal::HeapObject>,class v8::internal::<class v8::internal::Name>,class v8::internal::<class v8::internal::Object>,class v8::internal::PropertyDetails)
?Add@OrderedNameDictionaryHandler@internal@v8@@SA?AV?$MaybeHandle@VHeapObject@internal@v8@@@23@PEAVIsolate@23@V?$Handle@VHeapObject@internal@v8@@@23@V?$Handle@VName@internal@v8@@@23@V?$Handle@VObject@internal@v8@@@23@VPropertyDetails@23@@Z
; public: static class v8::internal::<class v8::internal::WeakArrayList> __cdecl v8::internal::PrototypeUsers::Add(class v8::internal::Isolate *__ptr64,class v8::internal::<class v8::internal::WeakArrayList>,class v8::internal::<class v8::internal::Map>,int *__ptr64)
?Add@PrototypeUsers@internal@v8@@SA?AV?$Handle@VWeakArrayList@internal@v8@@@23@PEAVIsolate@23@V423@V?$Handle@VMap@internal@v8@@@23@PEAH@Z
; public: class v8::<class v8::Set> __cdecl v8::Set::Add(class v8::<class v8::Context>,class v8::<class v8::Value>)__ptr64 
?Add@Set@v8@@QEAA?AV?$MaybeLocal@VSet@v8@@@2@V?$Local@VContext@v8@@@2@V?$Local@VValue@v8@@@2@@Z
; public: static class v8::internal::<class v8::internal::SmallOrderedHashMap> __cdecl v8::internal::SmallOrderedHashMap::Add(class v8::internal::Isolate *__ptr64,class v8::internal::<class v8::internal::SmallOrderedHashMap>,class v8::internal::<class v8::internal::Object>,class v8::internal::<class v8::internal::Object>)
?Add@SmallOrderedHashMap@internal@v8@@SA?AV?$MaybeHandle@VSmallOrderedHashMap@internal@v8@@@23@PEAVIsolate@23@V?$Handle@VSmallOrderedHashMap@internal@v8@@@23@V?$Handle@VObject@internal@v8@@@23@2@Z
; public: static class v8::internal::<class v8::internal::SmallOrderedHashSet> __cdecl v8::internal::SmallOrderedHashSet::Add(class v8::internal::Isolate *__ptr64,class v8::internal::<class v8::internal::SmallOrderedHashSet>,class v8::internal::<class v8::internal::Object>)
?Add@SmallOrderedHashSet@internal@v8@@SA?AV?$MaybeHandle@VSmallOrderedHashSet@internal@v8@@@23@PEAVIsolate@23@V?$Handle@VSmallOrderedHashSet@internal@v8@@@23@V?$Handle@VObject@internal@v8@@@23@@Z
; public: static class v8::internal::<class v8::internal::SmallOrderedNameDictionary> __cdecl v8::internal::SmallOrderedNameDictionary::Add(class v8::internal::Isolate *__ptr64,class v8::internal::<class v8::internal::SmallOrderedNameDictionary>,class v8::internal::<class v8::internal::Name>,class v8::internal::<class v8::internal::Object>,class v8::internal::PropertyDetails)
?Add@SmallOrderedNameDictionary@internal@v8@@SA?AV?$MaybeHandle@VSmallOrderedNameDictionary@internal@v8@@@23@PEAVIsolate@23@V?$Handle@VSmallOrderedNameDictionary@internal@v8@@@23@V?$Handle@VName@internal@v8@@@23@V?$Handle@VObject@internal@v8@@@23@VPropertyDetails@23@@Z
; public: void __cdecl v8::internal::BitVector::AddAll(void)__ptr64 
?AddAll@BitVector@internal@v8@@QEAAXXZ
; public: void __cdecl v8::internal::GCTracer::AddAllocation(double)__ptr64 
?AddAllocation@GCTracer@internal@v8@@QEAAXN@Z
; public: virtual void __cdecl v8::internal::Space::AddAllocationObserver(class v8::internal::AllocationObserver *__ptr64)__ptr64 
?AddAllocationObserver@Space@internal@v8@@UEAAXPEAVAllocationObserver@23@@Z
; public: virtual void __cdecl v8::internal::SpaceWithLinearArea::AddAllocationObserver(class v8::internal::AllocationObserver *__ptr64)__ptr64 
?AddAllocationObserver@SpaceWithLinearArea@internal@v8@@UEAAXPEAVAllocationObserver@23@@Z
; private: class v8::internal::wasm::WasmCode *__ptr64 __cdecl v8::internal::wasm::NativeModule::AddAndPublishAnonymousCode(class v8::internal::<class v8::internal::Code>,enum v8::internal::wasm::WasmCode::Kind,char const *__ptr64)__ptr64 
?AddAndPublishAnonymousCode@NativeModule@wasm@internal@v8@@AEAAPEAVWasmCode@234@V?$Handle@VCode@internal@v8@@@34@W4Kind@5234@PEBD@Z
; public: void __cdecl v8::internal::wasm::AsmFunctionType::AddArgument(class v8::internal::wasm::AsmType *__ptr64)__ptr64 
?AddArgument@AsmFunctionType@wasm@internal@v8@@QEAAXPEAVAsmType@234@@Z
; private: void __cdecl v8::internal::Parser::AddArrowFunctionFormalParameters(struct v8::internal::ParserFormalParameters *__ptr64,class v8::internal::Expression *__ptr64,int)__ptr64 
?AddArrowFunctionFormalParameters@Parser@internal@v8@@AEAAXPEAUParserFormalParameters@23@PEAVExpression@23@H@Z
; public: void __cdecl v8::internal::wasm::WasmFunctionBuilder::AddAsmWasmOffset(unsigned __int64,unsigned __int64)__ptr64 
?AddAsmWasmOffset@WasmFunctionBuilder@wasm@internal@v8@@QEAAX_K0@Z
; protected: void __cdecl v8::internal::Deserializer::AddAttachedObject(class v8::internal::<class v8::internal::HeapObject>)__ptr64 
?AddAttachedObject@Deserializer@internal@v8@@IEAAXV?$Handle@VHeapObject@internal@v8@@@23@@Z
; public: void __cdecl v8::internal::GCTracer::AddBackgroundScopeSample(enum v8::internal::GCTracer::BackgroundScope::ScopeId,double)__ptr64 
?AddBackgroundScopeSample@GCTracer@internal@v8@@QEAAXW4ScopeId@BackgroundScope@123@N@Z
; public: void __cdecl v8::Isolate::AddBeforeCallEnteredCallback(void(__cdecl *)(class v8::Isolate *__ptr64))__ptr64 
?AddBeforeCallEnteredCallback@Isolate@v8@@QEAAXP6AXPEAV12@@Z@Z
; public: void __cdecl v8::internal::Bignum::AddBignum(class v8::internal::Bignum const &__ptr64 )__ptr64 
?AddBignum@Bignum@internal@v8@@QEAAXAEBV123@@Z
; public: class v8::internal::FeedbackSlot __cdecl v8::internal::FeedbackVectorSpec::AddBinaryOpICSlot(void)__ptr64 
?AddBinaryOpICSlot@FeedbackVectorSpec@internal@v8@@QEAA?AVFeedbackSlot@23@XZ
; public: void __cdecl v8::internal::compiler::TopLevelLiveRange::AddBlockRequiringSpillOperand(class v8::internal::compiler::RpoNumber,class v8::internal::compiler::RegisterAllocationData const *__ptr64)__ptr64 
?AddBlockRequiringSpillOperand@TopLevelLiveRange@compiler@internal@v8@@QEAAXVRpoNumber@234@PEBVRegisterAllocationData@234@@Z
; public: void __cdecl v8::internal::compiler::Schedule::AddBranch(class v8::internal::compiler::BasicBlock *__ptr64,class v8::internal::compiler::Node *__ptr64,class v8::internal::compiler::BasicBlock *__ptr64,class v8::internal::compiler::BasicBlock *__ptr64)__ptr64 
?AddBranch@Schedule@compiler@internal@v8@@QEAAXPEAVBasicBlock@234@PEAVNode@234@00@Z
; public: void __cdecl v8::internal::wasm::WasmInterpreter::Thread::AddBreakFlags(unsigned char)__ptr64 
?AddBreakFlags@Thread@WasmInterpreter@wasm@internal@v8@@QEAAXE@Z
; public: void __cdecl v8::HeapProfiler::AddBuildEmbedderGraphCallback(void(__cdecl *)(class v8::Isolate *__ptr64,class v8::EmbedderGraph *__ptr64,void *__ptr64),void *__ptr64)__ptr64 
?AddBuildEmbedderGraphCallback@HeapProfiler@v8@@QEAAXP6AXPEAVIsolate@2@PEAVEmbedderGraph@2@PEAX@Z2@Z
; public: void __cdecl v8::internal::compiler::Schedule::AddCall(class v8::internal::compiler::BasicBlock *__ptr64,class v8::internal::compiler::Node *__ptr64,class v8::internal::compiler::BasicBlock *__ptr64,class v8::internal::compiler::BasicBlock *__ptr64)__ptr64 
?AddCall@Schedule@compiler@internal@v8@@QEAAXPEAVBasicBlock@234@PEAVNode@234@00@Z
; public: void __cdecl v8::Isolate::AddCallCompletedCallback(void(__cdecl *)(class v8::Isolate *__ptr64))__ptr64 
?AddCallCompletedCallback@Isolate@v8@@QEAAXP6AXPEAV12@@Z@Z
; public: class v8::internal::FeedbackSlot __cdecl v8::internal::FeedbackVectorSpec::AddCallICSlot(void)__ptr64 
?AddCallICSlot@FeedbackVectorSpec@internal@v8@@QEAA?AVFeedbackSlot@23@XZ
; public: static void __cdecl v8::internal::CharacterRange::AddCaseEquivalents(class v8::internal::Isolate *__ptr64,class v8::internal::Zone *__ptr64,class v8::internal::<class v8::internal::CharacterRange> *__ptr64,bool)
?AddCaseEquivalents@CharacterRange@internal@v8@@SAXPEAVIsolate@23@PEAVZone@23@PEAV?$ZoneList@VCharacterRange@internal@v8@@@23@_N@Z
; public: virtual bool __cdecl v8::internal::FreeListManyCached::AddCategory(class v8::internal::FreeListCategory *__ptr64)__ptr64 
?AddCategory@FreeListManyCached@internal@v8@@UEAA_NPEAVFreeListCategory@23@@Z
; public: static unsigned int __cdecl v8::internal::StringHasher::AddCharacterCore(unsigned int,unsigned short)
?AddCharacterCore@StringHasher@internal@v8@@SAIIG@Z
; private: void __cdecl v8::internal::PreparseDataBuilder::AddChild(class v8::internal::PreparseDataBuilder *__ptr64)__ptr64 
?AddChild@PreparseDataBuilder@internal@v8@@AEAAXPEAV123@@Z
; public: static void __cdecl v8::internal::CharacterRange::AddClassEscape(char,class v8::internal::<class v8::internal::CharacterRange> *__ptr64,class v8::internal::Zone *__ptr64)
?AddClassEscape@CharacterRange@internal@v8@@SAXDPEAV?$ZoneList@VCharacterRange@internal@v8@@@23@PEAVZone@23@@Z
; public: static void __cdecl v8::internal::CharacterRange::AddClassEscape(char,class v8::internal::<class v8::internal::CharacterRange> *__ptr64,bool,class v8::internal::Zone *__ptr64)
?AddClassEscape@CharacterRange@internal@v8@@SAXDPEAV?$ZoneList@VCharacterRange@internal@v8@@@23@_NPEAVZone@23@@Z
; public: class v8::internal::FeedbackSlot __cdecl v8::internal::FeedbackVectorSpec::AddCloneObjectSlot(void)__ptr64 
?AddCloneObjectSlot@FeedbackVectorSpec@internal@v8@@QEAA?AVFeedbackSlot@23@XZ
; public: void __cdecl v8::internal::CodeMap::AddCode(unsigned __int64,class v8::internal::CodeEntry *__ptr64,unsigned int)__ptr64 
?AddCode@CodeMap@internal@v8@@QEAAX_KPEAVCodeEntry@23@I@Z
; public: class std::<class v8::internal::wasm::WasmCode,struct std::<class v8::internal::wasm::WasmCode>> __cdecl v8::internal::wasm::NativeModule::AddCode(unsigned int,class v8::internal::CodeDesc const &__ptr64 ,unsigned int,unsigned int,class v8::internal::<struct v8::internal::trap_handler::ProtectedInstructionData>,class v8::internal::<unsigned char const>,enum v8::internal::wasm::WasmCode::Kind,enum v8::internal::wasm::ExecutionTier)__ptr64 
?AddCode@NativeModule@wasm@internal@v8@@QEAA?AV?$unique_ptr@VWasmCode@wasm@internal@v8@@U?$default_delete@VWasmCode@wasm@internal@v8@@@std@@@std@@IAEBVCodeDesc@34@IIV?$OwnedVector@UProtectedInstructionData@trap_handler@internal@v8@@@34@V?$OwnedVector@$$CBE@34@W4Kind@WasmCode@234@W4ExecutionTier@234@@Z
; private: unsigned int __cdecl v8::internal::CodeMap::AddCodeEntry(unsigned __int64,class v8::internal::CodeEntry *__ptr64)__ptr64 
?AddCodeEntry@CodeMap@internal@v8@@AEAAI_KPEAVCodeEntry@23@@Z
; public: void __cdecl v8::internal::Logger::AddCodeEventListener(class v8::internal::CodeEventListener *__ptr64)__ptr64 
?AddCodeEventListener@Logger@internal@v8@@QEAAXPEAVCodeEventListener@23@@Z
; public: class v8::internal::wasm::WasmCode *__ptr64 __cdecl v8::internal::wasm::NativeModule::AddCodeForTesting(class v8::internal::<class v8::internal::Code>)__ptr64 
?AddCodeForTesting@NativeModule@wasm@internal@v8@@QEAAPEAVWasmCode@234@V?$Handle@VCode@internal@v8@@@34@@Z
; private: void __cdecl v8::internal::wasm::NativeModule::AddCodeSpace(class v8::base::AddressRegion)__ptr64 
?AddCodeSpace@NativeModule@wasm@internal@v8@@AEAAXVAddressRegion@base@4@@Z
; protected: int __cdecl v8::internal::AssemblerBase::AddCodeTarget(class v8::internal::<class v8::internal::Code>)__ptr64 
?AddCodeTarget@AssemblerBase@internal@v8@@IEAAHV?$Handle@VCode@internal@v8@@@23@@Z
; private: class std::<class v8::internal::wasm::WasmCode,struct std::<class v8::internal::wasm::WasmCode>> __cdecl v8::internal::wasm::NativeModule::AddCodeWithCodeSpace(unsigned int,class v8::internal::CodeDesc const &__ptr64 ,unsigned int,unsigned int,class v8::internal::<struct v8::internal::trap_handler::ProtectedInstructionData>,class v8::internal::<unsigned char const>,enum v8::internal::wasm::WasmCode::Kind,enum v8::internal::wasm::ExecutionTier,class v8::internal::<unsigned char>)__ptr64 
?AddCodeWithCodeSpace@NativeModule@wasm@internal@v8@@AEAA?AV?$unique_ptr@VWasmCode@wasm@internal@v8@@U?$default_delete@VWasmCode@wasm@internal@v8@@@std@@@std@@IAEBVCodeDesc@34@IIV?$OwnedVector@UProtectedInstructionData@trap_handler@internal@v8@@@34@V?$OwnedVector@$$CBE@34@W4Kind@WasmCode@234@W4ExecutionTier@234@V?$Vector@E@34@@Z
; public: void __cdecl v8::internal::GCTracer::AddCompactionEvent(double,unsigned __int64)__ptr64 
?AddCompactionEvent@GCTracer@internal@v8@@QEAAXN_K@Z
; public: class v8::internal::FeedbackSlot __cdecl v8::internal::FeedbackVectorSpec::AddCompareICSlot(void)__ptr64 
?AddCompareICSlot@FeedbackVectorSpec@internal@v8@@QEAA?AVFeedbackSlot@23@XZ
; public: class std::<class v8::internal::wasm::WasmCode *__ptr64,class std::<class v8::internal::wasm::WasmCode *__ptr64>> __cdecl v8::internal::wasm::NativeModule::AddCompiledCode(class v8::internal::<struct v8::internal::wasm::WasmCompilationResult>)__ptr64 
?AddCompiledCode@NativeModule@wasm@internal@v8@@QEAA?AV?$vector@PEAVWasmCode@wasm@internal@v8@@V?$allocator@PEAVWasmCode@wasm@internal@v8@@@std@@@std@@V?$Vector@UWasmCompilationResult@wasm@internal@v8@@@34@@Z
; public: class v8::internal::wasm::WasmCode *__ptr64 __cdecl v8::internal::wasm::NativeModule::AddCompiledCode(struct v8::internal::wasm::WasmCompilationResult)__ptr64 
?AddCompiledCode@NativeModule@wasm@internal@v8@@QEAAPEAVWasmCode@234@UWasmCompilationResult@234@@Z
; public: int __cdecl v8::internal::compiler::InstructionSequence::AddConstant(int,class v8::internal::compiler::Constant)__ptr64 
?AddConstant@InstructionSequence@compiler@internal@v8@@QEAAHHVConstant@234@@Z
; public: unsigned __int64 __cdecl v8::SnapshotCreator::AddContext(class v8::<class v8::Context>,struct v8::SerializeInternalFieldsCallback)__ptr64 
?AddContext@SnapshotCreator@v8@@QEAA_KV?$Local@VContext@v8@@@2@USerializeInternalFieldsCallback@2@@Z
; public: void __cdecl v8::internal::GCTracer::AddContextDisposalTime(double)__ptr64 
?AddContextDisposalTime@GCTracer@internal@v8@@QEAAXN@Z
; public: void __cdecl v8::internal::ProfilerEventsProcessor::AddCurrentStack(bool)__ptr64 
?AddCurrentStack@ProfilerEventsProcessor@internal@v8@@QEAAX_N@Z
; private: unsigned __int64 __cdecl v8::SnapshotCreator::AddData(class v8::<class v8::Context>,unsigned __int64)__ptr64 
?AddData@SnapshotCreator@v8@@AEAA_KV?$Local@VContext@v8@@@2@_K@Z
; private: unsigned __int64 __cdecl v8::SnapshotCreator::AddData(unsigned __int64)__ptr64 
?AddData@SnapshotCreator@v8@@AEAA_K_K@Z
; public: static void __cdecl v8::internal::JSObject::AddDataElement(class v8::internal::<class v8::internal::JSObject>,unsigned int,class v8::internal::<class v8::internal::Object>,enum v8::internal::PropertyAttributes)
?AddDataElement@JSObject@internal@v8@@SAXV?$Handle@VJSObject@internal@v8@@@23@IV?$Handle@VObject@internal@v8@@@23@W4PropertyAttributes@23@@Z
; public: void __cdecl v8::internal::wasm::WasmModuleBuilder::AddDataSegment(unsigned char const *__ptr64,unsigned int,unsigned int)__ptr64 
?AddDataSegment@WasmModuleBuilder@wasm@internal@v8@@QEAAXPEBEII@Z
; public: void __cdecl v8::internal::compiler::Graph::AddDecorator(class v8::internal::compiler::GraphDecorator *__ptr64)__ptr64 
?AddDecorator@Graph@compiler@internal@v8@@QEAAXPEAVGraphDecorator@234@@Z
; public: void __cdecl v8::internal::compiler::NodeOriginTable::AddDecorator(void)__ptr64 
?AddDecorator@NodeOriginTable@compiler@internal@v8@@QEAAXXZ
; public: void __cdecl v8::internal::compiler::SourcePositionTable::AddDecorator(void)__ptr64 
?AddDecorator@SourcePositionTable@compiler@internal@v8@@QEAAXXZ
; public: void __cdecl v8::internal::ProfilerEventsProcessor::AddDeoptStack(unsigned __int64,int)__ptr64 
?AddDeoptStack@ProfilerEventsProcessor@internal@v8@@QEAAX_KH@Z
; public: int __cdecl v8::internal::compiler::InstructionSequence::AddDeoptimizationEntry(class v8::internal::compiler::FrameStateDescriptor *__ptr64,enum v8::internal::DeoptimizeKind,enum v8::internal::DeoptimizeReason,struct v8::internal::compiler::FeedbackSource const &__ptr64 )__ptr64 
?AddDeoptimizationEntry@InstructionSequence@compiler@internal@v8@@QEAAHPEAVFrameStateDescriptor@234@W4DeoptimizeKind@34@W4DeoptimizeReason@34@AEBUFeedbackSource@234@@Z
; private: class v8::internal::compiler::DeoptimizationExit *__ptr64 __cdecl v8::internal::compiler::CodeGenerator::AddDeoptimizationExit(class v8::internal::compiler::Instruction *__ptr64,unsigned __int64)__ptr64 
?AddDeoptimizationExit@CodeGenerator@compiler@internal@v8@@AEAAPEAVDeoptimizationExit@234@PEAVInstruction@234@_K@Z
; public: void __cdecl v8::internal::compiler::Schedule::AddDeoptimize(class v8::internal::compiler::BasicBlock *__ptr64,class v8::internal::compiler::Node *__ptr64)__ptr64 
?AddDeoptimize@Schedule@compiler@internal@v8@@QEAAXPEAVBasicBlock@234@PEAVNode@234@@Z
; public: class v8::internal::wasm::WasmCode *__ptr64 __cdecl v8::internal::wasm::NativeModule::AddDeserializedCode(unsigned int,class v8::internal::<unsigned char const>,unsigned int,unsigned int,unsigned __int64,unsigned __int64,unsigned __int64,unsigned __int64,unsigned __int64,class v8::internal::<struct v8::internal::trap_handler::ProtectedInstructionData>,class v8::internal::<unsigned char const>,class v8::internal::<unsigned char const>,enum v8::internal::wasm::WasmCode::Kind,enum v8::internal::wasm::ExecutionTier)__ptr64 
?AddDeserializedCode@NativeModule@wasm@internal@v8@@QEAAPEAVWasmCode@234@IV?$Vector@$$CBE@34@II_K1111V?$OwnedVector@UProtectedInstructionData@trap_handler@internal@v8@@@34@V?$OwnedVector@$$CBE@34@3W4Kind@5234@W4ExecutionTier@234@@Z
; public: static void __cdecl v8::internal::WasmTableObject::AddDispatchTable(class v8::internal::Isolate *__ptr64,class v8::internal::<class v8::internal::WasmTableObject>,class v8::internal::<class v8::internal::WasmInstanceObject>,int)
?AddDispatchTable@WasmTableObject@internal@v8@@SAXPEAVIsolate@23@V?$Handle@VWasmTableObject@internal@v8@@@23@V?$Handle@VWasmInstanceObject@internal@v8@@@23@H@Z
; protected: unsigned __int64 __cdecl v8::internal::AssemblerBase::AddEmbeddedObject(class v8::internal::<class v8::internal::HeapObject>)__ptr64 
?AddEmbeddedObject@AssemblerBase@internal@v8@@IEAA_KV?$Handle@VHeapObject@internal@v8@@@23@@Z
; protected: void __cdecl v8::internal::<class v8::internal::EphemeronHashTable,class v8::internal::EphemeronHashTableShape>::AddEntry(int,class v8::internal::Object,class v8::internal::Object)__ptr64 
?AddEntry@?$ObjectHashTableBase@VEphemeronHashTable@internal@v8@@VEphemeronHashTableShape@23@@internal@v8@@IEAAXHVObject@23@0@Z
; protected: void __cdecl v8::internal::<class v8::internal::ObjectHashTable,class v8::internal::ObjectHashTableShape>::AddEntry(int,class v8::internal::Object,class v8::internal::Object)__ptr64 
?AddEntry@?$ObjectHashTableBase@VObjectHashTable@internal@v8@@VObjectHashTableShape@23@@internal@v8@@IEAAXHVObject@23@0@Z
; private: void __cdecl v8::internal::SourcePositionTableBuilder::AddEntry(struct v8::internal::PositionTableEntry const &__ptr64 )__ptr64 
?AddEntry@SourcePositionTableBuilder@internal@v8@@AEAAXAEBUPositionTableEntry@23@@Z
; private: class v8::internal::HeapEntry *__ptr64 __cdecl v8::internal::V8HeapExplorer::AddEntry(class v8::internal::HeapObject)__ptr64 
?AddEntry@V8HeapExplorer@internal@v8@@AEAAPEAVHeapEntry@23@VHeapObject@23@@Z
; private: class v8::internal::HeapEntry *__ptr64 __cdecl v8::internal::V8HeapExplorer::AddEntry(class v8::internal::HeapObject,enum v8::internal::HeapEntry::Type,char const *__ptr64)__ptr64 
?AddEntry@V8HeapExplorer@internal@v8@@AEAAPEAVHeapEntry@23@VHeapObject@23@W4Type@423@PEBD@Z
; public: class v8::internal::HeapEntry *__ptr64 __cdecl v8::internal::V8HeapExplorer::AddEntry(unsigned __int64,enum v8::internal::HeapEntry::Type,char const *__ptr64,unsigned __int64)__ptr64 
?AddEntry@V8HeapExplorer@internal@v8@@QEAAPEAVHeapEntry@23@_KW4Type@423@PEBD0@Z
; void __cdecl node::AddEnvironmentCleanupHook(class v8::Isolate *__ptr64,void(__cdecl *)(void *__ptr64),void *__ptr64)
?AddEnvironmentCleanupHook@node@@YAXPEAVIsolate@v8@@P6AXPEAX@Z1@Z
; public: void __cdecl v8::internal::wasm::WasmModuleBuilder::AddExport(class v8::internal::<char const>,class v8::internal::wasm::WasmFunctionBuilder *__ptr64)__ptr64 
?AddExport@WasmModuleBuilder@wasm@internal@v8@@QEAAXV?$Vector@$$CBD@34@PEAVWasmFunctionBuilder@234@@Z
; public: void __cdecl v8::internal::wasm::WasmModuleBuilder::AddExport(class v8::internal::<char const>,enum v8::internal::wasm::ImportExportKindCode,unsigned int)__ptr64 
?AddExport@WasmModuleBuilder@wasm@internal@v8@@QEAAXV?$Vector@$$CBD@34@W4ImportExportKindCode@234@I@Z
; public: unsigned int __cdecl v8::internal::wasm::WasmModuleBuilder::AddExportedGlobal(enum v8::internal::wasm::ValueType,bool,struct v8::internal::wasm::WasmInitExpr const &__ptr64 ,class v8::internal::<char const>)__ptr64 
?AddExportedGlobal@WasmModuleBuilder@wasm@internal@v8@@QEAAIW4ValueType@234@_NAEBUWasmInitExpr@234@V?$Vector@$$CBD@34@@Z
; public: int __cdecl v8::internal::FeedbackVectorSpec::AddFeedbackCellForCreateClosure(void)__ptr64 
?AddFeedbackCellForCreateClosure@FeedbackVectorSpec@internal@v8@@QEAAHXZ
; public: class v8::internal::FeedbackSlot __cdecl v8::internal::FeedbackVectorSpec::AddForInSlot(void)__ptr64 
?AddForInSlot@FeedbackVectorSpec@internal@v8@@QEAA?AVFeedbackSlot@23@XZ
